---
triple:          'arm64-apple-darwin'
binary-path:     prog
relocations:
  - { offsetInCU: 0x2BB, offset: 0x2BB, size: 0x8, addend: 0x0, symName: __ZN3glm9normalizeIfLNS_9precisionE0ENS_5tvec3EEET1_IT_XT0_EERKS5_, symObjAddr: 0x1020, symBinAddr: 0x10000565C, symSize: 0x50 }
  - { offsetInCU: 0x303, offset: 0x303, size: 0x8, addend: 0x0, symName: __ZN3glmmlIfLNS_9precisionE0EEENS_5tvec3IT_XT0_EEERKS4_RKS3_, symObjAddr: 0x631C, symBinAddr: 0x10000A958, symSize: 0x8C }
  - { offsetInCU: 0x353, offset: 0x353, size: 0x8, addend: 0x0, symName: __ZN3glm11inversesqrtIfEET_S1_, symObjAddr: 0x63A8, symBinAddr: 0x10000A9E4, symSize: 0x30 }
  - { offsetInCU: 0x388, offset: 0x388, size: 0x8, addend: 0x0, symName: __ZN3glm3dotIfLNS_9precisionE0ENS_5tvec3EEET_RKT1_IS3_XT0_EES7_, symObjAddr: 0x63D8, symBinAddr: 0x10000AA14, symSize: 0x2C }
  - { offsetInCU: 0x424, offset: 0x424, size: 0x8, addend: 0x0, symName: __ZN3glmmlIfLNS_9precisionE0EEENS_5tvec3IT_XT0_EEERKS4_S6_, symObjAddr: 0x6460, symBinAddr: 0x10000AA9C, symSize: 0x8C }
  - { offsetInCU: 0x7025, offset: 0x7025, size: 0x8, addend: 0x0, symName: __ZNSt3__124__put_character_sequenceB7v160006IcNS_11char_traitsIcEEEERNS_13basic_ostreamIT_T0_EES7_PKS4_m, symObjAddr: 0x5640, symBinAddr: 0x100009C7C, symSize: 0x1EC }
  - { offsetInCU: 0x7EA9, offset: 0x7EA9, size: 0x8, addend: 0x0, symName: __ZNSt3__17advanceB7v160006IPKjllvEEvRT_T0_, symObjAddr: 0x68F8, symBinAddr: 0x10000AF34, symSize: 0x50 }
  - { offsetInCU: 0x7F14, offset: 0x7F14, size: 0x8, addend: 0x0, symName: __ZNSt3__17advanceB7v160006IPjllvEEvRT_T0_, symObjAddr: 0x7D18, symBinAddr: 0x10000C354, symSize: 0x50 }
  - { offsetInCU: 0x80C1, offset: 0x80C1, size: 0x8, addend: 0x0, symName: __ZNSt3__17advanceB7v160006IPKfllvEEvRT_T0_, symObjAddr: 0x8958, symBinAddr: 0x10000CF94, symSize: 0x50 }
  - { offsetInCU: 0x8E20, offset: 0x8E20, size: 0x8, addend: 0x0, symName: __ZNSt3__1lsB7v160006INS_11char_traitsIcEEEERNS_13basic_ostreamIcT_EES6_PKc, symObjAddr: 0x5E8, symBinAddr: 0x100004C24, symSize: 0x48 }
  - { offsetInCU: 0x8E82, offset: 0x8E82, size: 0x8, addend: 0x0, symName: __ZNSt3__15beginB7v160006IjLm36EEEPT_RAT0__S1_, symObjAddr: 0x1BC4, symBinAddr: 0x100006200, symSize: 0x14 }
  - { offsetInCU: 0x8EC1, offset: 0x8EC1, size: 0x8, addend: 0x0, symName: __ZNSt3__13endB7v160006IjLm36EEEPT_RAT0__S1_, symObjAddr: 0x1BD8, symBinAddr: 0x100006214, symSize: 0x18 }
  - { offsetInCU: 0x8F00, offset: 0x8F00, size: 0x8, addend: 0x0, symName: __ZNSt3__119__debug_db_insert_cB7v160006INS_6vectorIfNS_9allocatorIfEEEEEEvPT_, symObjAddr: 0x1E20, symBinAddr: 0x10000645C, symSize: 0x10 }
  - { offsetInCU: 0x8F31, offset: 0x8F31, size: 0x8, addend: 0x0, symName: __ZNSt3__119__debug_db_insert_cB7v160006INS_6vectorIjNS_9allocatorIjEEEEEEvPT_, symObjAddr: 0x1F8C, symBinAddr: 0x1000065C8, symSize: 0x10 }
  - { offsetInCU: 0x8F62, offset: 0x8F62, size: 0x8, addend: 0x0, symName: __ZNSt3__118__debug_db_erase_cB7v160006INS_6vectorIfNS_9allocatorIfEEEEEEvPT_, symObjAddr: 0x2250, symBinAddr: 0x10000688C, symSize: 0x10 }
  - { offsetInCU: 0x8F93, offset: 0x8F93, size: 0x8, addend: 0x0, symName: __ZNSt3__112__to_addressB7v160006IfEEPT_S2_, symObjAddr: 0x236C, symBinAddr: 0x1000069A8, symSize: 0x14 }
  - { offsetInCU: 0x8FC8, offset: 0x8FC8, size: 0x8, addend: 0x0, symName: __ZNSt3__119__libcpp_deallocateB7v160006EPvmm, symObjAddr: 0x248C, symBinAddr: 0x100006AC8, symSize: 0x60 }
  - { offsetInCU: 0x902D, offset: 0x902D, size: 0x8, addend: 0x0, symName: __ZNSt3__124__is_overaligned_for_newB7v160006Em, symObjAddr: 0x24EC, symBinAddr: 0x100006B28, symSize: 0x20 }
  - { offsetInCU: 0x905B, offset: 0x905B, size: 0x8, addend: 0x0, symName: __ZNSt3__127__do_deallocate_handle_sizeB7v160006IJSt11align_val_tEEEvPvmDpT_, symObjAddr: 0x250C, symBinAddr: 0x100006B48, symSize: 0x30 }
  - { offsetInCU: 0x90AE, offset: 0x90AE, size: 0x8, addend: 0x0, symName: __ZNSt3__127__do_deallocate_handle_sizeB7v160006IJEEEvPvmDpT_, symObjAddr: 0x253C, symBinAddr: 0x100006B78, symSize: 0x28 }
  - { offsetInCU: 0x90EC, offset: 0x90EC, size: 0x8, addend: 0x0, symName: __ZNSt3__124__libcpp_operator_deleteB7v160006IJPvSt11align_val_tEEEvDpT_, symObjAddr: 0x2564, symBinAddr: 0x100006BA0, symSize: 0x2C }
  - { offsetInCU: 0x9135, offset: 0x9135, size: 0x8, addend: 0x0, symName: __ZNSt3__124__libcpp_operator_deleteB7v160006IJPvEEEvDpT_, symObjAddr: 0x2590, symBinAddr: 0x100006BCC, symSize: 0x24 }
  - { offsetInCU: 0x916A, offset: 0x916A, size: 0x8, addend: 0x0, symName: __ZNSt3__118__debug_db_erase_cB7v160006INS_6vectorIjNS_9allocatorIjEEEEEEvPT_, symObjAddr: 0x2838, symBinAddr: 0x100006E74, symSize: 0x10 }
  - { offsetInCU: 0x919B, offset: 0x919B, size: 0x8, addend: 0x0, symName: __ZNSt3__112__to_addressB7v160006IjEEPT_S2_, symObjAddr: 0x2954, symBinAddr: 0x100006F90, symSize: 0x14 }
  - { offsetInCU: 0x91D0, offset: 0x91D0, size: 0x8, addend: 0x0, symName: __ZNSt3__13maxB7v160006ImEERKT_S3_S3_, symObjAddr: 0x30B4, symBinAddr: 0x1000076F0, symSize: 0x2C }
  - { offsetInCU: 0x9213, offset: 0x9213, size: 0x8, addend: 0x0, symName: __ZNSt3__13minB7v160006ImEERKT_S3_S3_, symObjAddr: 0x30E0, symBinAddr: 0x10000771C, symSize: 0x2C }
  - { offsetInCU: 0x9440, offset: 0x9440, size: 0x8, addend: 0x0, symName: __ZNSt3__13minB7v160006ImNS_6__lessImmEEEERKT_S5_S5_T0_, symObjAddr: 0x316C, symBinAddr: 0x1000077A8, symSize: 0x54 }
  - { offsetInCU: 0x94D5, offset: 0x94D5, size: 0x8, addend: 0x0, symName: __ZNSt3__120__throw_length_errorB7v160006EPKc, symObjAddr: 0x3248, symBinAddr: 0x100007884, symSize: 0x64 }
  - { offsetInCU: 0x94FD, offset: 0x94FD, size: 0x8, addend: 0x0, symName: __ZNSt3__13maxB7v160006ImNS_6__lessImmEEEERKT_S5_S5_T0_, symObjAddr: 0x332C, symBinAddr: 0x100007968, symSize: 0x54 }
  - { offsetInCU: 0x9557, offset: 0x9557, size: 0x8, addend: 0x0, symName: __ZNSt3__119__allocate_at_leastB7v160006INS_9allocatorIfEEEENS_19__allocation_resultINS_16allocator_traitsIT_E7pointerEEERS5_m, symObjAddr: 0x3490, symBinAddr: 0x100007ACC, symSize: 0x40 }
  - { offsetInCU: 0x959A, offset: 0x959A, size: 0x8, addend: 0x0, symName: __ZNSt3__117__libcpp_allocateB7v160006Emm, symObjAddr: 0x3614, symBinAddr: 0x100007C50, symSize: 0x60 }
  - { offsetInCU: 0x95F4, offset: 0x95F4, size: 0x8, addend: 0x0, symName: __ZNSt3__121__libcpp_operator_newB7v160006IJmSt11align_val_tEEEPvDpT_, symObjAddr: 0x3674, symBinAddr: 0x100007CB0, symSize: 0x2C }
  - { offsetInCU: 0x9641, offset: 0x9641, size: 0x8, addend: 0x0, symName: __ZNSt3__121__libcpp_operator_newB7v160006IJmEEEPvDpT_, symObjAddr: 0x36A0, symBinAddr: 0x100007CDC, symSize: 0x24 }
  - { offsetInCU: 0x967A, offset: 0x967A, size: 0x8, addend: 0x0, symName: __ZNSt3__142__uninitialized_allocator_move_if_noexceptB7v160006INS_9allocatorIfEENS_16reverse_iteratorIPfEES5_fvEET1_RT_T0_S9_S6_, symObjAddr: 0x3728, symBinAddr: 0x100007D64, symSize: 0x78 }
  - { offsetInCU: 0x96F7, offset: 0x96F7, size: 0x8, addend: 0x0, symName: __ZNSt3__14swapB7v160006IPfEENS_9enable_ifIXaasr21is_move_constructibleIT_EE5valuesr18is_move_assignableIS3_EE5valueEvE4typeERS3_S6_, symObjAddr: 0x37EC, symBinAddr: 0x100007E28, symSize: 0x3C }
  - { offsetInCU: 0x9748, offset: 0x9748, size: 0x8, addend: 0x0, symName: __ZNSt3__125__debug_db_invalidate_allB7v160006INS_6vectorIfNS_9allocatorIfEEEEEEvPT_, symObjAddr: 0x38D4, symBinAddr: 0x100007F10, symSize: 0x10 }
  - { offsetInCU: 0x9779, offset: 0x9779, size: 0x8, addend: 0x0, symName: __ZNSt3__14moveB7v160006INS_16reverse_iteratorIPfEES3_EET0_T_S5_S4_, symObjAddr: 0x38E4, symBinAddr: 0x100007F20, symSize: 0x78 }
  - { offsetInCU: 0x97D3, offset: 0x97D3, size: 0x8, addend: 0x0, symName: __ZNSt3__16__moveB7v160006INS_17_ClassicAlgPolicyENS_16reverse_iteratorIPfEES4_S4_EENS_4pairIT0_T2_EES6_T1_S7_, symObjAddr: 0x395C, symBinAddr: 0x100007F98, symSize: 0x64 }
  - { offsetInCU: 0x983F, offset: 0x983F, size: 0x8, addend: 0x0, symName: __ZNSt3__123__dispatch_copy_or_moveB7v160006INS_17_ClassicAlgPolicyENS_11__move_loopIS1_EENS_14__move_trivialENS_16reverse_iteratorIPfEES7_S7_EENS_4pairIT2_T4_EES9_T3_SA_, symObjAddr: 0x39C0, symBinAddr: 0x100007FFC, symSize: 0x64 }
  - { offsetInCU: 0x98BD, offset: 0x98BD, size: 0x8, addend: 0x0, symName: __ZNSt3__121__unwrap_and_dispatchB7v160006INS_10__overloadINS_11__move_loopINS_17_ClassicAlgPolicyEEENS_14__move_trivialEEENS_16reverse_iteratorIPfEES9_S9_Li0EEENS_4pairIT0_T2_EESB_T1_SC_, symObjAddr: 0x3A24, symBinAddr: 0x100008060, symSize: 0x12C }
  - { offsetInCU: 0x994D, offset: 0x994D, size: 0x8, addend: 0x0, symName: __ZNSt3__114__unwrap_rangeB7v160006INS_16reverse_iteratorIPfEES3_EENS_4pairIT0_S5_EET_S7_, symObjAddr: 0x3B50, symBinAddr: 0x10000818C, symSize: 0x84 }
  - { offsetInCU: 0x9B07, offset: 0x9B07, size: 0x8, addend: 0x0, symName: __ZNSt3__113__unwrap_iterB7v160006INS_16reverse_iteratorIPfEENS_18__unwrap_iter_implIS3_Lb0EEELi0EEEDTclsrT0_8__unwrapclsr3stdE7declvalIT_EEEES7_, symObjAddr: 0x3C74, symBinAddr: 0x1000082B0, symSize: 0x44 }
  - { offsetInCU: 0x9B4B, offset: 0x9B4B, size: 0x8, addend: 0x0, symName: __ZNSt3__19make_pairB7v160006INS_16reverse_iteratorIPfEES3_EENS_4pairINS_18__unwrap_ref_decayIT_E4typeENS5_IT0_E4typeEEEOS6_OS9_, symObjAddr: 0x3CB8, symBinAddr: 0x1000082F4, symSize: 0x38 }
  - { offsetInCU: 0x9B9A, offset: 0x9B9A, size: 0x8, addend: 0x0, symName: __ZNSt3__114__rewrap_rangeB7v160006INS_16reverse_iteratorIPfEES3_EET_S4_T0_, symObjAddr: 0x3CF0, symBinAddr: 0x10000832C, symSize: 0x5C }
  - { offsetInCU: 0x9BE6, offset: 0x9BE6, size: 0x8, addend: 0x0, symName: __ZNSt3__113__rewrap_iterB7v160006INS_16reverse_iteratorIPfEES3_NS_18__unwrap_iter_implIS3_Lb0EEEEET_S6_T0_, symObjAddr: 0x3D4C, symBinAddr: 0x100008388, symSize: 0x74 }
  - { offsetInCU: 0x9C3B, offset: 0x9C3B, size: 0x8, addend: 0x0, symName: __ZNSt3__1neB7v160006IPfS1_EEbRKNS_16reverse_iteratorIT_EERKNS2_IT0_EE, symObjAddr: 0x3DC0, symBinAddr: 0x1000083FC, symSize: 0x48 }
  - { offsetInCU: 0x9D6C, offset: 0x9D6C, size: 0x8, addend: 0x0, symName: __ZNSt3__119__allocate_at_leastB7v160006INS_9allocatorIjEEEENS_19__allocation_resultINS_16allocator_traitsIT_E7pointerEEERS5_m, symObjAddr: 0x4A64, symBinAddr: 0x1000090A0, symSize: 0x40 }
  - { offsetInCU: 0x9DAF, offset: 0x9DAF, size: 0x8, addend: 0x0, symName: __ZNSt3__142__uninitialized_allocator_move_if_noexceptB7v160006INS_9allocatorIjEENS_16reverse_iteratorIPjEES5_jvEET1_RT_T0_S9_S6_, symObjAddr: 0x4C18, symBinAddr: 0x100009254, symSize: 0x78 }
  - { offsetInCU: 0x9E2C, offset: 0x9E2C, size: 0x8, addend: 0x0, symName: __ZNSt3__14swapB7v160006IPjEENS_9enable_ifIXaasr21is_move_constructibleIT_EE5valuesr18is_move_assignableIS3_EE5valueEvE4typeERS3_S6_, symObjAddr: 0x4CDC, symBinAddr: 0x100009318, symSize: 0x3C }
  - { offsetInCU: 0x9E7D, offset: 0x9E7D, size: 0x8, addend: 0x0, symName: __ZNSt3__125__debug_db_invalidate_allB7v160006INS_6vectorIjNS_9allocatorIjEEEEEEvPT_, symObjAddr: 0x4DC4, symBinAddr: 0x100009400, symSize: 0x10 }
  - { offsetInCU: 0x9EAE, offset: 0x9EAE, size: 0x8, addend: 0x0, symName: __ZNSt3__14moveB7v160006INS_16reverse_iteratorIPjEES3_EET0_T_S5_S4_, symObjAddr: 0x4DD4, symBinAddr: 0x100009410, symSize: 0x78 }
  - { offsetInCU: 0x9F08, offset: 0x9F08, size: 0x8, addend: 0x0, symName: __ZNSt3__16__moveB7v160006INS_17_ClassicAlgPolicyENS_16reverse_iteratorIPjEES4_S4_EENS_4pairIT0_T2_EES6_T1_S7_, symObjAddr: 0x4E4C, symBinAddr: 0x100009488, symSize: 0x64 }
  - { offsetInCU: 0x9F74, offset: 0x9F74, size: 0x8, addend: 0x0, symName: __ZNSt3__123__dispatch_copy_or_moveB7v160006INS_17_ClassicAlgPolicyENS_11__move_loopIS1_EENS_14__move_trivialENS_16reverse_iteratorIPjEES7_S7_EENS_4pairIT2_T4_EES9_T3_SA_, symObjAddr: 0x4EB0, symBinAddr: 0x1000094EC, symSize: 0x64 }
  - { offsetInCU: 0x9FF2, offset: 0x9FF2, size: 0x8, addend: 0x0, symName: __ZNSt3__121__unwrap_and_dispatchB7v160006INS_10__overloadINS_11__move_loopINS_17_ClassicAlgPolicyEEENS_14__move_trivialEEENS_16reverse_iteratorIPjEES9_S9_Li0EEENS_4pairIT0_T2_EESB_T1_SC_, symObjAddr: 0x4F14, symBinAddr: 0x100009550, symSize: 0x12C }
  - { offsetInCU: 0xA082, offset: 0xA082, size: 0x8, addend: 0x0, symName: __ZNSt3__114__unwrap_rangeB7v160006INS_16reverse_iteratorIPjEES3_EENS_4pairIT0_S5_EET_S7_, symObjAddr: 0x5040, symBinAddr: 0x10000967C, symSize: 0x84 }
  - { offsetInCU: 0xA1A2, offset: 0xA1A2, size: 0x8, addend: 0x0, symName: __ZNSt3__113__unwrap_iterB7v160006INS_16reverse_iteratorIPjEENS_18__unwrap_iter_implIS3_Lb0EEELi0EEEDTclsrT0_8__unwrapclsr3stdE7declvalIT_EEEES7_, symObjAddr: 0x5164, symBinAddr: 0x1000097A0, symSize: 0x44 }
  - { offsetInCU: 0xA1E6, offset: 0xA1E6, size: 0x8, addend: 0x0, symName: __ZNSt3__19make_pairB7v160006INS_16reverse_iteratorIPjEES3_EENS_4pairINS_18__unwrap_ref_decayIT_E4typeENS5_IT0_E4typeEEEOS6_OS9_, symObjAddr: 0x51A8, symBinAddr: 0x1000097E4, symSize: 0x38 }
  - { offsetInCU: 0xA235, offset: 0xA235, size: 0x8, addend: 0x0, symName: __ZNSt3__114__rewrap_rangeB7v160006INS_16reverse_iteratorIPjEES3_EET_S4_T0_, symObjAddr: 0x51E0, symBinAddr: 0x10000981C, symSize: 0x5C }
  - { offsetInCU: 0xA281, offset: 0xA281, size: 0x8, addend: 0x0, symName: __ZNSt3__113__rewrap_iterB7v160006INS_16reverse_iteratorIPjEES3_NS_18__unwrap_iter_implIS3_Lb0EEEEET_S6_T0_, symObjAddr: 0x523C, symBinAddr: 0x100009878, symSize: 0x74 }
  - { offsetInCU: 0xA2D6, offset: 0xA2D6, size: 0x8, addend: 0x0, symName: __ZNSt3__1neB7v160006IPjS1_EEbRKNS_16reverse_iteratorIT_EERKNS2_IT0_EE, symObjAddr: 0x52B0, symBinAddr: 0x1000098EC, symSize: 0x48 }
  - { offsetInCU: 0xA38E, offset: 0xA38E, size: 0x8, addend: 0x0, symName: __ZNSt3__116__pad_and_outputB7v160006IcNS_11char_traitsIcEEEENS_19ostreambuf_iteratorIT_T0_EES6_PKS4_S8_S8_RNS_8ios_baseES4_, symObjAddr: 0x587C, symBinAddr: 0x100009EB8, symSize: 0x240 }
  - { offsetInCU: 0xA45D, offset: 0xA45D, size: 0x8, addend: 0x0, symName: __ZNSt3__119__debug_db_insert_cB7v160006INS_12basic_stringIcNS_11char_traitsIcEENS_9allocatorIcEEEEEEvPT_, symObjAddr: 0x5D30, symBinAddr: 0x10000A36C, symSize: 0x10 }
  - { offsetInCU: 0xA48E, offset: 0xA48E, size: 0x8, addend: 0x0, symName: __ZNSt3__112__to_addressB7v160006IcEEPT_S2_, symObjAddr: 0x5DFC, symBinAddr: 0x10000A438, symSize: 0x14 }
  - { offsetInCU: 0xA4F6, offset: 0xA4F6, size: 0x8, addend: 0x0, symName: __ZNSt3__19use_facetB7v160006INS_5ctypeIcEEEERKT_RKNS_6localeE, symObjAddr: 0x60B4, symBinAddr: 0x10000A6F0, symSize: 0x2C }
  - { offsetInCU: 0xA9C5, offset: 0xA9C5, size: 0x8, addend: 0x0, symName: __ZNSt3__118__constexpr_strlenB7v160006EPKc, symObjAddr: 0x614C, symBinAddr: 0x10000A788, symSize: 0x24 }
  - { offsetInCU: 0xA9F1, offset: 0xA9F1, size: 0x8, addend: 0x0, symName: __ZNSt3__1miB7v160006IPKjPjEEDTmicldtfp_4baseEcldtfp0_4baseEERKNS_11__wrap_iterIT_EERKNS5_IT0_EE, symObjAddr: 0x6854, symBinAddr: 0x10000AE90, symSize: 0x48 }
  - { offsetInCU: 0xAA3D, offset: 0xAA3D, size: 0x8, addend: 0x0, symName: __ZNSt3__18distanceB7v160006IPKjEENS_15iterator_traitsIT_E15difference_typeES4_S4_, symObjAddr: 0x68CC, symBinAddr: 0x10000AF08, symSize: 0x2C }
  - { offsetInCU: 0xAA80, offset: 0xAA80, size: 0x8, addend: 0x0, symName: __ZNSt3__14copyB7v160006IPKjPjEET0_T_S5_S4_, symObjAddr: 0x6B00, symBinAddr: 0x10000B13C, symSize: 0x40 }
  - { offsetInCU: 0xAADA, offset: 0xAADA, size: 0x8, addend: 0x0, symName: __ZNSt3__110__distanceB7v160006IPKjEENS_15iterator_traitsIT_E15difference_typeES4_S4_NS_26random_access_iterator_tagE, symObjAddr: 0x6D84, symBinAddr: 0x10000B3C0, symSize: 0x28 }
  - { offsetInCU: 0xAB27, offset: 0xAB27, size: 0x8, addend: 0x0, symName: __ZNSt3__121__convert_to_integralB7v160006El, symObjAddr: 0x6DAC, symBinAddr: 0x10000B3E8, symSize: 0x14 }
  - { offsetInCU: 0xAB53, offset: 0xAB53, size: 0x8, addend: 0x0, symName: __ZNSt3__19__advanceB7v160006IPKjEEvRT_NS_15iterator_traitsIS3_E15difference_typeENS_26random_access_iterator_tagE, symObjAddr: 0x6DC0, symBinAddr: 0x10000B3FC, symSize: 0x28 }
  - { offsetInCU: 0xAB9C, offset: 0xAB9C, size: 0x8, addend: 0x0, symName: __ZNSt3__130__uninitialized_allocator_copyB7v160006INS_9allocatorIjEEjjLPv0EEEPT0_RT_PKS4_S9_S5_, symObjAddr: 0x6DE8, symBinAddr: 0x10000B424, symSize: 0x38 }
  - { offsetInCU: 0xAC14, offset: 0xAC14, size: 0x8, addend: 0x0, symName: __ZNSt3__113move_backwardB7v160006IPjS1_EET0_T_S3_S2_, symObjAddr: 0x6E54, symBinAddr: 0x10000B490, symSize: 0x40 }
  - { offsetInCU: 0xAC6E, offset: 0xAC6E, size: 0x8, addend: 0x0, symName: __ZNSt3__115__move_backwardB7v160006INS_17_ClassicAlgPolicyEPjS2_S2_EENS_4pairIT0_T2_EES4_T1_S5_, symObjAddr: 0x6EBC, symBinAddr: 0x10000B4F8, symSize: 0x44 }
  - { offsetInCU: 0xACDA, offset: 0xACDA, size: 0x8, addend: 0x0, symName: __ZNSt3__123__dispatch_copy_or_moveB7v160006INS_17_ClassicAlgPolicyENS_20__move_backward_loopIS1_EENS_23__move_backward_trivialEPjS5_S5_EENS_4pairIT2_T4_EES7_T3_S8_, symObjAddr: 0x6F00, symBinAddr: 0x10000B53C, symSize: 0x44 }
  - { offsetInCU: 0xAD58, offset: 0xAD58, size: 0x8, addend: 0x0, symName: __ZNSt3__121__unwrap_and_dispatchB7v160006INS_10__overloadINS_20__move_backward_loopINS_17_ClassicAlgPolicyEEENS_23__move_backward_trivialEEEPjS7_S7_Li0EEENS_4pairIT0_T2_EES9_T1_SA_, symObjAddr: 0x6F44, symBinAddr: 0x10000B580, symSize: 0xB4 }
  - { offsetInCU: 0xADE6, offset: 0xADE6, size: 0x8, addend: 0x0, symName: __ZNSt3__114__unwrap_rangeB7v160006IPjS1_EENS_4pairIT0_S3_EET_S5_, symObjAddr: 0x6FF8, symBinAddr: 0x10000B634, symSize: 0x60 }
  - { offsetInCU: 0xAFE6, offset: 0xAFE6, size: 0x8, addend: 0x0, symName: __ZNSt3__113__unwrap_iterB7v160006IPjNS_18__unwrap_iter_implIS1_Lb1EEELi0EEEDTclsrT0_8__unwrapclsr3stdE7declvalIT_EEEES5_, symObjAddr: 0x70A0, symBinAddr: 0x10000B6DC, symSize: 0x24 }
  - { offsetInCU: 0xB02A, offset: 0xB02A, size: 0x8, addend: 0x0, symName: __ZNSt3__19make_pairB7v160006IPjS1_EENS_4pairINS_18__unwrap_ref_decayIT_E4typeENS3_IT0_E4typeEEEOS4_OS7_, symObjAddr: 0x70C4, symBinAddr: 0x10000B700, symSize: 0x38 }
  - { offsetInCU: 0xB079, offset: 0xB079, size: 0x8, addend: 0x0, symName: __ZNSt3__114__rewrap_rangeB7v160006IPjS1_EET_S2_T0_, symObjAddr: 0x70FC, symBinAddr: 0x10000B738, symSize: 0x2C }
  - { offsetInCU: 0xB0C5, offset: 0xB0C5, size: 0x8, addend: 0x0, symName: __ZNSt3__113__rewrap_iterB7v160006IPjS1_NS_18__unwrap_iter_implIS1_Lb1EEEEET_S4_T0_, symObjAddr: 0x7128, symBinAddr: 0x10000B764, symSize: 0x3C }
  - { offsetInCU: 0xB11A, offset: 0xB11A, size: 0x8, addend: 0x0, symName: __ZNSt3__128__copy_backward_trivial_implB7v160006IjjEENS_4pairIPT_PT0_EES3_S3_S5_, symObjAddr: 0x7164, symBinAddr: 0x10000B7A0, symSize: 0x94 }
  - { offsetInCU: 0xB182, offset: 0xB182, size: 0x8, addend: 0x0, symName: __ZNSt3__19make_pairB7v160006IRPjS2_EENS_4pairINS_18__unwrap_ref_decayIT_E4typeENS4_IT0_E4typeEEEOS5_OS8_, symObjAddr: 0x71F8, symBinAddr: 0x10000B834, symSize: 0x38 }
  - { offsetInCU: 0xB224, offset: 0xB224, size: 0x8, addend: 0x0, symName: __ZNSt3__16__copyB7v160006INS_17_ClassicAlgPolicyEPKjS3_PjEENS_4pairIT0_T2_EES6_T1_S7_, symObjAddr: 0x7384, symBinAddr: 0x10000B9C0, symSize: 0x44 }
  - { offsetInCU: 0xB290, offset: 0xB290, size: 0x8, addend: 0x0, symName: __ZNSt3__123__dispatch_copy_or_moveB7v160006INS_17_ClassicAlgPolicyENS_11__copy_loopIS1_EENS_14__copy_trivialEPKjS6_PjEENS_4pairIT2_T4_EES9_T3_SA_, symObjAddr: 0x73C8, symBinAddr: 0x10000BA04, symSize: 0x44 }
  - { offsetInCU: 0xB30E, offset: 0xB30E, size: 0x8, addend: 0x0, symName: __ZNSt3__121__unwrap_and_dispatchB7v160006INS_10__overloadINS_11__copy_loopINS_17_ClassicAlgPolicyEEENS_14__copy_trivialEEEPKjS8_PjLi0EEENS_4pairIT0_T2_EESB_T1_SC_, symObjAddr: 0x740C, symBinAddr: 0x10000BA48, symSize: 0xB4 }
  - { offsetInCU: 0xB39C, offset: 0xB39C, size: 0x8, addend: 0x0, symName: __ZNSt3__114__unwrap_rangeB7v160006IPKjS2_EENS_4pairIT0_S4_EET_S6_, symObjAddr: 0x74C0, symBinAddr: 0x10000BAFC, symSize: 0x60 }
  - { offsetInCU: 0xB5A9, offset: 0xB5A9, size: 0x8, addend: 0x0, symName: __ZNSt3__19make_pairB7v160006IPKjPjEENS_4pairINS_18__unwrap_ref_decayIT_E4typeENS5_IT0_E4typeEEEOS6_OS9_, symObjAddr: 0x7568, symBinAddr: 0x10000BBA4, symSize: 0x38 }
  - { offsetInCU: 0xB5F8, offset: 0xB5F8, size: 0x8, addend: 0x0, symName: __ZNSt3__114__rewrap_rangeB7v160006IPKjS2_EET_S3_T0_, symObjAddr: 0x75A0, symBinAddr: 0x10000BBDC, symSize: 0x2C }
  - { offsetInCU: 0xB644, offset: 0xB644, size: 0x8, addend: 0x0, symName: __ZNSt3__19make_pairB7v160006IPKjS2_EENS_4pairINS_18__unwrap_ref_decayIT_E4typeENS4_IT0_E4typeEEEOS5_OS8_, symObjAddr: 0x75CC, symBinAddr: 0x10000BC08, symSize: 0x38 }
  - { offsetInCU: 0xB693, offset: 0xB693, size: 0x8, addend: 0x0, symName: __ZNSt3__113__unwrap_iterB7v160006IPKjNS_18__unwrap_iter_implIS2_Lb1EEELi0EEEDTclsrT0_8__unwrapclsr3stdE7declvalIT_EEEES6_, symObjAddr: 0x7604, symBinAddr: 0x10000BC40, symSize: 0x24 }
  - { offsetInCU: 0xB7FE, offset: 0xB7FE, size: 0x8, addend: 0x0, symName: __ZNSt3__112__to_addressB7v160006IKjEEPT_S3_, symObjAddr: 0x76BC, symBinAddr: 0x10000BCF8, symSize: 0x14 }
  - { offsetInCU: 0xB833, offset: 0xB833, size: 0x8, addend: 0x0, symName: __ZNSt3__119__copy_trivial_implB7v160006IKjjEENS_4pairIPT_PT0_EES4_S4_S6_, symObjAddr: 0x76D0, symBinAddr: 0x10000BD0C, symSize: 0x84 }
  - { offsetInCU: 0xB89B, offset: 0xB89B, size: 0x8, addend: 0x0, symName: __ZNSt3__19make_pairB7v160006IRPKjPjEENS_4pairINS_18__unwrap_ref_decayIT_E4typeENS6_IT0_E4typeEEEOS7_OSA_, symObjAddr: 0x7754, symBinAddr: 0x10000BD90, symSize: 0x38 }
  - { offsetInCU: 0xB8EA, offset: 0xB8EA, size: 0x8, addend: 0x0, symName: __ZNSt3__113__rewrap_iterB7v160006IPKjS2_NS_18__unwrap_iter_implIS2_Lb1EEEEET_S5_T0_, symObjAddr: 0x786C, symBinAddr: 0x10000BEA8, symSize: 0x3C }
  - { offsetInCU: 0xB93F, offset: 0xB93F, size: 0x8, addend: 0x0, symName: __ZNSt3__142__uninitialized_allocator_move_if_noexceptB7v160006INS_9allocatorIjEEPjS3_jvEET1_RT_T0_S7_S4_, symObjAddr: 0x79C4, symBinAddr: 0x10000C000, symSize: 0x38 }
  - { offsetInCU: 0xB9BB, offset: 0xB9BB, size: 0x8, addend: 0x0, symName: __ZNSt3__14moveB7v160006IPjS1_EET0_T_S3_S2_, symObjAddr: 0x79FC, symBinAddr: 0x10000C038, symSize: 0x40 }
  - { offsetInCU: 0xBA15, offset: 0xBA15, size: 0x8, addend: 0x0, symName: __ZNSt3__16__moveB7v160006INS_17_ClassicAlgPolicyEPjS2_S2_EENS_4pairIT0_T2_EES4_T1_S5_, symObjAddr: 0x7A3C, symBinAddr: 0x10000C078, symSize: 0x44 }
  - { offsetInCU: 0xBA81, offset: 0xBA81, size: 0x8, addend: 0x0, symName: __ZNSt3__123__dispatch_copy_or_moveB7v160006INS_17_ClassicAlgPolicyENS_11__move_loopIS1_EENS_14__move_trivialEPjS5_S5_EENS_4pairIT2_T4_EES7_T3_S8_, symObjAddr: 0x7A80, symBinAddr: 0x10000C0BC, symSize: 0x44 }
  - { offsetInCU: 0xBAFF, offset: 0xBAFF, size: 0x8, addend: 0x0, symName: __ZNSt3__121__unwrap_and_dispatchB7v160006INS_10__overloadINS_11__move_loopINS_17_ClassicAlgPolicyEEENS_14__move_trivialEEEPjS7_S7_Li0EEENS_4pairIT0_T2_EES9_T1_SA_, symObjAddr: 0x7AC4, symBinAddr: 0x10000C100, symSize: 0xB4 }
  - { offsetInCU: 0xBC0F, offset: 0xBC0F, size: 0x8, addend: 0x0, symName: __ZNSt3__119__copy_trivial_implB7v160006IjjEENS_4pairIPT_PT0_EES3_S3_S5_, symObjAddr: 0x7BC0, symBinAddr: 0x10000C1FC, symSize: 0x84 }
  - { offsetInCU: 0xBC77, offset: 0xBC77, size: 0x8, addend: 0x0, symName: __ZNSt3__19make_pairB7v160006IRPjS1_EENS_4pairINS_18__unwrap_ref_decayIT_E4typeENS4_IT0_E4typeEEEOS5_OS8_, symObjAddr: 0x7C44, symBinAddr: 0x10000C280, symSize: 0x38 }
  - { offsetInCU: 0xBCC6, offset: 0xBCC6, size: 0x8, addend: 0x0, symName: __ZNSt3__18distanceB7v160006IPjEENS_15iterator_traitsIT_E15difference_typeES3_S3_, symObjAddr: 0x7CEC, symBinAddr: 0x10000C328, symSize: 0x2C }
  - { offsetInCU: 0xBD09, offset: 0xBD09, size: 0x8, addend: 0x0, symName: __ZNSt3__14copyB7v160006IPjS1_EET0_T_S3_S2_, symObjAddr: 0x7DF4, symBinAddr: 0x10000C430, symSize: 0x40 }
  - { offsetInCU: 0xBD63, offset: 0xBD63, size: 0x8, addend: 0x0, symName: __ZNSt3__110__distanceB7v160006IPjEENS_15iterator_traitsIT_E15difference_typeES3_S3_NS_26random_access_iterator_tagE, symObjAddr: 0x7F0C, symBinAddr: 0x10000C548, symSize: 0x28 }
  - { offsetInCU: 0xBDB0, offset: 0xBDB0, size: 0x8, addend: 0x0, symName: __ZNSt3__19__advanceB7v160006IPjEEvRT_NS_15iterator_traitsIS2_E15difference_typeENS_26random_access_iterator_tagE, symObjAddr: 0x7F34, symBinAddr: 0x10000C570, symSize: 0x28 }
  - { offsetInCU: 0xBDF9, offset: 0xBDF9, size: 0x8, addend: 0x0, symName: __ZNSt3__130__uninitialized_allocator_copyB7v160006INS_9allocatorIjEEPjS3_S3_EET2_RT_T0_T1_S4_, symObjAddr: 0x7F5C, symBinAddr: 0x10000C598, symSize: 0xF4 }
  - { offsetInCU: 0xBE97, offset: 0xBE97, size: 0x8, addend: 0x0, symName: __ZNSt3__122__make_exception_guardB7v160006INS_29_AllocatorDestroyRangeReverseINS_9allocatorIjEEPjEEEENS_28__exception_guard_exceptionsIT_EES7_, symObjAddr: 0x8050, symBinAddr: 0x10000C68C, symSize: 0x4C }
  - { offsetInCU: 0xBECD, offset: 0xBECD, size: 0x8, addend: 0x0, symName: __ZNSt3__119__allocator_destroyB7v160006INS_9allocatorIjEENS_16reverse_iteratorIPjEES5_EEvRT_T0_T1_, symObjAddr: 0x82D8, symBinAddr: 0x10000C914, symSize: 0x70 }
  - { offsetInCU: 0xBF30, offset: 0xBF30, size: 0x8, addend: 0x0, symName: __ZNSt3__112__to_addressB7v160006INS_16reverse_iteratorIPjEEvEENS_5decayIDTclsr19__to_address_helperIT_EE6__callclsr3stdE7declvalIRKS5_EEEEE4typeES7_, symObjAddr: 0x8348, symBinAddr: 0x10000C984, symSize: 0x24 }
  - { offsetInCU: 0xBF8F, offset: 0xBF8F, size: 0x8, addend: 0x0, symName: __ZNSt3__16__copyB7v160006INS_17_ClassicAlgPolicyEPjS2_S2_EENS_4pairIT0_T2_EES4_T1_S5_, symObjAddr: 0x83C8, symBinAddr: 0x10000CA04, symSize: 0x44 }
  - { offsetInCU: 0xBFFB, offset: 0xBFFB, size: 0x8, addend: 0x0, symName: __ZNSt3__123__dispatch_copy_or_moveB7v160006INS_17_ClassicAlgPolicyENS_11__copy_loopIS1_EENS_14__copy_trivialEPjS5_S5_EENS_4pairIT2_T4_EES7_T3_S8_, symObjAddr: 0x840C, symBinAddr: 0x10000CA48, symSize: 0x44 }
  - { offsetInCU: 0xC079, offset: 0xC079, size: 0x8, addend: 0x0, symName: __ZNSt3__121__unwrap_and_dispatchB7v160006INS_10__overloadINS_11__copy_loopINS_17_ClassicAlgPolicyEEENS_14__copy_trivialEEEPjS7_S7_Li0EEENS_4pairIT0_T2_EES9_T1_SA_, symObjAddr: 0x8450, symBinAddr: 0x10000CA8C, symSize: 0xB4 }
  - { offsetInCU: 0xC107, offset: 0xC107, size: 0x8, addend: 0x0, symName: __ZNSt3__1miB7v160006IPKfPfEEDTmicldtfp_4baseEcldtfp0_4baseEERKNS_11__wrap_iterIT_EERKNS5_IT0_EE, symObjAddr: 0x88B4, symBinAddr: 0x10000CEF0, symSize: 0x48 }
  - { offsetInCU: 0xC153, offset: 0xC153, size: 0x8, addend: 0x0, symName: __ZNSt3__18distanceB7v160006IPKfEENS_15iterator_traitsIT_E15difference_typeES4_S4_, symObjAddr: 0x892C, symBinAddr: 0x10000CF68, symSize: 0x2C }
  - { offsetInCU: 0xC196, offset: 0xC196, size: 0x8, addend: 0x0, symName: __ZNSt3__14copyB7v160006IPKfPfEET0_T_S5_S4_, symObjAddr: 0x8B60, symBinAddr: 0x10000D19C, symSize: 0x40 }
  - { offsetInCU: 0xC1F0, offset: 0xC1F0, size: 0x8, addend: 0x0, symName: __ZNSt3__110__distanceB7v160006IPKfEENS_15iterator_traitsIT_E15difference_typeES4_S4_NS_26random_access_iterator_tagE, symObjAddr: 0x8DE4, symBinAddr: 0x10000D420, symSize: 0x28 }
  - { offsetInCU: 0xC23D, offset: 0xC23D, size: 0x8, addend: 0x0, symName: __ZNSt3__19__advanceB7v160006IPKfEEvRT_NS_15iterator_traitsIS3_E15difference_typeENS_26random_access_iterator_tagE, symObjAddr: 0x8E0C, symBinAddr: 0x10000D448, symSize: 0x28 }
  - { offsetInCU: 0xC286, offset: 0xC286, size: 0x8, addend: 0x0, symName: __ZNSt3__130__uninitialized_allocator_copyB7v160006INS_9allocatorIfEEffLPv0EEEPT0_RT_PKS4_S9_S5_, symObjAddr: 0x8E34, symBinAddr: 0x10000D470, symSize: 0x38 }
  - { offsetInCU: 0xC2FE, offset: 0xC2FE, size: 0x8, addend: 0x0, symName: __ZNSt3__113move_backwardB7v160006IPfS1_EET0_T_S3_S2_, symObjAddr: 0x8E6C, symBinAddr: 0x10000D4A8, symSize: 0x40 }
  - { offsetInCU: 0xC358, offset: 0xC358, size: 0x8, addend: 0x0, symName: __ZNSt3__115__move_backwardB7v160006INS_17_ClassicAlgPolicyEPfS2_S2_EENS_4pairIT0_T2_EES4_T1_S5_, symObjAddr: 0x8EAC, symBinAddr: 0x10000D4E8, symSize: 0x44 }
  - { offsetInCU: 0xC3C4, offset: 0xC3C4, size: 0x8, addend: 0x0, symName: __ZNSt3__123__dispatch_copy_or_moveB7v160006INS_17_ClassicAlgPolicyENS_20__move_backward_loopIS1_EENS_23__move_backward_trivialEPfS5_S5_EENS_4pairIT2_T4_EES7_T3_S8_, symObjAddr: 0x8EF0, symBinAddr: 0x10000D52C, symSize: 0x44 }
  - { offsetInCU: 0xC442, offset: 0xC442, size: 0x8, addend: 0x0, symName: __ZNSt3__121__unwrap_and_dispatchB7v160006INS_10__overloadINS_20__move_backward_loopINS_17_ClassicAlgPolicyEEENS_23__move_backward_trivialEEEPfS7_S7_Li0EEENS_4pairIT0_T2_EES9_T1_SA_, symObjAddr: 0x8F34, symBinAddr: 0x10000D570, symSize: 0xB4 }
  - { offsetInCU: 0xC4D0, offset: 0xC4D0, size: 0x8, addend: 0x0, symName: __ZNSt3__114__unwrap_rangeB7v160006IPfS1_EENS_4pairIT0_S3_EET_S5_, symObjAddr: 0x8FE8, symBinAddr: 0x10000D624, symSize: 0x60 }
  - { offsetInCU: 0xC64E, offset: 0xC64E, size: 0x8, addend: 0x0, symName: __ZNSt3__113__unwrap_iterB7v160006IPfNS_18__unwrap_iter_implIS1_Lb1EEELi0EEEDTclsrT0_8__unwrapclsr3stdE7declvalIT_EEEES5_, symObjAddr: 0x9090, symBinAddr: 0x10000D6CC, symSize: 0x24 }
  - { offsetInCU: 0xC692, offset: 0xC692, size: 0x8, addend: 0x0, symName: __ZNSt3__19make_pairB7v160006IPfS1_EENS_4pairINS_18__unwrap_ref_decayIT_E4typeENS3_IT0_E4typeEEEOS4_OS7_, symObjAddr: 0x90B4, symBinAddr: 0x10000D6F0, symSize: 0x38 }
  - { offsetInCU: 0xC6E1, offset: 0xC6E1, size: 0x8, addend: 0x0, symName: __ZNSt3__114__rewrap_rangeB7v160006IPfS1_EET_S2_T0_, symObjAddr: 0x90EC, symBinAddr: 0x10000D728, symSize: 0x2C }
  - { offsetInCU: 0xC72D, offset: 0xC72D, size: 0x8, addend: 0x0, symName: __ZNSt3__113__rewrap_iterB7v160006IPfS1_NS_18__unwrap_iter_implIS1_Lb1EEEEET_S4_T0_, symObjAddr: 0x9118, symBinAddr: 0x10000D754, symSize: 0x3C }
  - { offsetInCU: 0xC782, offset: 0xC782, size: 0x8, addend: 0x0, symName: __ZNSt3__128__copy_backward_trivial_implB7v160006IffEENS_4pairIPT_PT0_EES3_S3_S5_, symObjAddr: 0x9154, symBinAddr: 0x10000D790, symSize: 0x94 }
  - { offsetInCU: 0xC7EA, offset: 0xC7EA, size: 0x8, addend: 0x0, symName: __ZNSt3__19make_pairB7v160006IRPfS2_EENS_4pairINS_18__unwrap_ref_decayIT_E4typeENS4_IT0_E4typeEEEOS5_OS8_, symObjAddr: 0x91E8, symBinAddr: 0x10000D824, symSize: 0x38 }
  - { offsetInCU: 0xC88C, offset: 0xC88C, size: 0x8, addend: 0x0, symName: __ZNSt3__16__copyB7v160006INS_17_ClassicAlgPolicyEPKfS3_PfEENS_4pairIT0_T2_EES6_T1_S7_, symObjAddr: 0x9374, symBinAddr: 0x10000D9B0, symSize: 0x44 }
  - { offsetInCU: 0xC8F8, offset: 0xC8F8, size: 0x8, addend: 0x0, symName: __ZNSt3__123__dispatch_copy_or_moveB7v160006INS_17_ClassicAlgPolicyENS_11__copy_loopIS1_EENS_14__copy_trivialEPKfS6_PfEENS_4pairIT2_T4_EES9_T3_SA_, symObjAddr: 0x93B8, symBinAddr: 0x10000D9F4, symSize: 0x44 }
  - { offsetInCU: 0xC976, offset: 0xC976, size: 0x8, addend: 0x0, symName: __ZNSt3__121__unwrap_and_dispatchB7v160006INS_10__overloadINS_11__copy_loopINS_17_ClassicAlgPolicyEEENS_14__copy_trivialEEEPKfS8_PfLi0EEENS_4pairIT0_T2_EESB_T1_SC_, symObjAddr: 0x93FC, symBinAddr: 0x10000DA38, symSize: 0xB4 }
  - { offsetInCU: 0xCA04, offset: 0xCA04, size: 0x8, addend: 0x0, symName: __ZNSt3__114__unwrap_rangeB7v160006IPKfS2_EENS_4pairIT0_S4_EET_S6_, symObjAddr: 0x94B0, symBinAddr: 0x10000DAEC, symSize: 0x60 }
  - { offsetInCU: 0xCB53, offset: 0xCB53, size: 0x8, addend: 0x0, symName: __ZNSt3__19make_pairB7v160006IPKfPfEENS_4pairINS_18__unwrap_ref_decayIT_E4typeENS5_IT0_E4typeEEEOS6_OS9_, symObjAddr: 0x9558, symBinAddr: 0x10000DB94, symSize: 0x38 }
  - { offsetInCU: 0xCBA2, offset: 0xCBA2, size: 0x8, addend: 0x0, symName: __ZNSt3__114__rewrap_rangeB7v160006IPKfS2_EET_S3_T0_, symObjAddr: 0x9590, symBinAddr: 0x10000DBCC, symSize: 0x2C }
  - { offsetInCU: 0xCBEE, offset: 0xCBEE, size: 0x8, addend: 0x0, symName: __ZNSt3__19make_pairB7v160006IPKfS2_EENS_4pairINS_18__unwrap_ref_decayIT_E4typeENS4_IT0_E4typeEEEOS5_OS8_, symObjAddr: 0x95BC, symBinAddr: 0x10000DBF8, symSize: 0x38 }
  - { offsetInCU: 0xCC3D, offset: 0xCC3D, size: 0x8, addend: 0x0, symName: __ZNSt3__113__unwrap_iterB7v160006IPKfNS_18__unwrap_iter_implIS2_Lb1EEELi0EEEDTclsrT0_8__unwrapclsr3stdE7declvalIT_EEEES6_, symObjAddr: 0x95F4, symBinAddr: 0x10000DC30, symSize: 0x24 }
  - { offsetInCU: 0xCDA8, offset: 0xCDA8, size: 0x8, addend: 0x0, symName: __ZNSt3__112__to_addressB7v160006IKfEEPT_S3_, symObjAddr: 0x96AC, symBinAddr: 0x10000DCE8, symSize: 0x14 }
  - { offsetInCU: 0xCDDD, offset: 0xCDDD, size: 0x8, addend: 0x0, symName: __ZNSt3__119__copy_trivial_implB7v160006IKffEENS_4pairIPT_PT0_EES4_S4_S6_, symObjAddr: 0x96C0, symBinAddr: 0x10000DCFC, symSize: 0x84 }
  - { offsetInCU: 0xCE45, offset: 0xCE45, size: 0x8, addend: 0x0, symName: __ZNSt3__19make_pairB7v160006IRPKfPfEENS_4pairINS_18__unwrap_ref_decayIT_E4typeENS6_IT0_E4typeEEEOS7_OSA_, symObjAddr: 0x9744, symBinAddr: 0x10000DD80, symSize: 0x38 }
  - { offsetInCU: 0xCE94, offset: 0xCE94, size: 0x8, addend: 0x0, symName: __ZNSt3__113__rewrap_iterB7v160006IPKfS2_NS_18__unwrap_iter_implIS2_Lb1EEEEET_S5_T0_, symObjAddr: 0x985C, symBinAddr: 0x10000DE98, symSize: 0x3C }
  - { offsetInCU: 0xCEE9, offset: 0xCEE9, size: 0x8, addend: 0x0, symName: __ZNSt3__142__uninitialized_allocator_move_if_noexceptB7v160006INS_9allocatorIfEEPfS3_fvEET1_RT_T0_S7_S4_, symObjAddr: 0x99B4, symBinAddr: 0x10000DFF0, symSize: 0x38 }
  - { offsetInCU: 0xCF65, offset: 0xCF65, size: 0x8, addend: 0x0, symName: __ZNSt3__14moveB7v160006IPfS1_EET0_T_S3_S2_, symObjAddr: 0x99EC, symBinAddr: 0x10000E028, symSize: 0x40 }
  - { offsetInCU: 0xCFBF, offset: 0xCFBF, size: 0x8, addend: 0x0, symName: __ZNSt3__16__moveB7v160006INS_17_ClassicAlgPolicyEPfS2_S2_EENS_4pairIT0_T2_EES4_T1_S5_, symObjAddr: 0x9A2C, symBinAddr: 0x10000E068, symSize: 0x44 }
  - { offsetInCU: 0xD02B, offset: 0xD02B, size: 0x8, addend: 0x0, symName: __ZNSt3__123__dispatch_copy_or_moveB7v160006INS_17_ClassicAlgPolicyENS_11__move_loopIS1_EENS_14__move_trivialEPfS5_S5_EENS_4pairIT2_T4_EES7_T3_S8_, symObjAddr: 0x9A70, symBinAddr: 0x10000E0AC, symSize: 0x44 }
  - { offsetInCU: 0xD0A9, offset: 0xD0A9, size: 0x8, addend: 0x0, symName: __ZNSt3__121__unwrap_and_dispatchB7v160006INS_10__overloadINS_11__move_loopINS_17_ClassicAlgPolicyEEENS_14__move_trivialEEEPfS7_S7_Li0EEENS_4pairIT0_T2_EES9_T1_SA_, symObjAddr: 0x9AB4, symBinAddr: 0x10000E0F0, symSize: 0xB4 }
  - { offsetInCU: 0xD137, offset: 0xD137, size: 0x8, addend: 0x0, symName: __ZNSt3__119__copy_trivial_implB7v160006IffEENS_4pairIPT_PT0_EES3_S3_S5_, symObjAddr: 0x9BB0, symBinAddr: 0x10000E1EC, symSize: 0x84 }
  - { offsetInCU: 0xD19F, offset: 0xD19F, size: 0x8, addend: 0x0, symName: __ZNSt3__19make_pairB7v160006IRPfS1_EENS_4pairINS_18__unwrap_ref_decayIT_E4typeENS4_IT0_E4typeEEEOS5_OS8_, symObjAddr: 0x9C34, symBinAddr: 0x10000E270, symSize: 0x38 }
  - { offsetInCU: 0xD629, offset: 0xD629, size: 0x8, addend: 0x0, symName: __ZSt28__throw_bad_array_new_lengthB7v160006v, symObjAddr: 0x35E0, symBinAddr: 0x100007C1C, symSize: 0x34 }
  - { offsetInCU: 0xDCBA, offset: 0xDCBA, size: 0x8, addend: 0x0, symName: __ZNSt3__16vectorIfNS_9allocatorIfEEE26__swap_out_circular_bufferERNS_14__split_bufferIfRS2_EE, symObjAddr: 0x2EF4, symBinAddr: 0x100007530, symSize: 0x118 }
  - { offsetInCU: 0xDD11, offset: 0xDD11, size: 0x8, addend: 0x0, symName: __ZNSt3__16vectorIjNS_9allocatorIjEEE26__swap_out_circular_bufferERNS_14__split_bufferIjRS2_EE, symObjAddr: 0x46FC, symBinAddr: 0x100008D38, symSize: 0x118 }
  - { offsetInCU: 0xDE73, offset: 0xDE73, size: 0x8, addend: 0x0, symName: __ZNSt3__16vectorIjNS_9allocatorIjEEE26__swap_out_circular_bufferERNS_14__split_bufferIjRS2_EEPj, symObjAddr: 0x6C18, symBinAddr: 0x10000B254, symSize: 0x154 }
  - { offsetInCU: 0xDEFD, offset: 0xDEFD, size: 0x8, addend: 0x0, symName: __ZNSt3__16vectorIfNS_9allocatorIfEEE26__swap_out_circular_bufferERNS_14__split_bufferIfRS2_EEPf, symObjAddr: 0x8C78, symBinAddr: 0x10000D2B4, symSize: 0x154 }
  - { offsetInCU: 0x102D5, offset: 0x102D5, size: 0x8, addend: 0x0, symName: __ZN8GeometryC2Ev, symObjAddr: 0x0, symBinAddr: 0x10000463C, symSize: 0x74 }
  - { offsetInCU: 0x10301, offset: 0x10301, size: 0x8, addend: 0x0, symName: __ZNSt3__16vectorIfNS_9allocatorIfEEEC1B7v160006Ev, symObjAddr: 0x74, symBinAddr: 0x1000046B0, symSize: 0x2C }
  - { offsetInCU: 0x1032B, offset: 0x1032B, size: 0x8, addend: 0x0, symName: __ZNSt3__16vectorIjNS_9allocatorIjEEEC1B7v160006Ev, symObjAddr: 0xA0, symBinAddr: 0x1000046DC, symSize: 0x2C }
  - { offsetInCU: 0x10355, offset: 0x10355, size: 0x8, addend: 0x0, symName: __ZN8GeometryC1Ev, symObjAddr: 0xCC, symBinAddr: 0x100004708, symSize: 0x2C }
  - { offsetInCU: 0x10381, offset: 0x10381, size: 0x8, addend: 0x0, symName: __ZN8GeometryD2Ev, symObjAddr: 0xF8, symBinAddr: 0x100004734, symSize: 0x74 }
  - { offsetInCU: 0x103AD, offset: 0x103AD, size: 0x8, addend: 0x0, symName: __ZNSt3__16vectorIjNS_9allocatorIjEEED1B7v160006Ev, symObjAddr: 0x16C, symBinAddr: 0x1000047A8, symSize: 0x2C }
  - { offsetInCU: 0x103D7, offset: 0x103D7, size: 0x8, addend: 0x0, symName: __ZNSt3__16vectorIfNS_9allocatorIfEEED1B7v160006Ev, symObjAddr: 0x198, symBinAddr: 0x1000047D4, symSize: 0x2C }
  - { offsetInCU: 0x10401, offset: 0x10401, size: 0x8, addend: 0x0, symName: __ZN8GeometryD1Ev, symObjAddr: 0x1C4, symBinAddr: 0x100004800, symSize: 0x2C }
  - { offsetInCU: 0x1042D, offset: 0x1042D, size: 0x8, addend: 0x0, symName: __ZN8Geometry17GetBufferDataSizeEv, symObjAddr: 0x1F0, symBinAddr: 0x10000482C, symSize: 0x24 }
  - { offsetInCU: 0x10455, offset: 0x10455, size: 0x8, addend: 0x0, symName: __ZNKSt3__16vectorIfNS_9allocatorIfEEE4sizeB7v160006Ev, symObjAddr: 0x214, symBinAddr: 0x100004850, symSize: 0x28 }
  - { offsetInCU: 0x1047B, offset: 0x1047B, size: 0x8, addend: 0x0, symName: __ZN8Geometry16GetBufferDataPtrEv, symObjAddr: 0x23C, symBinAddr: 0x100004878, symSize: 0x24 }
  - { offsetInCU: 0x104A3, offset: 0x104A3, size: 0x8, addend: 0x0, symName: __ZNSt3__16vectorIfNS_9allocatorIfEEE4dataB7v160006Ev, symObjAddr: 0x260, symBinAddr: 0x10000489C, symSize: 0x28 }
  - { offsetInCU: 0x104C9, offset: 0x104C9, size: 0x8, addend: 0x0, symName: __ZN8Geometry9AddVertexEfffff, symObjAddr: 0x288, symBinAddr: 0x1000048C4, symSize: 0x184 }
  - { offsetInCU: 0x10537, offset: 0x10537, size: 0x8, addend: 0x0, symName: __ZNSt3__16vectorIfNS_9allocatorIfEEE9push_backB7v160006ERKf, symObjAddr: 0x40C, symBinAddr: 0x100004A48, symSize: 0x6C }
  - { offsetInCU: 0x1056E, offset: 0x1056E, size: 0x8, addend: 0x0, symName: __ZNSt3__16vectorIfNS_9allocatorIfEEE9push_backB7v160006EOf, symObjAddr: 0x478, symBinAddr: 0x100004AB4, symSize: 0x6C }
  - { offsetInCU: 0x105A5, offset: 0x105A5, size: 0x8, addend: 0x0, symName: __ZN8Geometry8AddIndexEj, symObjAddr: 0x4E4, symBinAddr: 0x100004B20, symSize: 0x98 }
  - { offsetInCU: 0x105DB, offset: 0x105DB, size: 0x8, addend: 0x0, symName: __ZNSt3__16vectorIjNS_9allocatorIjEEE9push_backB7v160006ERKj, symObjAddr: 0x57C, symBinAddr: 0x100004BB8, symSize: 0x6C }
  - { offsetInCU: 0x10612, offset: 0x10612, size: 0x8, addend: 0x0, symName: __ZN8Geometry3GenEv, symObjAddr: 0x630, symBinAddr: 0x100004C6C, symSize: 0x37C }
  - { offsetInCU: 0x10664, offset: 0x10664, size: 0x8, addend: 0x0, symName: __ZNSt3__16vectorIfNS_9allocatorIfEEEixB7v160006Em, symObjAddr: 0x9AC, symBinAddr: 0x100004FE8, symSize: 0x24 }
  - { offsetInCU: 0x1069B, offset: 0x1069B, size: 0x8, addend: 0x0, symName: __ZN8Geometry14GetIndicesSizeEv, symObjAddr: 0x9D0, symBinAddr: 0x10000500C, symSize: 0x28 }
  - { offsetInCU: 0x106C3, offset: 0x106C3, size: 0x8, addend: 0x0, symName: __ZNKSt3__16vectorIjNS_9allocatorIjEEE4sizeB7v160006Ev, symObjAddr: 0x9F8, symBinAddr: 0x100005034, symSize: 0x28 }
  - { offsetInCU: 0x106E9, offset: 0x106E9, size: 0x8, addend: 0x0, symName: __ZN8Geometry17GetIndicesDataPtrEv, symObjAddr: 0xA20, symBinAddr: 0x10000505C, symSize: 0x28 }
  - { offsetInCU: 0x10711, offset: 0x10711, size: 0x8, addend: 0x0, symName: __ZNSt3__16vectorIjNS_9allocatorIjEEE4dataB7v160006Ev, symObjAddr: 0xA48, symBinAddr: 0x100005084, symSize: 0x28 }
  - { offsetInCU: 0x10737, offset: 0x10737, size: 0x8, addend: 0x0, symName: __ZN8Geometry14GenerateSphereEfii, symObjAddr: 0xA70, symBinAddr: 0x1000050AC, symSize: 0x4B0 }
  - { offsetInCU: 0x108DA, offset: 0x108DA, size: 0x8, addend: 0x0, symName: __ZNSt3__16vectorIfNS_9allocatorIfEEE5clearB7v160006Ev, symObjAddr: 0xF20, symBinAddr: 0x10000555C, symSize: 0x4C }
  - { offsetInCU: 0x1090F, offset: 0x1090F, size: 0x8, addend: 0x0, symName: __ZNSt3__16vectorIjNS_9allocatorIjEEE5clearB7v160006Ev, symObjAddr: 0xF6C, symBinAddr: 0x1000055A8, symSize: 0x4C }
  - { offsetInCU: 0x10943, offset: 0x10943, size: 0x8, addend: 0x0, symName: __Z4acosB7v160006f, symObjAddr: 0xFB8, symBinAddr: 0x1000055F4, symSize: 0x24 }
  - { offsetInCU: 0x10996, offset: 0x10996, size: 0x8, addend: 0x0, symName: __ZN3glm5tvec3IfLNS_9precisionE0EEC1ERKfS4_S4_, symObjAddr: 0xFDC, symBinAddr: 0x100005618, symSize: 0x44 }
  - { offsetInCU: 0x109EC, offset: 0x109EC, size: 0x8, addend: 0x0, symName: __ZNSt3__16vectorIjNS_9allocatorIjEEE6insertB7v160006ENS_11__wrap_iterIPKjEESt16initializer_listIjE, symObjAddr: 0x1070, symBinAddr: 0x1000056AC, symSize: 0x74 }
  - { offsetInCU: 0x10A30, offset: 0x10A30, size: 0x8, addend: 0x0, symName: __ZNSt3__16vectorIjNS_9allocatorIjEEE3endB7v160006Ev, symObjAddr: 0x10E4, symBinAddr: 0x100005720, symSize: 0x30 }
  - { offsetInCU: 0x10A62, offset: 0x10A62, size: 0x8, addend: 0x0, symName: __ZNSt3__111__wrap_iterIPKjEC1B7v160006IPjEERKNS0_IT_EEPNS_9enable_ifIXsr14is_convertibleIS6_S2_EE5valueEvE4typeE, symObjAddr: 0x1114, symBinAddr: 0x100005750, symSize: 0x3C }
  - { offsetInCU: 0x10AAD, offset: 0x10AAD, size: 0x8, addend: 0x0, symName: __ZN8Geometry12GenerateCubeEf, symObjAddr: 0x1150, symBinAddr: 0x10000578C, symSize: 0x7D8 }
  - { offsetInCU: 0x10BB1, offset: 0x10BB1, size: 0x8, addend: 0x0, symName: __ZNSt3__16vectorIjNS_9allocatorIjEEE6insertIPjLi0EEENS_11__wrap_iterIS5_EENS6_IPKjEET_SB_, symObjAddr: 0x1928, symBinAddr: 0x100005F64, symSize: 0x29C }
  - { offsetInCU: 0x10CC5, offset: 0x10CC5, size: 0x8, addend: 0x0, symName: __ZNSt3__16vectorIfNS_9allocatorIfEEE6insertB7v160006ENS_11__wrap_iterIPKfEESt16initializer_listIfE, symObjAddr: 0x1BF0, symBinAddr: 0x10000622C, symSize: 0x74 }
  - { offsetInCU: 0x10D09, offset: 0x10D09, size: 0x8, addend: 0x0, symName: __ZNSt3__16vectorIfNS_9allocatorIfEEE3endB7v160006Ev, symObjAddr: 0x1C64, symBinAddr: 0x1000062A0, symSize: 0x30 }
  - { offsetInCU: 0x10D36, offset: 0x10D36, size: 0x8, addend: 0x0, symName: __ZNSt3__111__wrap_iterIPKfEC1B7v160006IPfEERKNS0_IT_EEPNS_9enable_ifIXsr14is_convertibleIS6_S2_EE5valueEvE4typeE, symObjAddr: 0x1C94, symBinAddr: 0x1000062D0, symSize: 0x3C }
  - { offsetInCU: 0x10D81, offset: 0x10D81, size: 0x8, addend: 0x0, symName: __ZNSt3__111__wrap_iterIPKjEC2B7v160006IPjEERKNS0_IT_EEPNS_9enable_ifIXsr14is_convertibleIS6_S2_EE5valueEvE4typeE, symObjAddr: 0x1CD0, symBinAddr: 0x10000630C, symSize: 0x40 }
  - { offsetInCU: 0x10DCC, offset: 0x10DCC, size: 0x8, addend: 0x0, symName: __ZNKSt3__111__wrap_iterIPjE4baseB7v160006Ev, symObjAddr: 0x1D10, symBinAddr: 0x10000634C, symSize: 0x18 }
  - { offsetInCU: 0x10DF2, offset: 0x10DF2, size: 0x8, addend: 0x0, symName: __ZNSt3__111__wrap_iterIPKfEC2B7v160006IPfEERKNS0_IT_EEPNS_9enable_ifIXsr14is_convertibleIS6_S2_EE5valueEvE4typeE, symObjAddr: 0x1D28, symBinAddr: 0x100006364, symSize: 0x40 }
  - { offsetInCU: 0x10E3D, offset: 0x10E3D, size: 0x8, addend: 0x0, symName: __ZNKSt3__111__wrap_iterIPfE4baseB7v160006Ev, symObjAddr: 0x1D68, symBinAddr: 0x1000063A4, symSize: 0x18 }
  - { offsetInCU: 0x10E63, offset: 0x10E63, size: 0x8, addend: 0x0, symName: __ZNSt3__16vectorIfNS_9allocatorIfEEEC2B7v160006Ev, symObjAddr: 0x1D80, symBinAddr: 0x1000063BC, symSize: 0x58 }
  - { offsetInCU: 0x10E99, offset: 0x10E99, size: 0x8, addend: 0x0, symName: __ZNSt3__117__compressed_pairIPfNS_9allocatorIfEEEC1B7v160006IDnNS_18__default_init_tagEEEOT_OT0_, symObjAddr: 0x1DD8, symBinAddr: 0x100006414, symSize: 0x3C }
  - { offsetInCU: 0x10EF1, offset: 0x10EF1, size: 0x8, addend: 0x0, symName: __ZNSt3__117__compressed_pairIPfNS_9allocatorIfEEEC2B7v160006IDnNS_18__default_init_tagEEEOT_OT0_, symObjAddr: 0x1E30, symBinAddr: 0x10000646C, symSize: 0x40 }
  - { offsetInCU: 0x10F49, offset: 0x10F49, size: 0x8, addend: 0x0, symName: __ZNSt3__122__compressed_pair_elemIPfLi0ELb0EEC2B7v160006IDnvEEOT_, symObjAddr: 0x1E70, symBinAddr: 0x1000064AC, symSize: 0x1C }
  - { offsetInCU: 0x10F8B, offset: 0x10F8B, size: 0x8, addend: 0x0, symName: __ZNSt3__122__compressed_pair_elemINS_9allocatorIfEELi1ELb1EEC2B7v160006ENS_18__default_init_tagE, symObjAddr: 0x1E8C, symBinAddr: 0x1000064C8, symSize: 0x2C }
  - { offsetInCU: 0x10FBF, offset: 0x10FBF, size: 0x8, addend: 0x0, symName: __ZNSt3__19allocatorIfEC2B7v160006Ev, symObjAddr: 0x1EB8, symBinAddr: 0x1000064F4, symSize: 0x2C }
  - { offsetInCU: 0x10FE9, offset: 0x10FE9, size: 0x8, addend: 0x0, symName: __ZNSt3__116__non_trivial_ifILb1ENS_9allocatorIfEEEC2B7v160006Ev, symObjAddr: 0x1EE4, symBinAddr: 0x100006520, symSize: 0x14 }
  - { offsetInCU: 0x11013, offset: 0x11013, size: 0x8, addend: 0x0, symName: __ZNSt3__16vectorIjNS_9allocatorIjEEEC2B7v160006Ev, symObjAddr: 0x1EF8, symBinAddr: 0x100006534, symSize: 0x58 }
  - { offsetInCU: 0x1103D, offset: 0x1103D, size: 0x8, addend: 0x0, symName: __ZNSt3__117__compressed_pairIPjNS_9allocatorIjEEEC1B7v160006IDnNS_18__default_init_tagEEEOT_OT0_, symObjAddr: 0x1F50, symBinAddr: 0x10000658C, symSize: 0x3C }
  - { offsetInCU: 0x11095, offset: 0x11095, size: 0x8, addend: 0x0, symName: __ZNSt3__117__compressed_pairIPjNS_9allocatorIjEEEC2B7v160006IDnNS_18__default_init_tagEEEOT_OT0_, symObjAddr: 0x1F9C, symBinAddr: 0x1000065D8, symSize: 0x40 }
  - { offsetInCU: 0x110ED, offset: 0x110ED, size: 0x8, addend: 0x0, symName: __ZNSt3__122__compressed_pair_elemIPjLi0ELb0EEC2B7v160006IDnvEEOT_, symObjAddr: 0x1FDC, symBinAddr: 0x100006618, symSize: 0x1C }
  - { offsetInCU: 0x1112F, offset: 0x1112F, size: 0x8, addend: 0x0, symName: __ZNSt3__122__compressed_pair_elemINS_9allocatorIjEELi1ELb1EEC2B7v160006ENS_18__default_init_tagE, symObjAddr: 0x1FF8, symBinAddr: 0x100006634, symSize: 0x2C }
  - { offsetInCU: 0x11163, offset: 0x11163, size: 0x8, addend: 0x0, symName: __ZNSt3__19allocatorIjEC2B7v160006Ev, symObjAddr: 0x2024, symBinAddr: 0x100006660, symSize: 0x2C }
  - { offsetInCU: 0x1118D, offset: 0x1118D, size: 0x8, addend: 0x0, symName: __ZNSt3__116__non_trivial_ifILb1ENS_9allocatorIjEEEC2B7v160006Ev, symObjAddr: 0x2050, symBinAddr: 0x10000668C, symSize: 0x14 }
  - { offsetInCU: 0x111B7, offset: 0x111B7, size: 0x8, addend: 0x0, symName: __ZNSt3__16vectorIfNS_9allocatorIfEEED2B7v160006Ev, symObjAddr: 0x2064, symBinAddr: 0x1000066A0, symSize: 0x44 }
  - { offsetInCU: 0x111E1, offset: 0x111E1, size: 0x8, addend: 0x0, symName: __ZNSt3__16vectorIfNS_9allocatorIfEEE16__destroy_vectorC1ERS3_, symObjAddr: 0x20A8, symBinAddr: 0x1000066E4, symSize: 0x34 }
  - { offsetInCU: 0x1121A, offset: 0x1121A, size: 0x8, addend: 0x0, symName: __ZNSt3__16vectorIfNS_9allocatorIfEEE16__destroy_vectorclB7v160006Ev, symObjAddr: 0x20DC, symBinAddr: 0x100006718, symSize: 0x9C }
  - { offsetInCU: 0x11240, offset: 0x11240, size: 0x8, addend: 0x0, symName: __ZNSt3__16vectorIfNS_9allocatorIfEEE16__destroy_vectorC2ERS3_, symObjAddr: 0x2178, symBinAddr: 0x1000067B4, symSize: 0x20 }
  - { offsetInCU: 0x11279, offset: 0x11279, size: 0x8, addend: 0x0, symName: __ZNKSt3__16vectorIfNS_9allocatorIfEEE17__annotate_deleteB7v160006Ev, symObjAddr: 0x2198, symBinAddr: 0x1000067D4, symSize: 0xB8 }
  - { offsetInCU: 0x1129F, offset: 0x1129F, size: 0x8, addend: 0x0, symName: __ZNSt3__16vectorIfNS_9allocatorIfEEE7__clearB7v160006Ev, symObjAddr: 0x2260, symBinAddr: 0x10000689C, symSize: 0x28 }
  - { offsetInCU: 0x112C5, offset: 0x112C5, size: 0x8, addend: 0x0, symName: __ZNSt3__116allocator_traitsINS_9allocatorIfEEE10deallocateB7v160006ERS2_Pfm, symObjAddr: 0x2288, symBinAddr: 0x1000068C4, symSize: 0x34 }
  - { offsetInCU: 0x11307, offset: 0x11307, size: 0x8, addend: 0x0, symName: __ZNSt3__16vectorIfNS_9allocatorIfEEE7__allocB7v160006Ev, symObjAddr: 0x22BC, symBinAddr: 0x1000068F8, symSize: 0x28 }
  - { offsetInCU: 0x1132D, offset: 0x1132D, size: 0x8, addend: 0x0, symName: __ZNKSt3__16vectorIfNS_9allocatorIfEEE8capacityB7v160006Ev, symObjAddr: 0x22E4, symBinAddr: 0x100006920, symSize: 0x40 }
  - { offsetInCU: 0x11353, offset: 0x11353, size: 0x8, addend: 0x0, symName: __ZNKSt3__16vectorIfNS_9allocatorIfEEE31__annotate_contiguous_containerB7v160006EPKvS5_S5_S5_, symObjAddr: 0x2324, symBinAddr: 0x100006960, symSize: 0x20 }
  - { offsetInCU: 0x113A5, offset: 0x113A5, size: 0x8, addend: 0x0, symName: __ZNKSt3__16vectorIfNS_9allocatorIfEEE4dataB7v160006Ev, symObjAddr: 0x2344, symBinAddr: 0x100006980, symSize: 0x28 }
  - { offsetInCU: 0x113CB, offset: 0x113CB, size: 0x8, addend: 0x0, symName: __ZNSt3__16vectorIfNS_9allocatorIfEEE22__base_destruct_at_endB7v160006EPf, symObjAddr: 0x2380, symBinAddr: 0x1000069BC, symSize: 0x8C }
  - { offsetInCU: 0x1140F, offset: 0x1140F, size: 0x8, addend: 0x0, symName: __ZNSt3__116allocator_traitsINS_9allocatorIfEEE7destroyB7v160006IfvEEvRS2_PT_, symObjAddr: 0x240C, symBinAddr: 0x100006A48, symSize: 0x2C }
  - { offsetInCU: 0x1144C, offset: 0x1144C, size: 0x8, addend: 0x0, symName: __ZNSt3__19allocatorIfE7destroyB7v160006EPf, symObjAddr: 0x2438, symBinAddr: 0x100006A74, symSize: 0x14 }
  - { offsetInCU: 0x11480, offset: 0x11480, size: 0x8, addend: 0x0, symName: __ZNSt3__19allocatorIfE10deallocateB7v160006EPfm, symObjAddr: 0x244C, symBinAddr: 0x100006A88, symSize: 0x40 }
  - { offsetInCU: 0x114C2, offset: 0x114C2, size: 0x8, addend: 0x0, symName: __ZNSt3__117__compressed_pairIPfNS_9allocatorIfEEE6secondB7v160006Ev, symObjAddr: 0x25B4, symBinAddr: 0x100006BF0, symSize: 0x24 }
  - { offsetInCU: 0x114E8, offset: 0x114E8, size: 0x8, addend: 0x0, symName: __ZNSt3__122__compressed_pair_elemINS_9allocatorIfEELi1ELb1EE5__getB7v160006Ev, symObjAddr: 0x25D8, symBinAddr: 0x100006C14, symSize: 0x14 }
  - { offsetInCU: 0x1150E, offset: 0x1150E, size: 0x8, addend: 0x0, symName: __ZNKSt3__16vectorIfNS_9allocatorIfEEE9__end_capB7v160006Ev, symObjAddr: 0x25EC, symBinAddr: 0x100006C28, symSize: 0x28 }
  - { offsetInCU: 0x11534, offset: 0x11534, size: 0x8, addend: 0x0, symName: __ZNKSt3__117__compressed_pairIPfNS_9allocatorIfEEE5firstB7v160006Ev, symObjAddr: 0x2614, symBinAddr: 0x100006C50, symSize: 0x24 }
  - { offsetInCU: 0x1155A, offset: 0x1155A, size: 0x8, addend: 0x0, symName: __ZNKSt3__122__compressed_pair_elemIPfLi0ELb0EE5__getB7v160006Ev, symObjAddr: 0x2638, symBinAddr: 0x100006C74, symSize: 0x14 }
  - { offsetInCU: 0x11580, offset: 0x11580, size: 0x8, addend: 0x0, symName: __ZNSt3__16vectorIjNS_9allocatorIjEEED2B7v160006Ev, symObjAddr: 0x264C, symBinAddr: 0x100006C88, symSize: 0x44 }
  - { offsetInCU: 0x115AA, offset: 0x115AA, size: 0x8, addend: 0x0, symName: __ZNSt3__16vectorIjNS_9allocatorIjEEE16__destroy_vectorC1ERS3_, symObjAddr: 0x2690, symBinAddr: 0x100006CCC, symSize: 0x34 }
  - { offsetInCU: 0x115E3, offset: 0x115E3, size: 0x8, addend: 0x0, symName: __ZNSt3__16vectorIjNS_9allocatorIjEEE16__destroy_vectorclB7v160006Ev, symObjAddr: 0x26C4, symBinAddr: 0x100006D00, symSize: 0x9C }
  - { offsetInCU: 0x11609, offset: 0x11609, size: 0x8, addend: 0x0, symName: __ZNSt3__16vectorIjNS_9allocatorIjEEE16__destroy_vectorC2ERS3_, symObjAddr: 0x2760, symBinAddr: 0x100006D9C, symSize: 0x20 }
  - { offsetInCU: 0x11642, offset: 0x11642, size: 0x8, addend: 0x0, symName: __ZNKSt3__16vectorIjNS_9allocatorIjEEE17__annotate_deleteB7v160006Ev, symObjAddr: 0x2780, symBinAddr: 0x100006DBC, symSize: 0xB8 }
  - { offsetInCU: 0x11668, offset: 0x11668, size: 0x8, addend: 0x0, symName: __ZNSt3__16vectorIjNS_9allocatorIjEEE7__clearB7v160006Ev, symObjAddr: 0x2848, symBinAddr: 0x100006E84, symSize: 0x28 }
  - { offsetInCU: 0x1168E, offset: 0x1168E, size: 0x8, addend: 0x0, symName: __ZNSt3__116allocator_traitsINS_9allocatorIjEEE10deallocateB7v160006ERS2_Pjm, symObjAddr: 0x2870, symBinAddr: 0x100006EAC, symSize: 0x34 }
  - { offsetInCU: 0x116D0, offset: 0x116D0, size: 0x8, addend: 0x0, symName: __ZNSt3__16vectorIjNS_9allocatorIjEEE7__allocB7v160006Ev, symObjAddr: 0x28A4, symBinAddr: 0x100006EE0, symSize: 0x28 }
  - { offsetInCU: 0x116F6, offset: 0x116F6, size: 0x8, addend: 0x0, symName: __ZNKSt3__16vectorIjNS_9allocatorIjEEE8capacityB7v160006Ev, symObjAddr: 0x28CC, symBinAddr: 0x100006F08, symSize: 0x40 }
  - { offsetInCU: 0x1171C, offset: 0x1171C, size: 0x8, addend: 0x0, symName: __ZNKSt3__16vectorIjNS_9allocatorIjEEE31__annotate_contiguous_containerB7v160006EPKvS5_S5_S5_, symObjAddr: 0x290C, symBinAddr: 0x100006F48, symSize: 0x20 }
  - { offsetInCU: 0x1176E, offset: 0x1176E, size: 0x8, addend: 0x0, symName: __ZNKSt3__16vectorIjNS_9allocatorIjEEE4dataB7v160006Ev, symObjAddr: 0x292C, symBinAddr: 0x100006F68, symSize: 0x28 }
  - { offsetInCU: 0x11794, offset: 0x11794, size: 0x8, addend: 0x0, symName: __ZNSt3__16vectorIjNS_9allocatorIjEEE22__base_destruct_at_endB7v160006EPj, symObjAddr: 0x2968, symBinAddr: 0x100006FA4, symSize: 0x8C }
  - { offsetInCU: 0x117D8, offset: 0x117D8, size: 0x8, addend: 0x0, symName: __ZNSt3__116allocator_traitsINS_9allocatorIjEEE7destroyB7v160006IjvEEvRS2_PT_, symObjAddr: 0x29F4, symBinAddr: 0x100007030, symSize: 0x2C }
  - { offsetInCU: 0x11815, offset: 0x11815, size: 0x8, addend: 0x0, symName: __ZNSt3__19allocatorIjE7destroyB7v160006EPj, symObjAddr: 0x2A20, symBinAddr: 0x10000705C, symSize: 0x14 }
  - { offsetInCU: 0x11849, offset: 0x11849, size: 0x8, addend: 0x0, symName: __ZNSt3__19allocatorIjE10deallocateB7v160006EPjm, symObjAddr: 0x2A34, symBinAddr: 0x100007070, symSize: 0x40 }
  - { offsetInCU: 0x1188B, offset: 0x1188B, size: 0x8, addend: 0x0, symName: __ZNSt3__117__compressed_pairIPjNS_9allocatorIjEEE6secondB7v160006Ev, symObjAddr: 0x2A74, symBinAddr: 0x1000070B0, symSize: 0x24 }
  - { offsetInCU: 0x118B1, offset: 0x118B1, size: 0x8, addend: 0x0, symName: __ZNSt3__122__compressed_pair_elemINS_9allocatorIjEELi1ELb1EE5__getB7v160006Ev, symObjAddr: 0x2A98, symBinAddr: 0x1000070D4, symSize: 0x14 }
  - { offsetInCU: 0x118D7, offset: 0x118D7, size: 0x8, addend: 0x0, symName: __ZNKSt3__16vectorIjNS_9allocatorIjEEE9__end_capB7v160006Ev, symObjAddr: 0x2AAC, symBinAddr: 0x1000070E8, symSize: 0x28 }
  - { offsetInCU: 0x118FD, offset: 0x118FD, size: 0x8, addend: 0x0, symName: __ZNKSt3__117__compressed_pairIPjNS_9allocatorIjEEE5firstB7v160006Ev, symObjAddr: 0x2AD4, symBinAddr: 0x100007110, symSize: 0x24 }
  - { offsetInCU: 0x11923, offset: 0x11923, size: 0x8, addend: 0x0, symName: __ZNKSt3__122__compressed_pair_elemIPjLi0ELb0EE5__getB7v160006Ev, symObjAddr: 0x2AF8, symBinAddr: 0x100007134, symSize: 0x14 }
  - { offsetInCU: 0x11949, offset: 0x11949, size: 0x8, addend: 0x0, symName: __ZNSt3__16vectorIfNS_9allocatorIfEEE9__end_capB7v160006Ev, symObjAddr: 0x2B0C, symBinAddr: 0x100007148, symSize: 0x28 }
  - { offsetInCU: 0x1196F, offset: 0x1196F, size: 0x8, addend: 0x0, symName: __ZNSt3__16vectorIfNS_9allocatorIfEEE22__construct_one_at_endB7v160006IJRKfEEEvDpOT_, symObjAddr: 0x2B34, symBinAddr: 0x100007170, symSize: 0x90 }
  - { offsetInCU: 0x119BE, offset: 0x119BE, size: 0x8, addend: 0x0, symName: __ZNSt3__16vectorIfNS_9allocatorIfEEE21__push_back_slow_pathIRKfEEvOT_, symObjAddr: 0x2BC4, symBinAddr: 0x100007200, symSize: 0xD8 }
  - { offsetInCU: 0x11A1C, offset: 0x11A1C, size: 0x8, addend: 0x0, symName: __ZNSt3__117__compressed_pairIPfNS_9allocatorIfEEE5firstB7v160006Ev, symObjAddr: 0x2C9C, symBinAddr: 0x1000072D8, symSize: 0x24 }
  - { offsetInCU: 0x11A42, offset: 0x11A42, size: 0x8, addend: 0x0, symName: __ZNSt3__122__compressed_pair_elemIPfLi0ELb0EE5__getB7v160006Ev, symObjAddr: 0x2CC0, symBinAddr: 0x1000072FC, symSize: 0x14 }
  - { offsetInCU: 0x11A81, offset: 0x11A81, size: 0x8, addend: 0x0, symName: __ZNSt3__16vectorIfNS_9allocatorIfEEE21_ConstructTransactionC1B7v160006ERS3_m, symObjAddr: 0x2CD4, symBinAddr: 0x100007310, symSize: 0x3C }
  - { offsetInCU: 0x11AC9, offset: 0x11AC9, size: 0x8, addend: 0x0, symName: __ZNSt3__116allocator_traitsINS_9allocatorIfEEE9constructB7v160006IfJRKfEvEEvRS2_PT_DpOT0_, symObjAddr: 0x2D10, symBinAddr: 0x10000734C, symSize: 0x34 }
  - { offsetInCU: 0x11B20, offset: 0x11B20, size: 0x8, addend: 0x0, symName: __ZNSt3__16vectorIfNS_9allocatorIfEEE21_ConstructTransactionD1B7v160006Ev, symObjAddr: 0x2D44, symBinAddr: 0x100007380, symSize: 0x2C }
  - { offsetInCU: 0x11B4A, offset: 0x11B4A, size: 0x8, addend: 0x0, symName: __ZNSt3__16vectorIfNS_9allocatorIfEEE21_ConstructTransactionC2B7v160006ERS3_m, symObjAddr: 0x2D70, symBinAddr: 0x1000073AC, symSize: 0x44 }
  - { offsetInCU: 0x11B92, offset: 0x11B92, size: 0x8, addend: 0x0, symName: __ZNSt3__19allocatorIfE9constructB7v160006IfJRKfEEEvPT_DpOT0_, symObjAddr: 0x2DB4, symBinAddr: 0x1000073F0, symSize: 0x28 }
  - { offsetInCU: 0x11BE8, offset: 0x11BE8, size: 0x8, addend: 0x0, symName: __ZNSt3__16vectorIfNS_9allocatorIfEEE21_ConstructTransactionD2B7v160006Ev, symObjAddr: 0x2DDC, symBinAddr: 0x100007418, symSize: 0x20 }
  - { offsetInCU: 0x11C12, offset: 0x11C12, size: 0x8, addend: 0x0, symName: __ZNKSt3__16vectorIfNS_9allocatorIfEEE11__recommendB7v160006Em, symObjAddr: 0x2DFC, symBinAddr: 0x100007438, symSize: 0xB4 }
  - { offsetInCU: 0x11C67, offset: 0x11C67, size: 0x8, addend: 0x0, symName: __ZNSt3__114__split_bufferIfRNS_9allocatorIfEEEC1EmmS3_, symObjAddr: 0x2EB0, symBinAddr: 0x1000074EC, symSize: 0x44 }
  - { offsetInCU: 0x11CBD, offset: 0x11CBD, size: 0x8, addend: 0x0, symName: __ZNSt3__114__split_bufferIfRNS_9allocatorIfEEED1Ev, symObjAddr: 0x300C, symBinAddr: 0x100007648, symSize: 0x2C }
  - { offsetInCU: 0x11CE9, offset: 0x11CE9, size: 0x8, addend: 0x0, symName: __ZNKSt3__16vectorIfNS_9allocatorIfEEE8max_sizeEv, symObjAddr: 0x3038, symBinAddr: 0x100007674, symSize: 0x60 }
  - { offsetInCU: 0x11D11, offset: 0x11D11, size: 0x8, addend: 0x0, symName: __ZNKSt3__16vectorIfNS_9allocatorIfEEE20__throw_length_errorB7v160006Ev, symObjAddr: 0x3098, symBinAddr: 0x1000076D4, symSize: 0x1C }
  - { offsetInCU: 0x11D41, offset: 0x11D41, size: 0x8, addend: 0x0, symName: __ZNSt3__116allocator_traitsINS_9allocatorIfEEE8max_sizeB7v160006IS2_vEEmRKS2_, symObjAddr: 0x310C, symBinAddr: 0x100007748, symSize: 0x24 }
  - { offsetInCU: 0x11D6F, offset: 0x11D6F, size: 0x8, addend: 0x0, symName: __ZNKSt3__16vectorIfNS_9allocatorIfEEE7__allocB7v160006Ev, symObjAddr: 0x3130, symBinAddr: 0x10000776C, symSize: 0x28 }
  - { offsetInCU: 0x11D95, offset: 0x11D95, size: 0x8, addend: 0x0, symName: __ZNSt3__114numeric_limitsIlE3maxB7v160006Ev, symObjAddr: 0x3158, symBinAddr: 0x100007794, symSize: 0x14 }
  - { offsetInCU: 0x11DBD, offset: 0x11DBD, size: 0x8, addend: 0x0, symName: __ZNKSt3__16__lessImmEclB7v160006ERKmS3_, symObjAddr: 0x31C0, symBinAddr: 0x1000077FC, symSize: 0x34 }
  - { offsetInCU: 0x11DFF, offset: 0x11DFF, size: 0x8, addend: 0x0, symName: __ZNKSt3__19allocatorIfE8max_sizeB7v160006Ev, symObjAddr: 0x31F4, symBinAddr: 0x100007830, symSize: 0x14 }
  - { offsetInCU: 0x11E25, offset: 0x11E25, size: 0x8, addend: 0x0, symName: __ZNKSt3__117__compressed_pairIPfNS_9allocatorIfEEE6secondB7v160006Ev, symObjAddr: 0x3208, symBinAddr: 0x100007844, symSize: 0x24 }
  - { offsetInCU: 0x11E4B, offset: 0x11E4B, size: 0x8, addend: 0x0, symName: __ZNKSt3__122__compressed_pair_elemINS_9allocatorIfEELi1ELb1EE5__getB7v160006Ev, symObjAddr: 0x322C, symBinAddr: 0x100007868, symSize: 0x14 }
  - { offsetInCU: 0x11E71, offset: 0x11E71, size: 0x8, addend: 0x0, symName: __ZNSt3__123__libcpp_numeric_limitsIlLb1EE3maxB7v160006Ev, symObjAddr: 0x3240, symBinAddr: 0x10000787C, symSize: 0x8 }
  - { offsetInCU: 0x11E85, offset: 0x11E85, size: 0x8, addend: 0x0, symName: __ZNSt12length_errorC1B7v160006EPKc, symObjAddr: 0x32AC, symBinAddr: 0x1000078E8, symSize: 0x34 }
  - { offsetInCU: 0x11EBD, offset: 0x11EBD, size: 0x8, addend: 0x0, symName: __ZNSt12length_errorC2B7v160006EPKc, symObjAddr: 0x32E0, symBinAddr: 0x10000791C, symSize: 0x4C }
  - { offsetInCU: 0x11EF5, offset: 0x11EF5, size: 0x8, addend: 0x0, symName: __ZNSt3__114__split_bufferIfRNS_9allocatorIfEEEC2EmmS3_, symObjAddr: 0x3380, symBinAddr: 0x1000079BC, symSize: 0xD4 }
  - { offsetInCU: 0x11F68, offset: 0x11F68, size: 0x8, addend: 0x0, symName: __ZNSt3__117__compressed_pairIPfRNS_9allocatorIfEEEC1B7v160006IDnS4_EEOT_OT0_, symObjAddr: 0x3454, symBinAddr: 0x100007A90, symSize: 0x3C }
  - { offsetInCU: 0x11FC0, offset: 0x11FC0, size: 0x8, addend: 0x0, symName: __ZNSt3__114__split_bufferIfRNS_9allocatorIfEEE7__allocB7v160006Ev, symObjAddr: 0x34D0, symBinAddr: 0x100007B0C, symSize: 0x28 }
  - { offsetInCU: 0x11FE6, offset: 0x11FE6, size: 0x8, addend: 0x0, symName: __ZNSt3__114__split_bufferIfRNS_9allocatorIfEEE9__end_capB7v160006Ev, symObjAddr: 0x34F8, symBinAddr: 0x100007B34, symSize: 0x28 }
  - { offsetInCU: 0x1200C, offset: 0x1200C, size: 0x8, addend: 0x0, symName: __ZNSt3__117__compressed_pairIPfRNS_9allocatorIfEEEC2B7v160006IDnS4_EEOT_OT0_, symObjAddr: 0x3520, symBinAddr: 0x100007B5C, symSize: 0x48 }
  - { offsetInCU: 0x12064, offset: 0x12064, size: 0x8, addend: 0x0, symName: __ZNSt3__122__compressed_pair_elemIRNS_9allocatorIfEELi1ELb0EEC2B7v160006IS3_vEEOT_, symObjAddr: 0x3568, symBinAddr: 0x100007BA4, symSize: 0x20 }
  - { offsetInCU: 0x120A6, offset: 0x120A6, size: 0x8, addend: 0x0, symName: __ZNSt3__19allocatorIfE8allocateB7v160006Em, symObjAddr: 0x3588, symBinAddr: 0x100007BC4, symSize: 0x58 }
  - { offsetInCU: 0x120DA, offset: 0x120DA, size: 0x8, addend: 0x0, symName: __ZNSt3__117__compressed_pairIPfRNS_9allocatorIfEEE6secondB7v160006Ev, symObjAddr: 0x36C4, symBinAddr: 0x100007D00, symSize: 0x28 }
  - { offsetInCU: 0x12100, offset: 0x12100, size: 0x8, addend: 0x0, symName: __ZNSt3__122__compressed_pair_elemIRNS_9allocatorIfEELi1ELb0EE5__getB7v160006Ev, symObjAddr: 0x36EC, symBinAddr: 0x100007D28, symSize: 0x18 }
  - { offsetInCU: 0x12126, offset: 0x12126, size: 0x8, addend: 0x0, symName: __ZNSt3__117__compressed_pairIPfRNS_9allocatorIfEEE5firstB7v160006Ev, symObjAddr: 0x3704, symBinAddr: 0x100007D40, symSize: 0x24 }
  - { offsetInCU: 0x1214C, offset: 0x1214C, size: 0x8, addend: 0x0, symName: __ZNSt3__116reverse_iteratorIPfEC1B7v160006ES1_, symObjAddr: 0x37A0, symBinAddr: 0x100007DDC, symSize: 0x34 }
  - { offsetInCU: 0x12184, offset: 0x12184, size: 0x8, addend: 0x0, symName: __ZNKSt3__116reverse_iteratorIPfE4baseB7v160006Ev, symObjAddr: 0x37D4, symBinAddr: 0x100007E10, symSize: 0x18 }
  - { offsetInCU: 0x121AA, offset: 0x121AA, size: 0x8, addend: 0x0, symName: __ZNKSt3__16vectorIfNS_9allocatorIfEEE14__annotate_newB7v160006Em, symObjAddr: 0x3828, symBinAddr: 0x100007E64, symSize: 0xAC }
  - { offsetInCU: 0x12203, offset: 0x12203, size: 0x8, addend: 0x0, symName: __ZNKSt3__111__move_loopINS_17_ClassicAlgPolicyEEclB7v160006INS_16reverse_iteratorIPfEES6_S6_EENS_4pairIT_T1_EES8_T0_S9_, symObjAddr: 0x3BD4, symBinAddr: 0x100008210, symSize: 0xA0 }
  - { offsetInCU: 0x12274, offset: 0x12274, size: 0x8, addend: 0x0, symName: __ZNSt3__18_IterOpsINS_17_ClassicAlgPolicyEE11__iter_moveB7v160006IRNS_16reverse_iteratorIPfEEEENS_9enable_ifIXsr12is_referenceIDTdeclsr3stdE7declvalIRT_EEEEE5valueEDTclsr3stdE4movedeclsr3stdE7declvalISA_EEEEE4typeEOS9_, symObjAddr: 0x3E08, symBinAddr: 0x100008444, symSize: 0x28 }
  - { offsetInCU: 0x122A0, offset: 0x122A0, size: 0x8, addend: 0x0, symName: __ZNKSt3__116reverse_iteratorIPfEdeB7v160006Ev, symObjAddr: 0x3E30, symBinAddr: 0x10000846C, symSize: 0x28 }
  - { offsetInCU: 0x122D4, offset: 0x122D4, size: 0x8, addend: 0x0, symName: __ZNSt3__116reverse_iteratorIPfEppB7v160006Ev, symObjAddr: 0x3E58, symBinAddr: 0x100008494, symSize: 0x20 }
  - { offsetInCU: 0x122FA, offset: 0x122FA, size: 0x8, addend: 0x0, symName: __ZNSt3__18_IterOpsINS_17_ClassicAlgPolicyEE25__validate_iter_referenceB7v160006IRNS_16reverse_iteratorIPfEEEEvv, symObjAddr: 0x3E78, symBinAddr: 0x1000084B4, symSize: 0x4 }
  - { offsetInCU: 0x12318, offset: 0x12318, size: 0x8, addend: 0x0, symName: __ZNSt3__118__unwrap_iter_implINS_16reverse_iteratorIPfEELb0EE8__unwrapB7v160006ES3_, symObjAddr: 0x3E7C, symBinAddr: 0x1000084B8, symSize: 0x24 }
  - { offsetInCU: 0x12341, offset: 0x12341, size: 0x8, addend: 0x0, symName: __ZNSt3__14pairINS_16reverse_iteratorIPfEES3_EC1B7v160006IS3_S3_LPv0EEEOT_OT0_, symObjAddr: 0x3EA0, symBinAddr: 0x1000084DC, symSize: 0x3C }
  - { offsetInCU: 0x1239F, offset: 0x1239F, size: 0x8, addend: 0x0, symName: __ZNSt3__14pairINS_16reverse_iteratorIPfEES3_EC2B7v160006IS3_S3_LPv0EEEOT_OT0_, symObjAddr: 0x3EDC, symBinAddr: 0x100008518, symSize: 0x34 }
  - { offsetInCU: 0x123FD, offset: 0x123FD, size: 0x8, addend: 0x0, symName: __ZNSt3__118__unwrap_iter_implINS_16reverse_iteratorIPfEELb0EE8__rewrapB7v160006ES3_S3_, symObjAddr: 0x3F10, symBinAddr: 0x10000854C, symSize: 0x2C }
  - { offsetInCU: 0x1242A, offset: 0x1242A, size: 0x8, addend: 0x0, symName: __ZNSt3__116reverse_iteratorIPfEC2B7v160006ES1_, symObjAddr: 0x3F3C, symBinAddr: 0x100008578, symSize: 0x28 }
  - { offsetInCU: 0x12462, offset: 0x12462, size: 0x8, addend: 0x0, symName: __ZNSt3__114__split_bufferIfRNS_9allocatorIfEEED2Ev, symObjAddr: 0x3F64, symBinAddr: 0x1000085A0, symSize: 0x8C }
  - { offsetInCU: 0x1248E, offset: 0x1248E, size: 0x8, addend: 0x0, symName: __ZNSt3__114__split_bufferIfRNS_9allocatorIfEEE5clearB7v160006Ev, symObjAddr: 0x3FF0, symBinAddr: 0x10000862C, symSize: 0x28 }
  - { offsetInCU: 0x124B4, offset: 0x124B4, size: 0x8, addend: 0x0, symName: __ZNKSt3__114__split_bufferIfRNS_9allocatorIfEEE8capacityB7v160006Ev, symObjAddr: 0x4018, symBinAddr: 0x100008654, symSize: 0x40 }
  - { offsetInCU: 0x124DA, offset: 0x124DA, size: 0x8, addend: 0x0, symName: __ZNSt3__114__split_bufferIfRNS_9allocatorIfEEE17__destruct_at_endB7v160006EPf, symObjAddr: 0x4058, symBinAddr: 0x100008694, symSize: 0x2C }
  - { offsetInCU: 0x1250E, offset: 0x1250E, size: 0x8, addend: 0x0, symName: __ZNSt3__114__split_bufferIfRNS_9allocatorIfEEE17__destruct_at_endB7v160006EPfNS_17integral_constantIbLb0EEE, symObjAddr: 0x4084, symBinAddr: 0x1000086C0, symSize: 0x80 }
  - { offsetInCU: 0x1254E, offset: 0x1254E, size: 0x8, addend: 0x0, symName: __ZNKSt3__114__split_bufferIfRNS_9allocatorIfEEE9__end_capB7v160006Ev, symObjAddr: 0x4104, symBinAddr: 0x100008740, symSize: 0x28 }
  - { offsetInCU: 0x12574, offset: 0x12574, size: 0x8, addend: 0x0, symName: __ZNKSt3__117__compressed_pairIPfRNS_9allocatorIfEEE5firstB7v160006Ev, symObjAddr: 0x412C, symBinAddr: 0x100008768, symSize: 0x24 }
  - { offsetInCU: 0x1259A, offset: 0x1259A, size: 0x8, addend: 0x0, symName: __ZNSt3__16vectorIfNS_9allocatorIfEEE22__construct_one_at_endB7v160006IJfEEEvDpOT_, symObjAddr: 0x4150, symBinAddr: 0x10000878C, symSize: 0x90 }
  - { offsetInCU: 0x125E9, offset: 0x125E9, size: 0x8, addend: 0x0, symName: __ZNSt3__16vectorIfNS_9allocatorIfEEE21__push_back_slow_pathIfEEvOT_, symObjAddr: 0x41E0, symBinAddr: 0x10000881C, symSize: 0xD8 }
  - { offsetInCU: 0x12647, offset: 0x12647, size: 0x8, addend: 0x0, symName: __ZNSt3__116allocator_traitsINS_9allocatorIfEEE9constructB7v160006IfJfEvEEvRS2_PT_DpOT0_, symObjAddr: 0x42B8, symBinAddr: 0x1000088F4, symSize: 0x34 }
  - { offsetInCU: 0x1269E, offset: 0x1269E, size: 0x8, addend: 0x0, symName: __ZNSt3__19allocatorIfE9constructB7v160006IfJfEEEvPT_DpOT0_, symObjAddr: 0x42EC, symBinAddr: 0x100008928, symSize: 0x28 }
  - { offsetInCU: 0x126F4, offset: 0x126F4, size: 0x8, addend: 0x0, symName: __ZNSt3__16vectorIjNS_9allocatorIjEEE9__end_capB7v160006Ev, symObjAddr: 0x4314, symBinAddr: 0x100008950, symSize: 0x28 }
  - { offsetInCU: 0x1271A, offset: 0x1271A, size: 0x8, addend: 0x0, symName: __ZNSt3__16vectorIjNS_9allocatorIjEEE22__construct_one_at_endB7v160006IJRKjEEEvDpOT_, symObjAddr: 0x433C, symBinAddr: 0x100008978, symSize: 0x90 }
  - { offsetInCU: 0x12769, offset: 0x12769, size: 0x8, addend: 0x0, symName: __ZNSt3__16vectorIjNS_9allocatorIjEEE21__push_back_slow_pathIRKjEEvOT_, symObjAddr: 0x43CC, symBinAddr: 0x100008A08, symSize: 0xD8 }
  - { offsetInCU: 0x127C7, offset: 0x127C7, size: 0x8, addend: 0x0, symName: __ZNSt3__117__compressed_pairIPjNS_9allocatorIjEEE5firstB7v160006Ev, symObjAddr: 0x44A4, symBinAddr: 0x100008AE0, symSize: 0x24 }
  - { offsetInCU: 0x127ED, offset: 0x127ED, size: 0x8, addend: 0x0, symName: __ZNSt3__122__compressed_pair_elemIPjLi0ELb0EE5__getB7v160006Ev, symObjAddr: 0x44C8, symBinAddr: 0x100008B04, symSize: 0x14 }
  - { offsetInCU: 0x1282C, offset: 0x1282C, size: 0x8, addend: 0x0, symName: __ZNSt3__16vectorIjNS_9allocatorIjEEE21_ConstructTransactionC1B7v160006ERS3_m, symObjAddr: 0x44DC, symBinAddr: 0x100008B18, symSize: 0x3C }
  - { offsetInCU: 0x12874, offset: 0x12874, size: 0x8, addend: 0x0, symName: __ZNSt3__116allocator_traitsINS_9allocatorIjEEE9constructB7v160006IjJRKjEvEEvRS2_PT_DpOT0_, symObjAddr: 0x4518, symBinAddr: 0x100008B54, symSize: 0x34 }
  - { offsetInCU: 0x128CB, offset: 0x128CB, size: 0x8, addend: 0x0, symName: __ZNSt3__16vectorIjNS_9allocatorIjEEE21_ConstructTransactionD1B7v160006Ev, symObjAddr: 0x454C, symBinAddr: 0x100008B88, symSize: 0x2C }
  - { offsetInCU: 0x128F5, offset: 0x128F5, size: 0x8, addend: 0x0, symName: __ZNSt3__16vectorIjNS_9allocatorIjEEE21_ConstructTransactionC2B7v160006ERS3_m, symObjAddr: 0x4578, symBinAddr: 0x100008BB4, symSize: 0x44 }
  - { offsetInCU: 0x1293D, offset: 0x1293D, size: 0x8, addend: 0x0, symName: __ZNSt3__19allocatorIjE9constructB7v160006IjJRKjEEEvPT_DpOT0_, symObjAddr: 0x45BC, symBinAddr: 0x100008BF8, symSize: 0x28 }
  - { offsetInCU: 0x12993, offset: 0x12993, size: 0x8, addend: 0x0, symName: __ZNSt3__16vectorIjNS_9allocatorIjEEE21_ConstructTransactionD2B7v160006Ev, symObjAddr: 0x45E4, symBinAddr: 0x100008C20, symSize: 0x20 }
  - { offsetInCU: 0x129BD, offset: 0x129BD, size: 0x8, addend: 0x0, symName: __ZNKSt3__16vectorIjNS_9allocatorIjEEE11__recommendB7v160006Em, symObjAddr: 0x4604, symBinAddr: 0x100008C40, symSize: 0xB4 }
  - { offsetInCU: 0x12A12, offset: 0x12A12, size: 0x8, addend: 0x0, symName: __ZNSt3__114__split_bufferIjRNS_9allocatorIjEEEC1EmmS3_, symObjAddr: 0x46B8, symBinAddr: 0x100008CF4, symSize: 0x44 }
  - { offsetInCU: 0x12A68, offset: 0x12A68, size: 0x8, addend: 0x0, symName: __ZNSt3__114__split_bufferIjRNS_9allocatorIjEEED1Ev, symObjAddr: 0x4814, symBinAddr: 0x100008E50, symSize: 0x2C }
  - { offsetInCU: 0x12A94, offset: 0x12A94, size: 0x8, addend: 0x0, symName: __ZNKSt3__16vectorIjNS_9allocatorIjEEE8max_sizeEv, symObjAddr: 0x4840, symBinAddr: 0x100008E7C, symSize: 0x60 }
  - { offsetInCU: 0x12ABC, offset: 0x12ABC, size: 0x8, addend: 0x0, symName: __ZNKSt3__16vectorIjNS_9allocatorIjEEE20__throw_length_errorB7v160006Ev, symObjAddr: 0x48A0, symBinAddr: 0x100008EDC, symSize: 0x1C }
  - { offsetInCU: 0x12AEC, offset: 0x12AEC, size: 0x8, addend: 0x0, symName: __ZNSt3__116allocator_traitsINS_9allocatorIjEEE8max_sizeB7v160006IS2_vEEmRKS2_, symObjAddr: 0x48BC, symBinAddr: 0x100008EF8, symSize: 0x24 }
  - { offsetInCU: 0x12B1A, offset: 0x12B1A, size: 0x8, addend: 0x0, symName: __ZNKSt3__16vectorIjNS_9allocatorIjEEE7__allocB7v160006Ev, symObjAddr: 0x48E0, symBinAddr: 0x100008F1C, symSize: 0x28 }
  - { offsetInCU: 0x12B40, offset: 0x12B40, size: 0x8, addend: 0x0, symName: __ZNKSt3__19allocatorIjE8max_sizeB7v160006Ev, symObjAddr: 0x4908, symBinAddr: 0x100008F44, symSize: 0x14 }
  - { offsetInCU: 0x12B66, offset: 0x12B66, size: 0x8, addend: 0x0, symName: __ZNKSt3__117__compressed_pairIPjNS_9allocatorIjEEE6secondB7v160006Ev, symObjAddr: 0x491C, symBinAddr: 0x100008F58, symSize: 0x24 }
  - { offsetInCU: 0x12B8C, offset: 0x12B8C, size: 0x8, addend: 0x0, symName: __ZNKSt3__122__compressed_pair_elemINS_9allocatorIjEELi1ELb1EE5__getB7v160006Ev, symObjAddr: 0x4940, symBinAddr: 0x100008F7C, symSize: 0x14 }
  - { offsetInCU: 0x12BB2, offset: 0x12BB2, size: 0x8, addend: 0x0, symName: __ZNSt3__114__split_bufferIjRNS_9allocatorIjEEEC2EmmS3_, symObjAddr: 0x4954, symBinAddr: 0x100008F90, symSize: 0xD4 }
  - { offsetInCU: 0x12C25, offset: 0x12C25, size: 0x8, addend: 0x0, symName: __ZNSt3__117__compressed_pairIPjRNS_9allocatorIjEEEC1B7v160006IDnS4_EEOT_OT0_, symObjAddr: 0x4A28, symBinAddr: 0x100009064, symSize: 0x3C }
  - { offsetInCU: 0x12C7D, offset: 0x12C7D, size: 0x8, addend: 0x0, symName: __ZNSt3__114__split_bufferIjRNS_9allocatorIjEEE7__allocB7v160006Ev, symObjAddr: 0x4AA4, symBinAddr: 0x1000090E0, symSize: 0x28 }
  - { offsetInCU: 0x12CA3, offset: 0x12CA3, size: 0x8, addend: 0x0, symName: __ZNSt3__114__split_bufferIjRNS_9allocatorIjEEE9__end_capB7v160006Ev, symObjAddr: 0x4ACC, symBinAddr: 0x100009108, symSize: 0x28 }
  - { offsetInCU: 0x12CC9, offset: 0x12CC9, size: 0x8, addend: 0x0, symName: __ZNSt3__117__compressed_pairIPjRNS_9allocatorIjEEEC2B7v160006IDnS4_EEOT_OT0_, symObjAddr: 0x4AF4, symBinAddr: 0x100009130, symSize: 0x48 }
  - { offsetInCU: 0x12D21, offset: 0x12D21, size: 0x8, addend: 0x0, symName: __ZNSt3__122__compressed_pair_elemIRNS_9allocatorIjEELi1ELb0EEC2B7v160006IS3_vEEOT_, symObjAddr: 0x4B3C, symBinAddr: 0x100009178, symSize: 0x20 }
  - { offsetInCU: 0x12D63, offset: 0x12D63, size: 0x8, addend: 0x0, symName: __ZNSt3__19allocatorIjE8allocateB7v160006Em, symObjAddr: 0x4B5C, symBinAddr: 0x100009198, symSize: 0x58 }
  - { offsetInCU: 0x12D97, offset: 0x12D97, size: 0x8, addend: 0x0, symName: __ZNSt3__117__compressed_pairIPjRNS_9allocatorIjEEE6secondB7v160006Ev, symObjAddr: 0x4BB4, symBinAddr: 0x1000091F0, symSize: 0x28 }
  - { offsetInCU: 0x12DBD, offset: 0x12DBD, size: 0x8, addend: 0x0, symName: __ZNSt3__122__compressed_pair_elemIRNS_9allocatorIjEELi1ELb0EE5__getB7v160006Ev, symObjAddr: 0x4BDC, symBinAddr: 0x100009218, symSize: 0x18 }
  - { offsetInCU: 0x12DE3, offset: 0x12DE3, size: 0x8, addend: 0x0, symName: __ZNSt3__117__compressed_pairIPjRNS_9allocatorIjEEE5firstB7v160006Ev, symObjAddr: 0x4BF4, symBinAddr: 0x100009230, symSize: 0x24 }
  - { offsetInCU: 0x12E09, offset: 0x12E09, size: 0x8, addend: 0x0, symName: __ZNSt3__116reverse_iteratorIPjEC1B7v160006ES1_, symObjAddr: 0x4C90, symBinAddr: 0x1000092CC, symSize: 0x34 }
  - { offsetInCU: 0x12E41, offset: 0x12E41, size: 0x8, addend: 0x0, symName: __ZNKSt3__116reverse_iteratorIPjE4baseB7v160006Ev, symObjAddr: 0x4CC4, symBinAddr: 0x100009300, symSize: 0x18 }
  - { offsetInCU: 0x12E67, offset: 0x12E67, size: 0x8, addend: 0x0, symName: __ZNKSt3__16vectorIjNS_9allocatorIjEEE14__annotate_newB7v160006Em, symObjAddr: 0x4D18, symBinAddr: 0x100009354, symSize: 0xAC }
  - { offsetInCU: 0x12EB6, offset: 0x12EB6, size: 0x8, addend: 0x0, symName: __ZNKSt3__111__move_loopINS_17_ClassicAlgPolicyEEclB7v160006INS_16reverse_iteratorIPjEES6_S6_EENS_4pairIT_T1_EES8_T0_S9_, symObjAddr: 0x50C4, symBinAddr: 0x100009700, symSize: 0xA0 }
  - { offsetInCU: 0x12F27, offset: 0x12F27, size: 0x8, addend: 0x0, symName: __ZNSt3__18_IterOpsINS_17_ClassicAlgPolicyEE11__iter_moveB7v160006IRNS_16reverse_iteratorIPjEEEENS_9enable_ifIXsr12is_referenceIDTdeclsr3stdE7declvalIRT_EEEEE5valueEDTclsr3stdE4movedeclsr3stdE7declvalISA_EEEEE4typeEOS9_, symObjAddr: 0x52F8, symBinAddr: 0x100009934, symSize: 0x28 }
  - { offsetInCU: 0x12F53, offset: 0x12F53, size: 0x8, addend: 0x0, symName: __ZNKSt3__116reverse_iteratorIPjEdeB7v160006Ev, symObjAddr: 0x5320, symBinAddr: 0x10000995C, symSize: 0x28 }
  - { offsetInCU: 0x12F87, offset: 0x12F87, size: 0x8, addend: 0x0, symName: __ZNSt3__116reverse_iteratorIPjEppB7v160006Ev, symObjAddr: 0x5348, symBinAddr: 0x100009984, symSize: 0x20 }
  - { offsetInCU: 0x12FAD, offset: 0x12FAD, size: 0x8, addend: 0x0, symName: __ZNSt3__18_IterOpsINS_17_ClassicAlgPolicyEE25__validate_iter_referenceB7v160006IRNS_16reverse_iteratorIPjEEEEvv, symObjAddr: 0x5368, symBinAddr: 0x1000099A4, symSize: 0x4 }
  - { offsetInCU: 0x12FCB, offset: 0x12FCB, size: 0x8, addend: 0x0, symName: __ZNSt3__118__unwrap_iter_implINS_16reverse_iteratorIPjEELb0EE8__unwrapB7v160006ES3_, symObjAddr: 0x536C, symBinAddr: 0x1000099A8, symSize: 0x24 }
  - { offsetInCU: 0x12FF4, offset: 0x12FF4, size: 0x8, addend: 0x0, symName: __ZNSt3__14pairINS_16reverse_iteratorIPjEES3_EC1B7v160006IS3_S3_LPv0EEEOT_OT0_, symObjAddr: 0x5390, symBinAddr: 0x1000099CC, symSize: 0x3C }
  - { offsetInCU: 0x13052, offset: 0x13052, size: 0x8, addend: 0x0, symName: __ZNSt3__14pairINS_16reverse_iteratorIPjEES3_EC2B7v160006IS3_S3_LPv0EEEOT_OT0_, symObjAddr: 0x53CC, symBinAddr: 0x100009A08, symSize: 0x34 }
  - { offsetInCU: 0x130B0, offset: 0x130B0, size: 0x8, addend: 0x0, symName: __ZNSt3__118__unwrap_iter_implINS_16reverse_iteratorIPjEELb0EE8__rewrapB7v160006ES3_S3_, symObjAddr: 0x5400, symBinAddr: 0x100009A3C, symSize: 0x2C }
  - { offsetInCU: 0x130DD, offset: 0x130DD, size: 0x8, addend: 0x0, symName: __ZNSt3__116reverse_iteratorIPjEC2B7v160006ES1_, symObjAddr: 0x542C, symBinAddr: 0x100009A68, symSize: 0x28 }
  - { offsetInCU: 0x13115, offset: 0x13115, size: 0x8, addend: 0x0, symName: __ZNSt3__114__split_bufferIjRNS_9allocatorIjEEED2Ev, symObjAddr: 0x5454, symBinAddr: 0x100009A90, symSize: 0x8C }
  - { offsetInCU: 0x13141, offset: 0x13141, size: 0x8, addend: 0x0, symName: __ZNSt3__114__split_bufferIjRNS_9allocatorIjEEE5clearB7v160006Ev, symObjAddr: 0x54E0, symBinAddr: 0x100009B1C, symSize: 0x28 }
  - { offsetInCU: 0x13167, offset: 0x13167, size: 0x8, addend: 0x0, symName: __ZNKSt3__114__split_bufferIjRNS_9allocatorIjEEE8capacityB7v160006Ev, symObjAddr: 0x5508, symBinAddr: 0x100009B44, symSize: 0x40 }
  - { offsetInCU: 0x1318D, offset: 0x1318D, size: 0x8, addend: 0x0, symName: __ZNSt3__114__split_bufferIjRNS_9allocatorIjEEE17__destruct_at_endB7v160006EPj, symObjAddr: 0x5548, symBinAddr: 0x100009B84, symSize: 0x2C }
  - { offsetInCU: 0x131C1, offset: 0x131C1, size: 0x8, addend: 0x0, symName: __ZNSt3__114__split_bufferIjRNS_9allocatorIjEEE17__destruct_at_endB7v160006EPjNS_17integral_constantIbLb0EEE, symObjAddr: 0x5574, symBinAddr: 0x100009BB0, symSize: 0x80 }
  - { offsetInCU: 0x13201, offset: 0x13201, size: 0x8, addend: 0x0, symName: __ZNKSt3__114__split_bufferIjRNS_9allocatorIjEEE9__end_capB7v160006Ev, symObjAddr: 0x55F4, symBinAddr: 0x100009C30, symSize: 0x28 }
  - { offsetInCU: 0x13227, offset: 0x13227, size: 0x8, addend: 0x0, symName: __ZNKSt3__117__compressed_pairIPjRNS_9allocatorIjEEE5firstB7v160006Ev, symObjAddr: 0x561C, symBinAddr: 0x100009C58, symSize: 0x24 }
  - { offsetInCU: 0x1324D, offset: 0x1324D, size: 0x8, addend: 0x0, symName: __ZNSt3__111char_traitsIcE6lengthEPKc, symObjAddr: 0x582C, symBinAddr: 0x100009E68, symSize: 0x34 }
  - { offsetInCU: 0x1328E, offset: 0x1328E, size: 0x8, addend: 0x0, symName: __ZNKSt3__113basic_ostreamIcNS_11char_traitsIcEEE6sentrycvbB7v160006Ev, symObjAddr: 0x5860, symBinAddr: 0x100009E9C, symSize: 0x1C }
  - { offsetInCU: 0x132B4, offset: 0x132B4, size: 0x8, addend: 0x0, symName: __ZNSt3__119ostreambuf_iteratorIcNS_11char_traitsIcEEEC1B7v160006ERNS_13basic_ostreamIcS2_EE, symObjAddr: 0x5ABC, symBinAddr: 0x10000A0F8, symSize: 0x34 }
  - { offsetInCU: 0x132EC, offset: 0x132EC, size: 0x8, addend: 0x0, symName: __ZNKSt3__18ios_base5flagsB7v160006Ev, symObjAddr: 0x5AF0, symBinAddr: 0x10000A12C, symSize: 0x18 }
  - { offsetInCU: 0x13314, offset: 0x13314, size: 0x8, addend: 0x0, symName: __ZNKSt3__19basic_iosIcNS_11char_traitsIcEEE4fillB7v160006Ev, symObjAddr: 0x5B08, symBinAddr: 0x10000A144, symSize: 0x64 }
  - { offsetInCU: 0x1333C, offset: 0x1333C, size: 0x8, addend: 0x0, symName: __ZNKSt3__119ostreambuf_iteratorIcNS_11char_traitsIcEEE6failedB7v160006Ev, symObjAddr: 0x5B6C, symBinAddr: 0x10000A1A8, symSize: 0x24 }
  - { offsetInCU: 0x13362, offset: 0x13362, size: 0x8, addend: 0x0, symName: __ZNSt3__19basic_iosIcNS_11char_traitsIcEEE8setstateB7v160006Ej, symObjAddr: 0x5B90, symBinAddr: 0x10000A1CC, symSize: 0x2C }
  - { offsetInCU: 0x13397, offset: 0x13397, size: 0x8, addend: 0x0, symName: __ZNKSt3__18ios_base5widthB7v160006Ev, symObjAddr: 0x5BBC, symBinAddr: 0x10000A1F8, symSize: 0x18 }
  - { offsetInCU: 0x133BF, offset: 0x133BF, size: 0x8, addend: 0x0, symName: __ZNSt3__115basic_streambufIcNS_11char_traitsIcEEE5sputnB7v160006EPKcl, symObjAddr: 0x5BD4, symBinAddr: 0x10000A210, symSize: 0x3C }
  - { offsetInCU: 0x13401, offset: 0x13401, size: 0x8, addend: 0x0, symName: __ZNSt3__112basic_stringIcNS_11char_traitsIcEENS_9allocatorIcEEEC1B7v160006Emc, symObjAddr: 0x5C10, symBinAddr: 0x10000A24C, symSize: 0x3C }
  - { offsetInCU: 0x13449, offset: 0x13449, size: 0x8, addend: 0x0, symName: __ZNSt3__112basic_stringIcNS_11char_traitsIcEENS_9allocatorIcEEE4dataB7v160006Ev, symObjAddr: 0x5C4C, symBinAddr: 0x10000A288, symSize: 0x28 }
  - { offsetInCU: 0x1346F, offset: 0x1346F, size: 0x8, addend: 0x0, symName: __ZNSt3__18ios_base5widthB7v160006El, symObjAddr: 0x5C74, symBinAddr: 0x10000A2B0, symSize: 0x2C }
  - { offsetInCU: 0x134B5, offset: 0x134B5, size: 0x8, addend: 0x0, symName: __ZNSt3__112basic_stringIcNS_11char_traitsIcEENS_9allocatorIcEEEC2B7v160006Emc, symObjAddr: 0x5CA0, symBinAddr: 0x10000A2DC, symSize: 0x54 }
  - { offsetInCU: 0x134FD, offset: 0x134FD, size: 0x8, addend: 0x0, symName: __ZNSt3__117__compressed_pairINS_12basic_stringIcNS_11char_traitsIcEENS_9allocatorIcEEE5__repES5_EC1B7v160006INS_18__default_init_tagESA_EEOT_OT0_, symObjAddr: 0x5CF4, symBinAddr: 0x10000A330, symSize: 0x3C }
  - { offsetInCU: 0x13555, offset: 0x13555, size: 0x8, addend: 0x0, symName: __ZNSt3__117__compressed_pairINS_12basic_stringIcNS_11char_traitsIcEENS_9allocatorIcEEE5__repES5_EC2B7v160006INS_18__default_init_tagESA_EEOT_OT0_, symObjAddr: 0x5D40, symBinAddr: 0x10000A37C, symSize: 0x3C }
  - { offsetInCU: 0x135AD, offset: 0x135AD, size: 0x8, addend: 0x0, symName: __ZNSt3__122__compressed_pair_elemINS_12basic_stringIcNS_11char_traitsIcEENS_9allocatorIcEEE5__repELi0ELb0EEC2B7v160006ENS_18__default_init_tagE, symObjAddr: 0x5D7C, symBinAddr: 0x10000A3B8, symSize: 0x14 }
  - { offsetInCU: 0x135E1, offset: 0x135E1, size: 0x8, addend: 0x0, symName: __ZNSt3__122__compressed_pair_elemINS_9allocatorIcEELi1ELb1EEC2B7v160006ENS_18__default_init_tagE, symObjAddr: 0x5D90, symBinAddr: 0x10000A3CC, symSize: 0x2C }
  - { offsetInCU: 0x13615, offset: 0x13615, size: 0x8, addend: 0x0, symName: __ZNSt3__19allocatorIcEC2B7v160006Ev, symObjAddr: 0x5DBC, symBinAddr: 0x10000A3F8, symSize: 0x2C }
  - { offsetInCU: 0x1363F, offset: 0x1363F, size: 0x8, addend: 0x0, symName: __ZNSt3__116__non_trivial_ifILb1ENS_9allocatorIcEEEC2B7v160006Ev, symObjAddr: 0x5DE8, symBinAddr: 0x10000A424, symSize: 0x14 }
  - { offsetInCU: 0x13669, offset: 0x13669, size: 0x8, addend: 0x0, symName: __ZNSt3__112basic_stringIcNS_11char_traitsIcEENS_9allocatorIcEEE13__get_pointerB7v160006Ev, symObjAddr: 0x5E10, symBinAddr: 0x10000A44C, symSize: 0x54 }
  - { offsetInCU: 0x1368F, offset: 0x1368F, size: 0x8, addend: 0x0, symName: __ZNKSt3__112basic_stringIcNS_11char_traitsIcEENS_9allocatorIcEEE9__is_longB7v160006Ev, symObjAddr: 0x5E64, symBinAddr: 0x10000A4A0, symSize: 0x38 }
  - { offsetInCU: 0x136B5, offset: 0x136B5, size: 0x8, addend: 0x0, symName: __ZNSt3__112basic_stringIcNS_11char_traitsIcEENS_9allocatorIcEEE18__get_long_pointerB7v160006Ev, symObjAddr: 0x5E9C, symBinAddr: 0x10000A4D8, symSize: 0x28 }
  - { offsetInCU: 0x136DB, offset: 0x136DB, size: 0x8, addend: 0x0, symName: __ZNSt3__112basic_stringIcNS_11char_traitsIcEENS_9allocatorIcEEE19__get_short_pointerB7v160006Ev, symObjAddr: 0x5EC4, symBinAddr: 0x10000A500, symSize: 0x28 }
  - { offsetInCU: 0x13701, offset: 0x13701, size: 0x8, addend: 0x0, symName: __ZNKSt3__117__compressed_pairINS_12basic_stringIcNS_11char_traitsIcEENS_9allocatorIcEEE5__repES5_E5firstB7v160006Ev, symObjAddr: 0x5EEC, symBinAddr: 0x10000A528, symSize: 0x24 }
  - { offsetInCU: 0x13727, offset: 0x13727, size: 0x8, addend: 0x0, symName: __ZNKSt3__122__compressed_pair_elemINS_12basic_stringIcNS_11char_traitsIcEENS_9allocatorIcEEE5__repELi0ELb0EE5__getB7v160006Ev, symObjAddr: 0x5F10, symBinAddr: 0x10000A54C, symSize: 0x14 }
  - { offsetInCU: 0x1374D, offset: 0x1374D, size: 0x8, addend: 0x0, symName: __ZNSt3__117__compressed_pairINS_12basic_stringIcNS_11char_traitsIcEENS_9allocatorIcEEE5__repES5_E5firstB7v160006Ev, symObjAddr: 0x5F24, symBinAddr: 0x10000A560, symSize: 0x24 }
  - { offsetInCU: 0x13773, offset: 0x13773, size: 0x8, addend: 0x0, symName: __ZNSt3__122__compressed_pair_elemINS_12basic_stringIcNS_11char_traitsIcEENS_9allocatorIcEEE5__repELi0ELb0EE5__getB7v160006Ev, symObjAddr: 0x5F48, symBinAddr: 0x10000A584, symSize: 0x14 }
  - { offsetInCU: 0x13799, offset: 0x13799, size: 0x8, addend: 0x0, symName: __ZNSt3__114pointer_traitsIPcE10pointer_toB7v160006ERc, symObjAddr: 0x5F5C, symBinAddr: 0x10000A598, symSize: 0x14 }
  - { offsetInCU: 0x137BC, offset: 0x137BC, size: 0x8, addend: 0x0, symName: __ZNSt3__119ostreambuf_iteratorIcNS_11char_traitsIcEEEC2B7v160006ERNS_13basic_ostreamIcS2_EE, symObjAddr: 0x5F70, symBinAddr: 0x10000A5AC, symSize: 0x54 }
  - { offsetInCU: 0x137F4, offset: 0x137F4, size: 0x8, addend: 0x0, symName: __ZNKSt3__19basic_iosIcNS_11char_traitsIcEEE5rdbufB7v160006Ev, symObjAddr: 0x5FC4, symBinAddr: 0x10000A600, symSize: 0x24 }
  - { offsetInCU: 0x1381C, offset: 0x1381C, size: 0x8, addend: 0x0, symName: __ZNKSt3__18ios_base5rdbufB7v160006Ev, symObjAddr: 0x5FE8, symBinAddr: 0x10000A624, symSize: 0x18 }
  - { offsetInCU: 0x13842, offset: 0x13842, size: 0x8, addend: 0x0, symName: __ZNSt3__111char_traitsIcE11eq_int_typeEii, symObjAddr: 0x6000, symBinAddr: 0x10000A63C, symSize: 0x28 }
  - { offsetInCU: 0x13873, offset: 0x13873, size: 0x8, addend: 0x0, symName: __ZNSt3__111char_traitsIcE3eofEv, symObjAddr: 0x6028, symBinAddr: 0x10000A664, symSize: 0x8 }
  - { offsetInCU: 0x13887, offset: 0x13887, size: 0x8, addend: 0x0, symName: __ZNKSt3__19basic_iosIcNS_11char_traitsIcEEE5widenB7v160006Ec, symObjAddr: 0x6030, symBinAddr: 0x10000A66C, symSize: 0x84 }
  - { offsetInCU: 0x138F5, offset: 0x138F5, size: 0x8, addend: 0x0, symName: __ZNKSt3__15ctypeIcE5widenB7v160006Ec, symObjAddr: 0x60E0, symBinAddr: 0x10000A71C, symSize: 0x38 }
  - { offsetInCU: 0x1392A, offset: 0x1392A, size: 0x8, addend: 0x0, symName: __ZNSt3__18ios_base8setstateB7v160006Ej, symObjAddr: 0x6118, symBinAddr: 0x10000A754, symSize: 0x34 }
  - { offsetInCU: 0x13961, offset: 0x13961, size: 0x8, addend: 0x0, symName: __ZNKSt3__16vectorIfNS_9allocatorIfEEE17__annotate_shrinkB7v160006Em, symObjAddr: 0x6170, symBinAddr: 0x10000A7AC, symSize: 0xB4 }
  - { offsetInCU: 0x13996, offset: 0x13996, size: 0x8, addend: 0x0, symName: __ZNKSt3__16vectorIjNS_9allocatorIjEEE17__annotate_shrinkB7v160006Em, symObjAddr: 0x6224, symBinAddr: 0x10000A860, symSize: 0xB4 }
  - { offsetInCU: 0x139CB, offset: 0x139CB, size: 0x8, addend: 0x0, symName: __ZN3glm5tvec3IfLNS_9precisionE0EEC2ERKfS4_S4_, symObjAddr: 0x62D8, symBinAddr: 0x10000A914, symSize: 0x44 }
  - { offsetInCU: 0x13A20, offset: 0x13A20, size: 0x8, addend: 0x0, symName: __Z4sqrtB7v160006f, symObjAddr: 0x6404, symBinAddr: 0x10000AA40, symSize: 0x18 }
  - { offsetInCU: 0x13A4F, offset: 0x13A4F, size: 0x8, addend: 0x0, symName: __ZN3glm6detail11compute_dotINS_5tvec3EfLNS_9precisionE0EE4callERKNS2_IfLS3_0EEES7_, symObjAddr: 0x641C, symBinAddr: 0x10000AA58, symSize: 0x44 }
  - { offsetInCU: 0x13A8E, offset: 0x13A8E, size: 0x8, addend: 0x0, symName: __ZNSt3__16vectorIjNS_9allocatorIjEEE11__make_iterB7v160006EPj, symObjAddr: 0x64EC, symBinAddr: 0x10000AB28, symSize: 0x34 }
  - { offsetInCU: 0x13AC3, offset: 0x13AC3, size: 0x8, addend: 0x0, symName: __ZNSt3__111__wrap_iterIPjEC1B7v160006EPKvS1_, symObjAddr: 0x6520, symBinAddr: 0x10000AB5C, symSize: 0x3C }
  - { offsetInCU: 0x13B09, offset: 0x13B09, size: 0x8, addend: 0x0, symName: __ZNSt3__111__wrap_iterIPjEC2B7v160006EPKvS1_, symObjAddr: 0x655C, symBinAddr: 0x10000AB98, symSize: 0x24 }
  - { offsetInCU: 0x13B4F, offset: 0x13B4F, size: 0x8, addend: 0x0, symName: __ZNSt3__16vectorIjNS_9allocatorIjEEE6insertIPKjLi0EEENS_11__wrap_iterIPjEENS7_IS6_EET_SB_, symObjAddr: 0x6580, symBinAddr: 0x10000ABBC, symSize: 0x29C }
  - { offsetInCU: 0x13C63, offset: 0x13C63, size: 0x8, addend: 0x0, symName: __ZNKSt16initializer_listIjE5beginB7v160006Ev, symObjAddr: 0x681C, symBinAddr: 0x10000AE58, symSize: 0x18 }
  - { offsetInCU: 0x13C89, offset: 0x13C89, size: 0x8, addend: 0x0, symName: __ZNKSt16initializer_listIjE3endB7v160006Ev, symObjAddr: 0x6834, symBinAddr: 0x10000AE70, symSize: 0x20 }
  - { offsetInCU: 0x13CAF, offset: 0x13CAF, size: 0x8, addend: 0x0, symName: __ZNSt3__16vectorIjNS_9allocatorIjEEE5beginB7v160006Ev, symObjAddr: 0x689C, symBinAddr: 0x10000AED8, symSize: 0x30 }
  - { offsetInCU: 0x13CD7, offset: 0x13CD7, size: 0x8, addend: 0x0, symName: __ZNSt3__16vectorIjNS_9allocatorIjEEE18__construct_at_endIPKjLi0EEEvT_S7_m, symObjAddr: 0x6948, symBinAddr: 0x10000AF84, symSize: 0x8C }
  - { offsetInCU: 0x13D4A, offset: 0x13D4A, size: 0x8, addend: 0x0, symName: __ZNSt3__16vectorIjNS_9allocatorIjEEE12__move_rangeEPjS4_S4_, symObjAddr: 0x69D4, symBinAddr: 0x10000B010, symSize: 0x12C }
  - { offsetInCU: 0x13E06, offset: 0x13E06, size: 0x8, addend: 0x0, symName: __ZNSt3__114__split_bufferIjRNS_9allocatorIjEEE18__construct_at_endIPKjEENS_9enable_ifIXsr27__is_cpp17_forward_iteratorIT_EE5valueEvE4typeES9_S9_, symObjAddr: 0x6B40, symBinAddr: 0x10000B17C, symSize: 0xD8 }
  - { offsetInCU: 0x13E62, offset: 0x13E62, size: 0x8, addend: 0x0, symName: __ZNKSt3__111__wrap_iterIPKjE4baseB7v160006Ev, symObjAddr: 0x6D6C, symBinAddr: 0x10000B3A8, symSize: 0x18 }
  - { offsetInCU: 0x13E88, offset: 0x13E88, size: 0x8, addend: 0x0, symName: __ZNSt3__116allocator_traitsINS_9allocatorIjEEE9constructB7v160006IjJjEvEEvRS2_PT_DpOT0_, symObjAddr: 0x6E20, symBinAddr: 0x10000B45C, symSize: 0x34 }
  - { offsetInCU: 0x13EDF, offset: 0x13EDF, size: 0x8, addend: 0x0, symName: __ZNSt3__19allocatorIjE9constructB7v160006IjJjEEEvPT_DpOT0_, symObjAddr: 0x6E94, symBinAddr: 0x10000B4D0, symSize: 0x28 }
  - { offsetInCU: 0x13F59, offset: 0x13F59, size: 0x8, addend: 0x0, symName: __ZNKSt3__123__move_backward_trivialclB7v160006IjjLi0EEENS_4pairIPT_PT0_EES4_S4_S6_, symObjAddr: 0x7058, symBinAddr: 0x10000B694, symSize: 0x48 }
  - { offsetInCU: 0x13FC1, offset: 0x13FC1, size: 0x8, addend: 0x0, symName: __ZNSt3__14pairIPjS1_EC1B7v160006IRS1_S4_LPv0EEEOT_OT0_, symObjAddr: 0x7230, symBinAddr: 0x10000B86C, symSize: 0x3C }
  - { offsetInCU: 0x1401F, offset: 0x1401F, size: 0x8, addend: 0x0, symName: __ZNSt3__14pairIPjS1_EC2B7v160006IRS1_S4_LPv0EEEOT_OT0_, symObjAddr: 0x726C, symBinAddr: 0x10000B8A8, symSize: 0x34 }
  - { offsetInCU: 0x1407D, offset: 0x1407D, size: 0x8, addend: 0x0, symName: __ZNSt3__118__unwrap_iter_implIPjLb1EE8__unwrapB7v160006ES1_, symObjAddr: 0x72A0, symBinAddr: 0x10000B8DC, symSize: 0x24 }
  - { offsetInCU: 0x140A6, offset: 0x140A6, size: 0x8, addend: 0x0, symName: __ZNSt3__14pairIPjS1_EC1B7v160006IS1_S1_LPv0EEEOT_OT0_, symObjAddr: 0x72C4, symBinAddr: 0x10000B900, symSize: 0x3C }
  - { offsetInCU: 0x14104, offset: 0x14104, size: 0x8, addend: 0x0, symName: __ZNSt3__14pairIPjS1_EC2B7v160006IS1_S1_LPv0EEEOT_OT0_, symObjAddr: 0x7300, symBinAddr: 0x10000B93C, symSize: 0x34 }
  - { offsetInCU: 0x14162, offset: 0x14162, size: 0x8, addend: 0x0, symName: __ZNSt3__118__unwrap_iter_implIPjLb1EE8__rewrapB7v160006ES1_S1_, symObjAddr: 0x7334, symBinAddr: 0x10000B970, symSize: 0x50 }
  - { offsetInCU: 0x141B7, offset: 0x141B7, size: 0x8, addend: 0x0, symName: __ZNKSt3__114__copy_trivialclB7v160006IKjjLi0EEENS_4pairIPT_PT0_EES5_S5_S7_, symObjAddr: 0x7520, symBinAddr: 0x10000BB5C, symSize: 0x48 }
  - { offsetInCU: 0x1423F, offset: 0x1423F, size: 0x8, addend: 0x0, symName: __ZNSt3__14pairIPKjS2_EC1B7v160006IS2_S2_LPv0EEEOT_OT0_, symObjAddr: 0x7628, symBinAddr: 0x10000BC64, symSize: 0x3C }
  - { offsetInCU: 0x1429D, offset: 0x1429D, size: 0x8, addend: 0x0, symName: __ZNSt3__14pairIPKjS2_EC2B7v160006IS2_S2_LPv0EEEOT_OT0_, symObjAddr: 0x7664, symBinAddr: 0x10000BCA0, symSize: 0x34 }
  - { offsetInCU: 0x142FB, offset: 0x142FB, size: 0x8, addend: 0x0, symName: __ZNSt3__118__unwrap_iter_implIPKjLb1EE8__unwrapB7v160006ES2_, symObjAddr: 0x7698, symBinAddr: 0x10000BCD4, symSize: 0x24 }
  - { offsetInCU: 0x14323, offset: 0x14323, size: 0x8, addend: 0x0, symName: __ZNSt3__14pairIPKjPjEC1B7v160006IRS2_S3_LPv0EEEOT_OT0_, symObjAddr: 0x778C, symBinAddr: 0x10000BDC8, symSize: 0x3C }
  - { offsetInCU: 0x14381, offset: 0x14381, size: 0x8, addend: 0x0, symName: __ZNSt3__14pairIPKjPjEC2B7v160006IRS2_S3_LPv0EEEOT_OT0_, symObjAddr: 0x77C8, symBinAddr: 0x10000BE04, symSize: 0x34 }
  - { offsetInCU: 0x143DF, offset: 0x143DF, size: 0x8, addend: 0x0, symName: __ZNSt3__14pairIPKjPjEC1B7v160006IS2_S3_LPv0EEEOT_OT0_, symObjAddr: 0x77FC, symBinAddr: 0x10000BE38, symSize: 0x3C }
  - { offsetInCU: 0x1443D, offset: 0x1443D, size: 0x8, addend: 0x0, symName: __ZNSt3__14pairIPKjPjEC2B7v160006IS2_S3_LPv0EEEOT_OT0_, symObjAddr: 0x7838, symBinAddr: 0x10000BE74, symSize: 0x34 }
  - { offsetInCU: 0x1449B, offset: 0x1449B, size: 0x8, addend: 0x0, symName: __ZNSt3__118__unwrap_iter_implIPKjLb1EE8__rewrapB7v160006ES2_S2_, symObjAddr: 0x78A8, symBinAddr: 0x10000BEE4, symSize: 0x50 }
  - { offsetInCU: 0x144D6, offset: 0x144D6, size: 0x8, addend: 0x0, symName: __ZNSt3__114__split_bufferIjRNS_9allocatorIjEEE21_ConstructTransactionC1B7v160006EPPjm, symObjAddr: 0x78F8, symBinAddr: 0x10000BF34, symSize: 0x3C }
  - { offsetInCU: 0x1451C, offset: 0x1451C, size: 0x8, addend: 0x0, symName: __ZNSt3__114__split_bufferIjRNS_9allocatorIjEEE21_ConstructTransactionD1B7v160006Ev, symObjAddr: 0x7934, symBinAddr: 0x10000BF70, symSize: 0x2C }
  - { offsetInCU: 0x14546, offset: 0x14546, size: 0x8, addend: 0x0, symName: __ZNSt3__114__split_bufferIjRNS_9allocatorIjEEE21_ConstructTransactionC2B7v160006EPPjm, symObjAddr: 0x7960, symBinAddr: 0x10000BF9C, symSize: 0x44 }
  - { offsetInCU: 0x1458C, offset: 0x1458C, size: 0x8, addend: 0x0, symName: __ZNSt3__114__split_bufferIjRNS_9allocatorIjEEE21_ConstructTransactionD2B7v160006Ev, symObjAddr: 0x79A4, symBinAddr: 0x10000BFE0, symSize: 0x20 }
  - { offsetInCU: 0x145C0, offset: 0x145C0, size: 0x8, addend: 0x0, symName: __ZNKSt3__114__move_trivialclB7v160006IjjLi0EEENS_4pairIPT_PT0_EES4_S4_S6_, symObjAddr: 0x7B78, symBinAddr: 0x10000C1B4, symSize: 0x48 }
  - { offsetInCU: 0x14628, offset: 0x14628, size: 0x8, addend: 0x0, symName: __ZNSt3__14pairIPjS1_EC1B7v160006IRS1_S1_LPv0EEEOT_OT0_, symObjAddr: 0x7C7C, symBinAddr: 0x10000C2B8, symSize: 0x3C }
  - { offsetInCU: 0x14686, offset: 0x14686, size: 0x8, addend: 0x0, symName: __ZNSt3__14pairIPjS1_EC2B7v160006IRS1_S1_LPv0EEEOT_OT0_, symObjAddr: 0x7CB8, symBinAddr: 0x10000C2F4, symSize: 0x34 }
  - { offsetInCU: 0x146E4, offset: 0x146E4, size: 0x8, addend: 0x0, symName: __ZNSt3__16vectorIjNS_9allocatorIjEEE18__construct_at_endIPjLi0EEEvT_S6_m, symObjAddr: 0x7D68, symBinAddr: 0x10000C3A4, symSize: 0x8C }
  - { offsetInCU: 0x14757, offset: 0x14757, size: 0x8, addend: 0x0, symName: __ZNSt3__114__split_bufferIjRNS_9allocatorIjEEE18__construct_at_endIPjEENS_9enable_ifIXsr27__is_cpp17_forward_iteratorIT_EE5valueEvE4typeES8_S8_, symObjAddr: 0x7E34, symBinAddr: 0x10000C470, symSize: 0xD8 }
  - { offsetInCU: 0x147B3, offset: 0x147B3, size: 0x8, addend: 0x0, symName: __ZNSt3__129_AllocatorDestroyRangeReverseINS_9allocatorIjEEPjEC1B7v160006ERS2_RS3_S6_, symObjAddr: 0x809C, symBinAddr: 0x10000C6D8, symSize: 0x44 }
  - { offsetInCU: 0x1480A, offset: 0x1480A, size: 0x8, addend: 0x0, symName: __ZNSt3__116allocator_traitsINS_9allocatorIjEEE9constructB7v160006IjJRjEvEEvRS2_PT_DpOT0_, symObjAddr: 0x80E0, symBinAddr: 0x10000C71C, symSize: 0x34 }
  - { offsetInCU: 0x14861, offset: 0x14861, size: 0x8, addend: 0x0, symName: __ZNSt3__128__exception_guard_exceptionsINS_29_AllocatorDestroyRangeReverseINS_9allocatorIjEEPjEEE10__completeB7v160006Ev, symObjAddr: 0x8114, symBinAddr: 0x10000C750, symSize: 0x1C }
  - { offsetInCU: 0x14887, offset: 0x14887, size: 0x8, addend: 0x0, symName: __ZNSt3__128__exception_guard_exceptionsINS_29_AllocatorDestroyRangeReverseINS_9allocatorIjEEPjEEED1B7v160006Ev, symObjAddr: 0x8130, symBinAddr: 0x10000C76C, symSize: 0x2C }
  - { offsetInCU: 0x148B1, offset: 0x148B1, size: 0x8, addend: 0x0, symName: __ZNSt3__128__exception_guard_exceptionsINS_29_AllocatorDestroyRangeReverseINS_9allocatorIjEEPjEEEC1B7v160006ES5_, symObjAddr: 0x815C, symBinAddr: 0x10000C798, symSize: 0x34 }
  - { offsetInCU: 0x148EA, offset: 0x148EA, size: 0x8, addend: 0x0, symName: __ZNSt3__128__exception_guard_exceptionsINS_29_AllocatorDestroyRangeReverseINS_9allocatorIjEEPjEEEC2B7v160006ES5_, symObjAddr: 0x8190, symBinAddr: 0x10000C7CC, symSize: 0x30 }
  - { offsetInCU: 0x14923, offset: 0x14923, size: 0x8, addend: 0x0, symName: __ZNSt3__129_AllocatorDestroyRangeReverseINS_9allocatorIjEEPjEC2B7v160006ERS2_RS3_S6_, symObjAddr: 0x81C0, symBinAddr: 0x10000C7FC, symSize: 0x38 }
  - { offsetInCU: 0x1497A, offset: 0x1497A, size: 0x8, addend: 0x0, symName: __ZNSt3__19allocatorIjE9constructB7v160006IjJRjEEEvPT_DpOT0_, symObjAddr: 0x81F8, symBinAddr: 0x10000C834, symSize: 0x28 }
  - { offsetInCU: 0x149D0, offset: 0x149D0, size: 0x8, addend: 0x0, symName: __ZNSt3__128__exception_guard_exceptionsINS_29_AllocatorDestroyRangeReverseINS_9allocatorIjEEPjEEED2B7v160006Ev, symObjAddr: 0x8220, symBinAddr: 0x10000C85C, symSize: 0x50 }
  - { offsetInCU: 0x149FA, offset: 0x149FA, size: 0x8, addend: 0x0, symName: __ZNKSt3__129_AllocatorDestroyRangeReverseINS_9allocatorIjEEPjEclB7v160006Ev, symObjAddr: 0x8270, symBinAddr: 0x10000C8AC, symSize: 0x68 }
  - { offsetInCU: 0x14A25, offset: 0x14A25, size: 0x8, addend: 0x0, symName: __ZNSt3__119__to_address_helperINS_16reverse_iteratorIPjEEvE6__callB7v160006ERKS3_, symObjAddr: 0x836C, symBinAddr: 0x10000C9A8, symSize: 0x38 }
  - { offsetInCU: 0x14A48, offset: 0x14A48, size: 0x8, addend: 0x0, symName: __ZNKSt3__116reverse_iteratorIPjEptB7v160006Ev, symObjAddr: 0x83A4, symBinAddr: 0x10000C9E0, symSize: 0x24 }
  - { offsetInCU: 0x14A6E, offset: 0x14A6E, size: 0x8, addend: 0x0, symName: __ZNKSt3__114__copy_trivialclB7v160006IjjLi0EEENS_4pairIPT_PT0_EES4_S4_S6_, symObjAddr: 0x8504, symBinAddr: 0x10000CB40, symSize: 0x48 }
  - { offsetInCU: 0x14AD6, offset: 0x14AD6, size: 0x8, addend: 0x0, symName: __ZNSt3__16vectorIfNS_9allocatorIfEEE11__make_iterB7v160006EPf, symObjAddr: 0x854C, symBinAddr: 0x10000CB88, symSize: 0x34 }
  - { offsetInCU: 0x14B0B, offset: 0x14B0B, size: 0x8, addend: 0x0, symName: __ZNSt3__111__wrap_iterIPfEC1B7v160006EPKvS1_, symObjAddr: 0x8580, symBinAddr: 0x10000CBBC, symSize: 0x3C }
  - { offsetInCU: 0x14B51, offset: 0x14B51, size: 0x8, addend: 0x0, symName: __ZNSt3__111__wrap_iterIPfEC2B7v160006EPKvS1_, symObjAddr: 0x85BC, symBinAddr: 0x10000CBF8, symSize: 0x24 }
  - { offsetInCU: 0x14B97, offset: 0x14B97, size: 0x8, addend: 0x0, symName: __ZNSt3__16vectorIfNS_9allocatorIfEEE6insertIPKfLi0EEENS_11__wrap_iterIPfEENS7_IS6_EET_SB_, symObjAddr: 0x85E0, symBinAddr: 0x10000CC1C, symSize: 0x29C }
  - { offsetInCU: 0x14CAB, offset: 0x14CAB, size: 0x8, addend: 0x0, symName: __ZNKSt16initializer_listIfE5beginB7v160006Ev, symObjAddr: 0x887C, symBinAddr: 0x10000CEB8, symSize: 0x18 }
  - { offsetInCU: 0x14CD1, offset: 0x14CD1, size: 0x8, addend: 0x0, symName: __ZNKSt16initializer_listIfE3endB7v160006Ev, symObjAddr: 0x8894, symBinAddr: 0x10000CED0, symSize: 0x20 }
  - { offsetInCU: 0x14CF7, offset: 0x14CF7, size: 0x8, addend: 0x0, symName: __ZNSt3__16vectorIfNS_9allocatorIfEEE5beginB7v160006Ev, symObjAddr: 0x88FC, symBinAddr: 0x10000CF38, symSize: 0x30 }
  - { offsetInCU: 0x14D1F, offset: 0x14D1F, size: 0x8, addend: 0x0, symName: __ZNSt3__16vectorIfNS_9allocatorIfEEE18__construct_at_endIPKfLi0EEEvT_S7_m, symObjAddr: 0x89A8, symBinAddr: 0x10000CFE4, symSize: 0x8C }
  - { offsetInCU: 0x14D92, offset: 0x14D92, size: 0x8, addend: 0x0, symName: __ZNSt3__16vectorIfNS_9allocatorIfEEE12__move_rangeEPfS4_S4_, symObjAddr: 0x8A34, symBinAddr: 0x10000D070, symSize: 0x12C }
  - { offsetInCU: 0x14E4E, offset: 0x14E4E, size: 0x8, addend: 0x0, symName: __ZNSt3__114__split_bufferIfRNS_9allocatorIfEEE18__construct_at_endIPKfEENS_9enable_ifIXsr27__is_cpp17_forward_iteratorIT_EE5valueEvE4typeES9_S9_, symObjAddr: 0x8BA0, symBinAddr: 0x10000D1DC, symSize: 0xD8 }
  - { offsetInCU: 0x14EAA, offset: 0x14EAA, size: 0x8, addend: 0x0, symName: __ZNKSt3__111__wrap_iterIPKfE4baseB7v160006Ev, symObjAddr: 0x8DCC, symBinAddr: 0x10000D408, symSize: 0x18 }
  - { offsetInCU: 0x14EEA, offset: 0x14EEA, size: 0x8, addend: 0x0, symName: __ZNKSt3__123__move_backward_trivialclB7v160006IffLi0EEENS_4pairIPT_PT0_EES4_S4_S6_, symObjAddr: 0x9048, symBinAddr: 0x10000D684, symSize: 0x48 }
  - { offsetInCU: 0x14F52, offset: 0x14F52, size: 0x8, addend: 0x0, symName: __ZNSt3__14pairIPfS1_EC1B7v160006IRS1_S4_LPv0EEEOT_OT0_, symObjAddr: 0x9220, symBinAddr: 0x10000D85C, symSize: 0x3C }
  - { offsetInCU: 0x14FB0, offset: 0x14FB0, size: 0x8, addend: 0x0, symName: __ZNSt3__14pairIPfS1_EC2B7v160006IRS1_S4_LPv0EEEOT_OT0_, symObjAddr: 0x925C, symBinAddr: 0x10000D898, symSize: 0x34 }
  - { offsetInCU: 0x1500E, offset: 0x1500E, size: 0x8, addend: 0x0, symName: __ZNSt3__118__unwrap_iter_implIPfLb1EE8__unwrapB7v160006ES1_, symObjAddr: 0x9290, symBinAddr: 0x10000D8CC, symSize: 0x24 }
  - { offsetInCU: 0x15037, offset: 0x15037, size: 0x8, addend: 0x0, symName: __ZNSt3__14pairIPfS1_EC1B7v160006IS1_S1_LPv0EEEOT_OT0_, symObjAddr: 0x92B4, symBinAddr: 0x10000D8F0, symSize: 0x3C }
  - { offsetInCU: 0x15095, offset: 0x15095, size: 0x8, addend: 0x0, symName: __ZNSt3__14pairIPfS1_EC2B7v160006IS1_S1_LPv0EEEOT_OT0_, symObjAddr: 0x92F0, symBinAddr: 0x10000D92C, symSize: 0x34 }
  - { offsetInCU: 0x150F3, offset: 0x150F3, size: 0x8, addend: 0x0, symName: __ZNSt3__118__unwrap_iter_implIPfLb1EE8__rewrapB7v160006ES1_S1_, symObjAddr: 0x9324, symBinAddr: 0x10000D960, symSize: 0x50 }
  - { offsetInCU: 0x1513E, offset: 0x1513E, size: 0x8, addend: 0x0, symName: __ZNKSt3__114__copy_trivialclB7v160006IKffLi0EEENS_4pairIPT_PT0_EES5_S5_S7_, symObjAddr: 0x9510, symBinAddr: 0x10000DB4C, symSize: 0x48 }
  - { offsetInCU: 0x151C6, offset: 0x151C6, size: 0x8, addend: 0x0, symName: __ZNSt3__14pairIPKfS2_EC1B7v160006IS2_S2_LPv0EEEOT_OT0_, symObjAddr: 0x9618, symBinAddr: 0x10000DC54, symSize: 0x3C }
  - { offsetInCU: 0x15224, offset: 0x15224, size: 0x8, addend: 0x0, symName: __ZNSt3__14pairIPKfS2_EC2B7v160006IS2_S2_LPv0EEEOT_OT0_, symObjAddr: 0x9654, symBinAddr: 0x10000DC90, symSize: 0x34 }
  - { offsetInCU: 0x15282, offset: 0x15282, size: 0x8, addend: 0x0, symName: __ZNSt3__118__unwrap_iter_implIPKfLb1EE8__unwrapB7v160006ES2_, symObjAddr: 0x9688, symBinAddr: 0x10000DCC4, symSize: 0x24 }
  - { offsetInCU: 0x152AA, offset: 0x152AA, size: 0x8, addend: 0x0, symName: __ZNSt3__14pairIPKfPfEC1B7v160006IRS2_S3_LPv0EEEOT_OT0_, symObjAddr: 0x977C, symBinAddr: 0x10000DDB8, symSize: 0x3C }
  - { offsetInCU: 0x15308, offset: 0x15308, size: 0x8, addend: 0x0, symName: __ZNSt3__14pairIPKfPfEC2B7v160006IRS2_S3_LPv0EEEOT_OT0_, symObjAddr: 0x97B8, symBinAddr: 0x10000DDF4, symSize: 0x34 }
  - { offsetInCU: 0x15366, offset: 0x15366, size: 0x8, addend: 0x0, symName: __ZNSt3__14pairIPKfPfEC1B7v160006IS2_S3_LPv0EEEOT_OT0_, symObjAddr: 0x97EC, symBinAddr: 0x10000DE28, symSize: 0x3C }
  - { offsetInCU: 0x153C4, offset: 0x153C4, size: 0x8, addend: 0x0, symName: __ZNSt3__14pairIPKfPfEC2B7v160006IS2_S3_LPv0EEEOT_OT0_, symObjAddr: 0x9828, symBinAddr: 0x10000DE64, symSize: 0x34 }
  - { offsetInCU: 0x15422, offset: 0x15422, size: 0x8, addend: 0x0, symName: __ZNSt3__118__unwrap_iter_implIPKfLb1EE8__rewrapB7v160006ES2_S2_, symObjAddr: 0x9898, symBinAddr: 0x10000DED4, symSize: 0x50 }
  - { offsetInCU: 0x1545D, offset: 0x1545D, size: 0x8, addend: 0x0, symName: __ZNSt3__114__split_bufferIfRNS_9allocatorIfEEE21_ConstructTransactionC1B7v160006EPPfm, symObjAddr: 0x98E8, symBinAddr: 0x10000DF24, symSize: 0x3C }
  - { offsetInCU: 0x154A3, offset: 0x154A3, size: 0x8, addend: 0x0, symName: __ZNSt3__114__split_bufferIfRNS_9allocatorIfEEE21_ConstructTransactionD1B7v160006Ev, symObjAddr: 0x9924, symBinAddr: 0x10000DF60, symSize: 0x2C }
  - { offsetInCU: 0x154CD, offset: 0x154CD, size: 0x8, addend: 0x0, symName: __ZNSt3__114__split_bufferIfRNS_9allocatorIfEEE21_ConstructTransactionC2B7v160006EPPfm, symObjAddr: 0x9950, symBinAddr: 0x10000DF8C, symSize: 0x44 }
  - { offsetInCU: 0x15513, offset: 0x15513, size: 0x8, addend: 0x0, symName: __ZNSt3__114__split_bufferIfRNS_9allocatorIfEEE21_ConstructTransactionD2B7v160006Ev, symObjAddr: 0x9994, symBinAddr: 0x10000DFD0, symSize: 0x20 }
  - { offsetInCU: 0x1553D, offset: 0x1553D, size: 0x8, addend: 0x0, symName: __ZNKSt3__114__move_trivialclB7v160006IffLi0EEENS_4pairIPT_PT0_EES4_S4_S6_, symObjAddr: 0x9B68, symBinAddr: 0x10000E1A4, symSize: 0x48 }
  - { offsetInCU: 0x155A5, offset: 0x155A5, size: 0x8, addend: 0x0, symName: __ZNSt3__14pairIPfS1_EC1B7v160006IRS1_S1_LPv0EEEOT_OT0_, symObjAddr: 0x9C6C, symBinAddr: 0x10000E2A8, symSize: 0x3C }
  - { offsetInCU: 0x15603, offset: 0x15603, size: 0x8, addend: 0x0, symName: __ZNSt3__14pairIPfS1_EC2B7v160006IRS1_S1_LPv0EEEOT_OT0_, symObjAddr: 0x9CA8, symBinAddr: 0x10000E2E4, symSize: 0x34 }
  - { offsetInCU: 0x1B98, offset: 0x173A3, size: 0x8, addend: 0x0, symName: __ZNSt3__125__throw_bad_function_callB7v160006Ev, symObjAddr: 0x13D8, symBinAddr: 0x10000EB6C, symSize: 0x38 }
  - { offsetInCU: 0x3F95, offset: 0x197A0, size: 0x8, addend: 0x0, symName: __ZN7ProgramC2Eii, symObjAddr: 0x0, symBinAddr: 0x10000E318, symSize: 0x2DC }
  - { offsetInCU: 0x3FFA, offset: 0x19805, size: 0x8, addend: 0x0, symName: __ZN7Program20GetOpenGLVersionInfoEv, symObjAddr: 0x324, symBinAddr: 0x10000E5F4, symSize: 0xC4 }
  - { offsetInCU: 0x4021, offset: 0x1982C, size: 0x8, addend: 0x0, symName: __ZN7ProgramC1Eii, symObjAddr: 0x3E8, symBinAddr: 0x10000E6B8, symSize: 0x3C }
  - { offsetInCU: 0x4069, offset: 0x19874, size: 0x8, addend: 0x0, symName: __ZN7ProgramD2Ev, symObjAddr: 0x424, symBinAddr: 0x10000E6F4, symSize: 0x64 }
  - { offsetInCU: 0x4095, offset: 0x198A0, size: 0x8, addend: 0x0, symName: __ZN7ProgramD1Ev, symObjAddr: 0x494, symBinAddr: 0x10000E758, symSize: 0x2C }
  - { offsetInCU: 0x40C2, offset: 0x198CD, size: 0x8, addend: 0x0, symName: __ZN7Program12HandleCameraER6Cameraf, symObjAddr: 0x4C0, symBinAddr: 0x10000E784, symSize: 0x100 }
  - { offsetInCU: 0x4114, offset: 0x1991F, size: 0x8, addend: 0x0, symName: __ZN7Program15SetLoopCallbackENSt3__18functionIFvR6CameraEEES3_, symObjAddr: 0x5C0, symBinAddr: 0x10000E884, symSize: 0x24C }
  - { offsetInCU: 0x41BD, offset: 0x199C8, size: 0x8, addend: 0x0, symName: __ZNKSt3__18functionIFvR6CameraEEclES2_, symObjAddr: 0x80C, symBinAddr: 0x10000EAD0, symSize: 0x2C }
  - { offsetInCU: 0x41F4, offset: 0x199FF, size: 0x8, addend: 0x0, symName: __ZN7Program12GetSDLWindowEv, symObjAddr: 0x838, symBinAddr: 0x10000EAFC, symSize: 0x18 }
  - { offsetInCU: 0x421C, offset: 0x19A27, size: 0x8, addend: 0x0, symName: __ZNKSt3__110__function12__value_funcIFvR6CameraEEclB7v160006ES3_, symObjAddr: 0x1380, symBinAddr: 0x10000EB14, symSize: 0x58 }
  - { offsetInCU: 0x4255, offset: 0x19A60, size: 0x8, addend: 0x0, symName: __ZNSt3__117bad_function_callC1Ev, symObjAddr: 0x1410, symBinAddr: 0x10000EBA4, symSize: 0x2C }
  - { offsetInCU: 0x4282, offset: 0x19A8D, size: 0x8, addend: 0x0, symName: __ZNSt3__117bad_function_callD1Ev, symObjAddr: 0x143C, symBinAddr: 0x10000EBD0, symSize: 0x2C }
  - { offsetInCU: 0x42AB, offset: 0x19AB6, size: 0x8, addend: 0x0, symName: __ZNSt3__117bad_function_callC2Ev, symObjAddr: 0x1468, symBinAddr: 0x10000EBFC, symSize: 0x44 }
  - { offsetInCU: 0x42D8, offset: 0x19AE3, size: 0x8, addend: 0x0, symName: __ZNSt9exceptionC2B7v160006Ev, symObjAddr: 0x14AC, symBinAddr: 0x10000EC40, symSize: 0x24 }
  - { offsetInCU: 0x4302, offset: 0x19B0D, size: 0x8, addend: 0x0, symName: __ZNSt3__117bad_function_callD0Ev, symObjAddr: 0x14D0, symBinAddr: 0x10000EC64, symSize: 0x30 }
  - { offsetInCU: 0x432C, offset: 0x19B37, size: 0x8, addend: 0x0, symName: __ZNSt3__117bad_function_callD2Ev, symObjAddr: 0x1500, symBinAddr: 0x10000EC94, symSize: 0x2C }
  - { offsetInCU: 0x186F, offset: 0x21C29, size: 0x8, addend: 0x0, symName: __ZN3glm6detail15component_countINS_5tvec3IfLNS_9precisionE0EEEEEiRKT_, symObjAddr: 0x2448, symBinAddr: 0x1000104FC, symSize: 0x24 }
  - { offsetInCU: 0x18A6, offset: 0x21C60, size: 0x8, addend: 0x0, symName: __ZN3glm6detail15component_countINS_5tvec4IfLNS_9precisionE0EEEEEiRKT_, symObjAddr: 0x2494, symBinAddr: 0x100010548, symSize: 0x24 }
  - { offsetInCU: 0x1936, offset: 0x21CF0, size: 0x8, addend: 0x0, symName: __ZN3glm9translateIfLNS_9precisionE0EEENS_7tmat4x4IT_XT0_EEERKS4_RKNS_5tvec3IS3_XT0_EEE, symObjAddr: 0x88C, symBinAddr: 0x10000F504, symSize: 0x2B0 }
  - { offsetInCU: 0x1992, offset: 0x21D4C, size: 0x8, addend: 0x0, symName: __ZN3glmplIfLNS_9precisionE0EEENS_5tvec4IT_XT0_EEERKS4_S6_, symObjAddr: 0x2068, symBinAddr: 0x10001011C, symSize: 0x88 }
  - { offsetInCU: 0x19E2, offset: 0x21D9C, size: 0x8, addend: 0x0, symName: __ZN3glmmlIfLNS_9precisionE0EEENS_5tvec4IT_XT0_EEERKS4_S3_, symObjAddr: 0x20F0, symBinAddr: 0x1000101A4, symSize: 0x78 }
  - { offsetInCU: 0x6BCE, offset: 0x26F88, size: 0x8, addend: 0x0, symName: __ZNSt3__14endlB7v160006IcNS_11char_traitsIcEEEERNS_13basic_ostreamIT_T0_EES7_, symObjAddr: 0x354, symBinAddr: 0x10000EFCC, symSize: 0x58 }
  - { offsetInCU: 0x9364, offset: 0x2971E, size: 0x8, addend: 0x0, symName: __ZN6RenderC2Ev, symObjAddr: 0x0, symBinAddr: 0x10000ECC0, symSize: 0x2E0 }
  - { offsetInCU: 0x93CE, offset: 0x29788, size: 0x8, addend: 0x0, symName: __ZNSt3__113basic_ostreamIcNS_11char_traitsIcEEElsB7v160006EPFRS3_S4_E, symObjAddr: 0x328, symBinAddr: 0x10000EFA0, symSize: 0x2C }
  - { offsetInCU: 0x9402, offset: 0x297BC, size: 0x8, addend: 0x0, symName: __ZN6RenderC1Ev, symObjAddr: 0x3AC, symBinAddr: 0x10000F024, symSize: 0x2C }
  - { offsetInCU: 0x942E, offset: 0x297E8, size: 0x8, addend: 0x0, symName: __ZN6Render11RenderSceneERKN3glm7tmat4x4IfLNS0_9precisionE0EEES5_, symObjAddr: 0x3D8, symBinAddr: 0x10000F050, symSize: 0x480 }
  - { offsetInCU: 0x9481, offset: 0x2983B, size: 0x8, addend: 0x0, symName: __ZN3glm7tmat4x4IfLNS_9precisionE0EEC1ERKf, symObjAddr: 0x858, symBinAddr: 0x10000F4D0, symSize: 0x34 }
  - { offsetInCU: 0x94BB, offset: 0x29875, size: 0x8, addend: 0x0, symName: __ZN3glm7tmat4x4IfLNS_9precisionE0EEaSERKS2_, symObjAddr: 0xB80, symBinAddr: 0x10000F7B4, symSize: 0x98 }
  - { offsetInCU: 0x94F2, offset: 0x298AC, size: 0x8, addend: 0x0, symName: __ZN3glm7tmat4x4IfLNS_9precisionE0EED1Ev, symObjAddr: 0xC18, symBinAddr: 0x10000F84C, symSize: 0x2C }
  - { offsetInCU: 0x951E, offset: 0x298D8, size: 0x8, addend: 0x0, symName: __ZN3glm7tmat4x4IfLNS_9precisionE0EEixEi, symObjAddr: 0xC44, symBinAddr: 0x10000F878, symSize: 0x78 }
  - { offsetInCU: 0x9555, offset: 0x2990F, size: 0x8, addend: 0x0, symName: __ZN3glm5tvec4IfLNS_9precisionE0EEixEi, symObjAddr: 0xCBC, symBinAddr: 0x10000F8F0, symSize: 0xA4 }
  - { offsetInCU: 0x958B, offset: 0x29945, size: 0x8, addend: 0x0, symName: __ZNK3glm7tmat4x4IfLNS_9precisionE0EEixEi, symObjAddr: 0xD60, symBinAddr: 0x10000F994, symSize: 0x78 }
  - { offsetInCU: 0x95C2, offset: 0x2997C, size: 0x8, addend: 0x0, symName: __ZNK3glm5tvec4IfLNS_9precisionE0EEixEi, symObjAddr: 0xDD8, symBinAddr: 0x10000FA0C, symSize: 0xA4 }
  - { offsetInCU: 0x95F8, offset: 0x299B2, size: 0x8, addend: 0x0, symName: __ZNK6Render16GetShaderProgramEv, symObjAddr: 0xE7C, symBinAddr: 0x10000FAB0, symSize: 0x18 }
  - { offsetInCU: 0x9620, offset: 0x299DA, size: 0x8, addend: 0x0, symName: __ZN3glm7tmat4x4IfLNS_9precisionE0EED2Ev, symObjAddr: 0xE94, symBinAddr: 0x10000FAC8, symSize: 0x64 }
  - { offsetInCU: 0x964D, offset: 0x29A07, size: 0x8, addend: 0x0, symName: __ZN3glm5tvec4IfLNS_9precisionE0EED1Ev, symObjAddr: 0xEF8, symBinAddr: 0x10000FB2C, symSize: 0x2C }
  - { offsetInCU: 0x9677, offset: 0x29A31, size: 0x8, addend: 0x0, symName: __ZN3glm5tvec4IfLNS_9precisionE0EED2Ev, symObjAddr: 0xF24, symBinAddr: 0x10000FB58, symSize: 0x14 }
  - { offsetInCU: 0x96BE, offset: 0x29A78, size: 0x8, addend: 0x0, symName: __ZN3glm7tmat4x4IfLNS_9precisionE0EEC2ERKf, symObjAddr: 0x1A74, symBinAddr: 0x10000FB6C, symSize: 0x270 }
  - { offsetInCU: 0x96F8, offset: 0x29AB2, size: 0x8, addend: 0x0, symName: __ZN3glm5tvec4IfLNS_9precisionE0EEC1Ev, symObjAddr: 0x1CE4, symBinAddr: 0x10000FDDC, symSize: 0x2C }
  - { offsetInCU: 0x9724, offset: 0x29ADE, size: 0x8, addend: 0x0, symName: __ZN3glm5tvec4IfLNS_9precisionE0EEC1IfiiiEET_T0_T1_T2_, symObjAddr: 0x1D10, symBinAddr: 0x10000FE08, symSize: 0x4C }
  - { offsetInCU: 0x97AC, offset: 0x29B66, size: 0x8, addend: 0x0, symName: __ZN3glm5tvec4IfLNS_9precisionE0EEaSERKS2_, symObjAddr: 0x1D5C, symBinAddr: 0x10000FE54, symSize: 0x48 }
  - { offsetInCU: 0x97E3, offset: 0x29B9D, size: 0x8, addend: 0x0, symName: __ZN3glm5tvec4IfLNS_9precisionE0EEC1IifiiEET_T0_T1_T2_, symObjAddr: 0x1DA4, symBinAddr: 0x10000FE9C, symSize: 0x4C }
  - { offsetInCU: 0x986B, offset: 0x29C25, size: 0x8, addend: 0x0, symName: __ZN3glm5tvec4IfLNS_9precisionE0EEC1IiifiEET_T0_T1_T2_, symObjAddr: 0x1DF0, symBinAddr: 0x10000FEE8, symSize: 0x4C }
  - { offsetInCU: 0x98F3, offset: 0x29CAD, size: 0x8, addend: 0x0, symName: __ZN3glm5tvec4IfLNS_9precisionE0EEC1IiiifEET_T0_T1_T2_, symObjAddr: 0x1E3C, symBinAddr: 0x10000FF34, symSize: 0x4C }
  - { offsetInCU: 0x997C, offset: 0x29D36, size: 0x8, addend: 0x0, symName: __ZN3glm5tvec4IfLNS_9precisionE0EEC2Ev, symObjAddr: 0x1E88, symBinAddr: 0x10000FF80, symSize: 0x28 }
  - { offsetInCU: 0x99A8, offset: 0x29D62, size: 0x8, addend: 0x0, symName: __ZN3glm5tvec4IfLNS_9precisionE0EEC2IfiiiEET_T0_T1_T2_, symObjAddr: 0x1EB0, symBinAddr: 0x10000FFA8, symSize: 0x50 }
  - { offsetInCU: 0x9A30, offset: 0x29DEA, size: 0x8, addend: 0x0, symName: __ZN3glm5tvec4IfLNS_9precisionE0EEC2IifiiEET_T0_T1_T2_, symObjAddr: 0x1F00, symBinAddr: 0x10000FFF8, symSize: 0x50 }
  - { offsetInCU: 0x9AB8, offset: 0x29E72, size: 0x8, addend: 0x0, symName: __ZN3glm5tvec4IfLNS_9precisionE0EEC2IiifiEET_T0_T1_T2_, symObjAddr: 0x1F50, symBinAddr: 0x100010048, symSize: 0x50 }
  - { offsetInCU: 0x9B40, offset: 0x29EFA, size: 0x8, addend: 0x0, symName: __ZN3glm5tvec4IfLNS_9precisionE0EEC2IiiifEET_T0_T1_T2_, symObjAddr: 0x1FA0, symBinAddr: 0x100010098, symSize: 0x50 }
  - { offsetInCU: 0x9BC7, offset: 0x29F81, size: 0x8, addend: 0x0, symName: __ZN3glm7tmat4x4IfLNS_9precisionE0EEC1ERKS2_, symObjAddr: 0x2034, symBinAddr: 0x1000100E8, symSize: 0x34 }
  - { offsetInCU: 0x9C01, offset: 0x29FBB, size: 0x8, addend: 0x0, symName: __ZNK3glm5tvec3IfLNS_9precisionE0EEixEi, symObjAddr: 0x2168, symBinAddr: 0x10001021C, symSize: 0xA4 }
  - { offsetInCU: 0x9C37, offset: 0x29FF1, size: 0x8, addend: 0x0, symName: __ZN3glm7tmat4x4IfLNS_9precisionE0EEC2ERKS2_, symObjAddr: 0x220C, symBinAddr: 0x1000102C0, symSize: 0x1AC }
  - { offsetInCU: 0x9C71, offset: 0x2A02B, size: 0x8, addend: 0x0, symName: __ZN3glm5tvec4IfLNS_9precisionE0EEC1Effff, symObjAddr: 0x23B8, symBinAddr: 0x10001046C, symSize: 0x4C }
  - { offsetInCU: 0x9CD6, offset: 0x2A090, size: 0x8, addend: 0x0, symName: __ZN3glm5tvec4IfLNS_9precisionE0EEC2Effff, symObjAddr: 0x2404, symBinAddr: 0x1000104B8, symSize: 0x44 }
  - { offsetInCU: 0x9D39, offset: 0x2A0F3, size: 0x8, addend: 0x0, symName: __ZNK3glm5tvec3IfLNS_9precisionE0EE6lengthEv, symObjAddr: 0x246C, symBinAddr: 0x100010520, symSize: 0x14 }
  - { offsetInCU: 0x9D62, offset: 0x2A11C, size: 0x8, addend: 0x0, symName: __ZNK3glm7tmat4x4IfLNS_9precisionE0EE6lengthEv, symObjAddr: 0x2480, symBinAddr: 0x100010534, symSize: 0x14 }
  - { offsetInCU: 0x9D8A, offset: 0x2A144, size: 0x8, addend: 0x0, symName: __ZNK3glm5tvec4IfLNS_9precisionE0EE6lengthEv, symObjAddr: 0x24B8, symBinAddr: 0x10001056C, symSize: 0x14 }
  - { offsetInCU: 0xD1D2, offset: 0x37366, size: 0x8, addend: 0x0, symName: __ZNSt3__112__to_addressB7v160006IKcEEPT_S3_, symObjAddr: 0x1888, symBinAddr: 0x1000119F4, symSize: 0x14 }
  - { offsetInCU: 0xD23A, offset: 0x373CE, size: 0x8, addend: 0x0, symName: __ZNSt3__122__make_exception_guardB7v160006INS_6vectorIcNS_9allocatorIcEEE16__destroy_vectorEEENS_28__exception_guard_exceptionsIT_EES7_, symObjAddr: 0x2634, symBinAddr: 0x100011E84, symSize: 0x40 }
  - { offsetInCU: 0xD26F, offset: 0x37403, size: 0x8, addend: 0x0, symName: __ZNSt3__119__debug_db_insert_cB7v160006INS_6vectorIcNS_9allocatorIcEEEEEEvPT_, symObjAddr: 0x26A8, symBinAddr: 0x100011EF8, symSize: 0x10 }
  - { offsetInCU: 0xD2A0, offset: 0x37434, size: 0x8, addend: 0x0, symName: __ZNSt3__119__allocate_at_leastB7v160006INS_9allocatorIcEEEENS_19__allocation_resultINS_16allocator_traitsIT_E7pointerEEERS5_m, symObjAddr: 0x29C4, symBinAddr: 0x100012214, symSize: 0x40 }
  - { offsetInCU: 0xD2E3, offset: 0x37477, size: 0x8, addend: 0x0, symName: __ZNSt3__118__debug_db_erase_cB7v160006INS_6vectorIcNS_9allocatorIcEEEEEEvPT_, symObjAddr: 0x327C, symBinAddr: 0x100012834, symSize: 0x10 }
  - { offsetInCU: 0xFBD9, offset: 0x39D6D, size: 0x8, addend: 0x0, symName: __ZN6Shader11LoadShadersEPKcS1_, symObjAddr: 0x0, symBinAddr: 0x100010580, symSize: 0xA54 }
  - { offsetInCU: 0xFD82, offset: 0x39F16, size: 0x8, addend: 0x0, symName: __ZNSt3__112basic_stringIcNS_11char_traitsIcEENS_9allocatorIcEEEC1B7v160006Ev, symObjAddr: 0xA54, symBinAddr: 0x100010FD4, symSize: 0x2C }
  - { offsetInCU: 0xFE52, offset: 0x39FE6, size: 0x8, addend: 0x0, symName: __ZNSt3__114basic_ifstreamIcNS_11char_traitsIcEEEC1EPKcj, symObjAddr: 0xA80, symBinAddr: 0x100011000, symSize: 0x16C }
  - { offsetInCU: 0xFE9C, offset: 0x3A030, size: 0x8, addend: 0x0, symName: __ZNKSt3__114basic_ifstreamIcNS_11char_traitsIcEEE7is_openEv, symObjAddr: 0xBEC, symBinAddr: 0x10001116C, symSize: 0x2C }
  - { offsetInCU: 0xFF26, offset: 0x3A0BA, size: 0x8, addend: 0x0, symName: __ZNSt3__118basic_stringstreamIcNS_11char_traitsIcEENS_9allocatorIcEEEC1B7v160006Ev, symObjAddr: 0xC18, symBinAddr: 0x100011198, symSize: 0x104 }
  - { offsetInCU: 0xFF50, offset: 0x3A0E4, size: 0x8, addend: 0x0, symName: __ZNKSt3__114basic_ifstreamIcNS_11char_traitsIcEEE5rdbufEv, symObjAddr: 0xD1C, symBinAddr: 0x10001129C, symSize: 0x18 }
  - { offsetInCU: 0xFF78, offset: 0x3A10C, size: 0x8, addend: 0x0, symName: __ZNKSt3__118basic_stringstreamIcNS_11char_traitsIcEENS_9allocatorIcEEE3strB7v160006Ev, symObjAddr: 0xD34, symBinAddr: 0x1000112B4, symSize: 0x30 }
  - { offsetInCU: 0xFF9E, offset: 0x3A132, size: 0x8, addend: 0x0, symName: __ZNSt3__112basic_stringIcNS_11char_traitsIcEENS_9allocatorIcEEEaSB7v160006EOS5_, symObjAddr: 0xD64, symBinAddr: 0x1000112E4, symSize: 0x34 }
  - { offsetInCU: 0xFFD3, offset: 0x3A167, size: 0x8, addend: 0x0, symName: __ZNSt3__114basic_ifstreamIcNS_11char_traitsIcEEE5closeEv, symObjAddr: 0xD98, symBinAddr: 0x100011318, symSize: 0x58 }
  - { offsetInCU: 0x10000, offset: 0x3A194, size: 0x8, addend: 0x0, symName: __ZNSt3__118basic_stringstreamIcNS_11char_traitsIcEENS_9allocatorIcEEED1Ev, symObjAddr: 0xDF0, symBinAddr: 0x100011370, symSize: 0x40 }
  - { offsetInCU: 0x1002D, offset: 0x3A1C1, size: 0x8, addend: 0x0, symName: __ZNKSt3__112basic_stringIcNS_11char_traitsIcEENS_9allocatorIcEEE5c_strB7v160006Ev, symObjAddr: 0xE78, symBinAddr: 0x1000113B0, symSize: 0x24 }
  - { offsetInCU: 0x10053, offset: 0x3A1E7, size: 0x8, addend: 0x0, symName: __ZNSt3__16vectorIcNS_9allocatorIcEEEC1Em, symObjAddr: 0xE9C, symBinAddr: 0x1000113D4, symSize: 0x34 }
  - { offsetInCU: 0x1008E, offset: 0x3A222, size: 0x8, addend: 0x0, symName: __ZNSt3__16vectorIcNS_9allocatorIcEEEixB7v160006Em, symObjAddr: 0xED0, symBinAddr: 0x100011408, symSize: 0x24 }
  - { offsetInCU: 0x100C5, offset: 0x3A259, size: 0x8, addend: 0x0, symName: __ZNSt3__16vectorIcNS_9allocatorIcEEED1B7v160006Ev, symObjAddr: 0xEF4, symBinAddr: 0x10001142C, symSize: 0x2C }
  - { offsetInCU: 0x100EF, offset: 0x3A283, size: 0x8, addend: 0x0, symName: __ZNSt3__16vectorIcNS_9allocatorIcEEE4dataB7v160006Ev, symObjAddr: 0xFA4, symBinAddr: 0x100011458, symSize: 0x28 }
  - { offsetInCU: 0x1011A, offset: 0x3A2AE, size: 0x8, addend: 0x0, symName: __ZNSt3__114basic_ifstreamIcNS_11char_traitsIcEEED1Ev, symObjAddr: 0xFCC, symBinAddr: 0x100011480, symSize: 0x40 }
  - { offsetInCU: 0x10147, offset: 0x3A2DB, size: 0x8, addend: 0x0, symName: __ZNSt3__118basic_stringstreamIcNS_11char_traitsIcEENS_9allocatorIcEEED2Ev, symObjAddr: 0x100C, symBinAddr: 0x1000114C0, symSize: 0x6C }
  - { offsetInCU: 0x10181, offset: 0x3A315, size: 0x8, addend: 0x0, symName: __ZThn16_NSt3__118basic_stringstreamIcNS_11char_traitsIcEENS_9allocatorIcEEED1Ev, symObjAddr: 0x1078, symBinAddr: 0x10001152C, symSize: 0x1C }
  - { offsetInCU: 0x10198, offset: 0x3A32C, size: 0x8, addend: 0x0, symName: __ZTv0_n24_NSt3__118basic_stringstreamIcNS_11char_traitsIcEENS_9allocatorIcEEED1Ev, symObjAddr: 0x1094, symBinAddr: 0x100011548, symSize: 0x28 }
  - { offsetInCU: 0x101B4, offset: 0x3A348, size: 0x8, addend: 0x0, symName: __ZNSt3__115basic_stringbufIcNS_11char_traitsIcEENS_9allocatorIcEEED1Ev, symObjAddr: 0x10BC, symBinAddr: 0x100011570, symSize: 0x2C }
  - { offsetInCU: 0x101E1, offset: 0x3A375, size: 0x8, addend: 0x0, symName: __ZNSt3__115basic_stringbufIcNS_11char_traitsIcEENS_9allocatorIcEEED2Ev, symObjAddr: 0x10E8, symBinAddr: 0x10001159C, symSize: 0x48 }
  - { offsetInCU: 0x1020E, offset: 0x3A3A2, size: 0x8, addend: 0x0, symName: __ZNSt3__114basic_ifstreamIcNS_11char_traitsIcEEED2Ev, symObjAddr: 0x1130, symBinAddr: 0x1000115E4, symSize: 0x64 }
  - { offsetInCU: 0x10248, offset: 0x3A3DC, size: 0x8, addend: 0x0, symName: __ZTv0_n24_NSt3__114basic_ifstreamIcNS_11char_traitsIcEEED1Ev, symObjAddr: 0x1194, symBinAddr: 0x100011648, symSize: 0x28 }
  - { offsetInCU: 0x1025F, offset: 0x3A3F3, size: 0x8, addend: 0x0, symName: __ZNSt3__112basic_stringIcNS_11char_traitsIcEENS_9allocatorIcEEEC2B7v160006Ev, symObjAddr: 0x11BC, symBinAddr: 0x100011670, symSize: 0x54 }
  - { offsetInCU: 0x1028F, offset: 0x3A423, size: 0x8, addend: 0x0, symName: __ZNSt3__112basic_stringIcNS_11char_traitsIcEENS_9allocatorIcEEE14__default_initB7v160006Ev, symObjAddr: 0x1268, symBinAddr: 0x1000116C4, symSize: 0x40 }
  - { offsetInCU: 0x102B5, offset: 0x3A449, size: 0x8, addend: 0x0, symName: __ZNSt3__112basic_stringIcNS_11char_traitsIcEENS_9allocatorIcEEE13__move_assignB7v160006ERS5_NS_17integral_constantIbLb1EEE, symObjAddr: 0x139C, symBinAddr: 0x100011704, symSize: 0xC8 }
  - { offsetInCU: 0x102F7, offset: 0x3A48B, size: 0x8, addend: 0x0, symName: __ZNSt3__116allocator_traitsINS_9allocatorIcEEE10deallocateB7v160006ERS2_Pcm, symObjAddr: 0x149C, symBinAddr: 0x1000117CC, symSize: 0x34 }
  - { offsetInCU: 0x10339, offset: 0x3A4CD, size: 0x8, addend: 0x0, symName: __ZNSt3__112basic_stringIcNS_11char_traitsIcEENS_9allocatorIcEEE7__allocB7v160006Ev, symObjAddr: 0x14D0, symBinAddr: 0x100011800, symSize: 0x24 }
  - { offsetInCU: 0x1035F, offset: 0x3A4F3, size: 0x8, addend: 0x0, symName: __ZNKSt3__112basic_stringIcNS_11char_traitsIcEENS_9allocatorIcEEE14__get_long_capB7v160006Ev, symObjAddr: 0x151C, symBinAddr: 0x100011824, symSize: 0x30 }
  - { offsetInCU: 0x10385, offset: 0x3A519, size: 0x8, addend: 0x0, symName: __ZNSt3__112basic_stringIcNS_11char_traitsIcEENS_9allocatorIcEEE19__move_assign_allocB7v160006ERS5_, symObjAddr: 0x154C, symBinAddr: 0x100011854, symSize: 0x2C }
  - { offsetInCU: 0x103BA, offset: 0x3A54E, size: 0x8, addend: 0x0, symName: __ZNSt3__112basic_stringIcNS_11char_traitsIcEENS_9allocatorIcEEE16__set_short_sizeB7v160006Em, symObjAddr: 0x1578, symBinAddr: 0x100011880, symSize: 0x78 }
  - { offsetInCU: 0x103EF, offset: 0x3A583, size: 0x8, addend: 0x0, symName: __ZNSt3__111char_traitsIcE6assignERcRKc, symObjAddr: 0x15F0, symBinAddr: 0x1000118F8, symSize: 0x24 }
  - { offsetInCU: 0x10420, offset: 0x3A5B4, size: 0x8, addend: 0x0, symName: __ZNSt3__19allocatorIcE10deallocateB7v160006EPcm, symObjAddr: 0x1674, symBinAddr: 0x10001191C, symSize: 0x40 }
  - { offsetInCU: 0x10462, offset: 0x3A5F6, size: 0x8, addend: 0x0, symName: __ZNSt3__117__compressed_pairINS_12basic_stringIcNS_11char_traitsIcEENS_9allocatorIcEEE5__repES5_E6secondB7v160006Ev, symObjAddr: 0x17DC, symBinAddr: 0x10001195C, symSize: 0x24 }
  - { offsetInCU: 0x10488, offset: 0x3A61C, size: 0x8, addend: 0x0, symName: __ZNSt3__122__compressed_pair_elemINS_9allocatorIcEELi1ELb1EE5__getB7v160006Ev, symObjAddr: 0x1800, symBinAddr: 0x100011980, symSize: 0x14 }
  - { offsetInCU: 0x104AE, offset: 0x3A642, size: 0x8, addend: 0x0, symName: __ZNSt3__112basic_stringIcNS_11char_traitsIcEENS_9allocatorIcEEE19__move_assign_allocB7v160006ERS5_NS_17integral_constantIbLb1EEE, symObjAddr: 0x1814, symBinAddr: 0x100011994, symSize: 0x38 }
  - { offsetInCU: 0x104EE, offset: 0x3A682, size: 0x8, addend: 0x0, symName: __ZNKSt3__112basic_stringIcNS_11char_traitsIcEENS_9allocatorIcEEE4dataB7v160006Ev, symObjAddr: 0x1860, symBinAddr: 0x1000119CC, symSize: 0x28 }
  - { offsetInCU: 0x10514, offset: 0x3A6A8, size: 0x8, addend: 0x0, symName: __ZNKSt3__112basic_stringIcNS_11char_traitsIcEENS_9allocatorIcEEE13__get_pointerB7v160006Ev, symObjAddr: 0x189C, symBinAddr: 0x100011A08, symSize: 0x54 }
  - { offsetInCU: 0x1053A, offset: 0x3A6CE, size: 0x8, addend: 0x0, symName: __ZNKSt3__112basic_stringIcNS_11char_traitsIcEENS_9allocatorIcEEE18__get_long_pointerB7v160006Ev, symObjAddr: 0x18F0, symBinAddr: 0x100011A5C, symSize: 0x28 }
  - { offsetInCU: 0x10560, offset: 0x3A6F4, size: 0x8, addend: 0x0, symName: __ZNKSt3__112basic_stringIcNS_11char_traitsIcEENS_9allocatorIcEEE19__get_short_pointerB7v160006Ev, symObjAddr: 0x1918, symBinAddr: 0x100011A84, symSize: 0x28 }
  - { offsetInCU: 0x10586, offset: 0x3A71A, size: 0x8, addend: 0x0, symName: __ZNSt3__114pointer_traitsIPKcE10pointer_toB7v160006ERS1_, symObjAddr: 0x1940, symBinAddr: 0x100011AAC, symSize: 0x14 }
  - { offsetInCU: 0x105A9, offset: 0x3A73D, size: 0x8, addend: 0x0, symName: __ZNSt3__19basic_iosIcNS_11char_traitsIcEEEC2B7v160006Ev, symObjAddr: 0x1954, symBinAddr: 0x100011AC0, symSize: 0x44 }
  - { offsetInCU: 0x105D3, offset: 0x3A767, size: 0x8, addend: 0x0, symName: __ZNSt3__113basic_istreamIcNS_11char_traitsIcEEEC2B7v160006EPNS_15basic_streambufIcS2_EE, symObjAddr: 0x1998, symBinAddr: 0x100011B04, symSize: 0x64 }
  - { offsetInCU: 0x10618, offset: 0x3A7AC, size: 0x8, addend: 0x0, symName: __ZNSt3__18ios_baseC2B7v160006Ev, symObjAddr: 0x1A28, symBinAddr: 0x100011B68, symSize: 0x24 }
  - { offsetInCU: 0x10642, offset: 0x3A7D6, size: 0x8, addend: 0x0, symName: __ZNSt3__19basic_iosIcNS_11char_traitsIcEEE4initB7v160006EPNS_15basic_streambufIcS2_EE, symObjAddr: 0x1A4C, symBinAddr: 0x100011B8C, symSize: 0x44 }
  - { offsetInCU: 0x10679, offset: 0x3A80D, size: 0x8, addend: 0x0, symName: __ZNKSt3__113basic_filebufIcNS_11char_traitsIcEEE7is_openEv, symObjAddr: 0x1ACC, symBinAddr: 0x100011BD0, symSize: 0x24 }
  - { offsetInCU: 0x106A1, offset: 0x3A835, size: 0x8, addend: 0x0, symName: __ZNSt3__114basic_iostreamIcNS_11char_traitsIcEEEC2B7v160006EPNS_15basic_streambufIcS2_EE, symObjAddr: 0x1AF0, symBinAddr: 0x100011BF4, symSize: 0xAC }
  - { offsetInCU: 0x106E7, offset: 0x3A87B, size: 0x8, addend: 0x0, symName: __ZNSt3__115basic_stringbufIcNS_11char_traitsIcEENS_9allocatorIcEEEC1B7v160006Ej, symObjAddr: 0x1B9C, symBinAddr: 0x100011CA0, symSize: 0x34 }
  - { offsetInCU: 0x1071F, offset: 0x3A8B3, size: 0x8, addend: 0x0, symName: __ZNSt3__113basic_ostreamIcNS_11char_traitsIcEEEC2B7v160006Ev, symObjAddr: 0x1BD0, symBinAddr: 0x100011CD4, symSize: 0x34 }
  - { offsetInCU: 0x10756, offset: 0x3A8EA, size: 0x8, addend: 0x0, symName: __ZNSt3__115basic_stringbufIcNS_11char_traitsIcEENS_9allocatorIcEEEC2B7v160006Ej, symObjAddr: 0x1C04, symBinAddr: 0x100011D08, symSize: 0x60 }
  - { offsetInCU: 0x107AC, offset: 0x3A940, size: 0x8, addend: 0x0, symName: __ZNSt3__16vectorIcNS_9allocatorIcEEEC2Em, symObjAddr: 0x2518, symBinAddr: 0x100011D68, symSize: 0xE0 }
  - { offsetInCU: 0x10802, offset: 0x3A996, size: 0x8, addend: 0x0, symName: __ZNSt3__117__compressed_pairIPcNS_9allocatorIcEEEC1B7v160006IDnNS_18__default_init_tagEEEOT_OT0_, symObjAddr: 0x25F8, symBinAddr: 0x100011E48, symSize: 0x3C }
  - { offsetInCU: 0x1085A, offset: 0x3A9EE, size: 0x8, addend: 0x0, symName: __ZNSt3__16vectorIcNS_9allocatorIcEEE16__destroy_vectorC1ERS3_, symObjAddr: 0x2674, symBinAddr: 0x100011EC4, symSize: 0x34 }
  - { offsetInCU: 0x10893, offset: 0x3AA27, size: 0x8, addend: 0x0, symName: __ZNSt3__16vectorIcNS_9allocatorIcEEE11__vallocateB7v160006Em, symObjAddr: 0x26B8, symBinAddr: 0x100011F08, symSize: 0xAC }
  - { offsetInCU: 0x108D7, offset: 0x3AA6B, size: 0x8, addend: 0x0, symName: __ZNSt3__16vectorIcNS_9allocatorIcEEE18__construct_at_endEm, symObjAddr: 0x2764, symBinAddr: 0x100011FB4, symSize: 0xC8 }
  - { offsetInCU: 0x10949, offset: 0x3AADD, size: 0x8, addend: 0x0, symName: __ZNSt3__128__exception_guard_exceptionsINS_6vectorIcNS_9allocatorIcEEE16__destroy_vectorEE10__completeB7v160006Ev, symObjAddr: 0x282C, symBinAddr: 0x10001207C, symSize: 0x1C }
  - { offsetInCU: 0x1096F, offset: 0x3AB03, size: 0x8, addend: 0x0, symName: __ZNSt3__128__exception_guard_exceptionsINS_6vectorIcNS_9allocatorIcEEE16__destroy_vectorEED1B7v160006Ev, symObjAddr: 0x2848, symBinAddr: 0x100012098, symSize: 0x2C }
  - { offsetInCU: 0x10999, offset: 0x3AB2D, size: 0x8, addend: 0x0, symName: __ZNSt3__117__compressed_pairIPcNS_9allocatorIcEEEC2B7v160006IDnNS_18__default_init_tagEEEOT_OT0_, symObjAddr: 0x2874, symBinAddr: 0x1000120C4, symSize: 0x40 }
  - { offsetInCU: 0x109F1, offset: 0x3AB85, size: 0x8, addend: 0x0, symName: __ZNSt3__122__compressed_pair_elemIPcLi0ELb0EEC2B7v160006IDnvEEOT_, symObjAddr: 0x28B4, symBinAddr: 0x100012104, symSize: 0x1C }
  - { offsetInCU: 0x10A33, offset: 0x3ABC7, size: 0x8, addend: 0x0, symName: __ZNSt3__128__exception_guard_exceptionsINS_6vectorIcNS_9allocatorIcEEE16__destroy_vectorEEC1B7v160006ES5_, symObjAddr: 0x28D0, symBinAddr: 0x100012120, symSize: 0x34 }
  - { offsetInCU: 0x10A6B, offset: 0x3ABFF, size: 0x8, addend: 0x0, symName: __ZNSt3__128__exception_guard_exceptionsINS_6vectorIcNS_9allocatorIcEEE16__destroy_vectorEEC2B7v160006ES5_, symObjAddr: 0x2904, symBinAddr: 0x100012154, symSize: 0x24 }
  - { offsetInCU: 0x10AA3, offset: 0x3AC37, size: 0x8, addend: 0x0, symName: __ZNSt3__16vectorIcNS_9allocatorIcEEE16__destroy_vectorC2ERS3_, symObjAddr: 0x2928, symBinAddr: 0x100012178, symSize: 0x20 }
  - { offsetInCU: 0x10ADC, offset: 0x3AC70, size: 0x8, addend: 0x0, symName: __ZNKSt3__16vectorIcNS_9allocatorIcEEE8max_sizeEv, symObjAddr: 0x2948, symBinAddr: 0x100012198, symSize: 0x60 }
  - { offsetInCU: 0x10B04, offset: 0x3AC98, size: 0x8, addend: 0x0, symName: __ZNKSt3__16vectorIcNS_9allocatorIcEEE20__throw_length_errorB7v160006Ev, symObjAddr: 0x29A8, symBinAddr: 0x1000121F8, symSize: 0x1C }
  - { offsetInCU: 0x10B2A, offset: 0x3ACBE, size: 0x8, addend: 0x0, symName: __ZNSt3__16vectorIcNS_9allocatorIcEEE7__allocB7v160006Ev, symObjAddr: 0x2A04, symBinAddr: 0x100012254, symSize: 0x28 }
  - { offsetInCU: 0x10B50, offset: 0x3ACE4, size: 0x8, addend: 0x0, symName: __ZNSt3__16vectorIcNS_9allocatorIcEEE9__end_capB7v160006Ev, symObjAddr: 0x2A2C, symBinAddr: 0x10001227C, symSize: 0x28 }
  - { offsetInCU: 0x10B76, offset: 0x3AD0A, size: 0x8, addend: 0x0, symName: __ZNKSt3__16vectorIcNS_9allocatorIcEEE14__annotate_newB7v160006Em, symObjAddr: 0x2A54, symBinAddr: 0x1000122A4, symSize: 0xAC }
  - { offsetInCU: 0x10BB5, offset: 0x3AD49, size: 0x8, addend: 0x0, symName: __ZNSt3__116allocator_traitsINS_9allocatorIcEEE8max_sizeB7v160006IS2_vEEmRKS2_, symObjAddr: 0x2B2C, symBinAddr: 0x100012350, symSize: 0x24 }
  - { offsetInCU: 0x10BE3, offset: 0x3AD77, size: 0x8, addend: 0x0, symName: __ZNKSt3__16vectorIcNS_9allocatorIcEEE7__allocB7v160006Ev, symObjAddr: 0x2B50, symBinAddr: 0x100012374, symSize: 0x28 }
  - { offsetInCU: 0x10C09, offset: 0x3AD9D, size: 0x8, addend: 0x0, symName: __ZNKSt3__19allocatorIcE8max_sizeB7v160006Ev, symObjAddr: 0x2C14, symBinAddr: 0x10001239C, symSize: 0x14 }
  - { offsetInCU: 0x10C2F, offset: 0x3ADC3, size: 0x8, addend: 0x0, symName: __ZNKSt3__117__compressed_pairIPcNS_9allocatorIcEEE6secondB7v160006Ev, symObjAddr: 0x2C28, symBinAddr: 0x1000123B0, symSize: 0x24 }
  - { offsetInCU: 0x10C55, offset: 0x3ADE9, size: 0x8, addend: 0x0, symName: __ZNKSt3__122__compressed_pair_elemINS_9allocatorIcEELi1ELb1EE5__getB7v160006Ev, symObjAddr: 0x2C4C, symBinAddr: 0x1000123D4, symSize: 0x14 }
  - { offsetInCU: 0x10C7B, offset: 0x3AE0F, size: 0x8, addend: 0x0, symName: __ZNSt3__19allocatorIcE8allocateB7v160006Em, symObjAddr: 0x2D4C, symBinAddr: 0x1000123E8, symSize: 0x58 }
  - { offsetInCU: 0x10CAF, offset: 0x3AE43, size: 0x8, addend: 0x0, symName: __ZNSt3__117__compressed_pairIPcNS_9allocatorIcEEE6secondB7v160006Ev, symObjAddr: 0x2E88, symBinAddr: 0x100012440, symSize: 0x24 }
  - { offsetInCU: 0x10CD5, offset: 0x3AE69, size: 0x8, addend: 0x0, symName: __ZNSt3__117__compressed_pairIPcNS_9allocatorIcEEE5firstB7v160006Ev, symObjAddr: 0x2EAC, symBinAddr: 0x100012464, symSize: 0x24 }
  - { offsetInCU: 0x10CFB, offset: 0x3AE8F, size: 0x8, addend: 0x0, symName: __ZNSt3__122__compressed_pair_elemIPcLi0ELb0EE5__getB7v160006Ev, symObjAddr: 0x2ED0, symBinAddr: 0x100012488, symSize: 0x14 }
  - { offsetInCU: 0x10D21, offset: 0x3AEB5, size: 0x8, addend: 0x0, symName: __ZNKSt3__16vectorIcNS_9allocatorIcEEE31__annotate_contiguous_containerB7v160006EPKvS5_S5_S5_, symObjAddr: 0x2EE4, symBinAddr: 0x10001249C, symSize: 0x20 }
  - { offsetInCU: 0x10D73, offset: 0x3AF07, size: 0x8, addend: 0x0, symName: __ZNKSt3__16vectorIcNS_9allocatorIcEEE4dataB7v160006Ev, symObjAddr: 0x2F04, symBinAddr: 0x1000124BC, symSize: 0x28 }
  - { offsetInCU: 0x10D99, offset: 0x3AF2D, size: 0x8, addend: 0x0, symName: __ZNKSt3__16vectorIcNS_9allocatorIcEEE8capacityB7v160006Ev, symObjAddr: 0x2F2C, symBinAddr: 0x1000124E4, symSize: 0x38 }
  - { offsetInCU: 0x10DBF, offset: 0x3AF53, size: 0x8, addend: 0x0, symName: __ZNKSt3__16vectorIcNS_9allocatorIcEEE9__end_capB7v160006Ev, symObjAddr: 0x2F64, symBinAddr: 0x10001251C, symSize: 0x28 }
  - { offsetInCU: 0x10DE5, offset: 0x3AF79, size: 0x8, addend: 0x0, symName: __ZNKSt3__117__compressed_pairIPcNS_9allocatorIcEEE5firstB7v160006Ev, symObjAddr: 0x2F8C, symBinAddr: 0x100012544, symSize: 0x24 }
  - { offsetInCU: 0x10E0B, offset: 0x3AF9F, size: 0x8, addend: 0x0, symName: __ZNKSt3__122__compressed_pair_elemIPcLi0ELb0EE5__getB7v160006Ev, symObjAddr: 0x2FB0, symBinAddr: 0x100012568, symSize: 0x14 }
  - { offsetInCU: 0x10E4A, offset: 0x3AFDE, size: 0x8, addend: 0x0, symName: __ZNSt3__16vectorIcNS_9allocatorIcEEE21_ConstructTransactionC1B7v160006ERS3_m, symObjAddr: 0x2FC4, symBinAddr: 0x10001257C, symSize: 0x3C }
  - { offsetInCU: 0x10E92, offset: 0x3B026, size: 0x8, addend: 0x0, symName: __ZNSt3__116allocator_traitsINS_9allocatorIcEEE9constructB7v160006IcJEvEEvRS2_PT_DpOT0_, symObjAddr: 0x3000, symBinAddr: 0x1000125B8, symSize: 0x2C }
  - { offsetInCU: 0x10ED4, offset: 0x3B068, size: 0x8, addend: 0x0, symName: __ZNSt3__16vectorIcNS_9allocatorIcEEE21_ConstructTransactionD1B7v160006Ev, symObjAddr: 0x302C, symBinAddr: 0x1000125E4, symSize: 0x2C }
  - { offsetInCU: 0x10EFE, offset: 0x3B092, size: 0x8, addend: 0x0, symName: __ZNSt3__16vectorIcNS_9allocatorIcEEE21_ConstructTransactionC2B7v160006ERS3_m, symObjAddr: 0x3058, symBinAddr: 0x100012610, symSize: 0x44 }
  - { offsetInCU: 0x10F46, offset: 0x3B0DA, size: 0x8, addend: 0x0, symName: __ZNSt3__19allocatorIcE9constructB7v160006IcJEEEvPT_DpOT0_, symObjAddr: 0x309C, symBinAddr: 0x100012654, symSize: 0x1C }
  - { offsetInCU: 0x10F88, offset: 0x3B11C, size: 0x8, addend: 0x0, symName: __ZNSt3__16vectorIcNS_9allocatorIcEEE21_ConstructTransactionD2B7v160006Ev, symObjAddr: 0x30B8, symBinAddr: 0x100012670, symSize: 0x20 }
  - { offsetInCU: 0x10FB2, offset: 0x3B146, size: 0x8, addend: 0x0, symName: __ZNSt3__128__exception_guard_exceptionsINS_6vectorIcNS_9allocatorIcEEE16__destroy_vectorEED2B7v160006Ev, symObjAddr: 0x30D8, symBinAddr: 0x100012690, symSize: 0x50 }
  - { offsetInCU: 0x10FDC, offset: 0x3B170, size: 0x8, addend: 0x0, symName: __ZNSt3__16vectorIcNS_9allocatorIcEEE16__destroy_vectorclB7v160006Ev, symObjAddr: 0x3128, symBinAddr: 0x1000126E0, symSize: 0x9C }
  - { offsetInCU: 0x11002, offset: 0x3B196, size: 0x8, addend: 0x0, symName: __ZNKSt3__16vectorIcNS_9allocatorIcEEE17__annotate_deleteB7v160006Ev, symObjAddr: 0x31C4, symBinAddr: 0x10001277C, symSize: 0xB8 }
  - { offsetInCU: 0x11028, offset: 0x3B1BC, size: 0x8, addend: 0x0, symName: __ZNSt3__16vectorIcNS_9allocatorIcEEE7__clearB7v160006Ev, symObjAddr: 0x328C, symBinAddr: 0x100012844, symSize: 0x28 }
  - { offsetInCU: 0x1104E, offset: 0x3B1E2, size: 0x8, addend: 0x0, symName: __ZNKSt3__16vectorIcNS_9allocatorIcEEE4sizeB7v160006Ev, symObjAddr: 0x32B4, symBinAddr: 0x10001286C, symSize: 0x20 }
  - { offsetInCU: 0x11074, offset: 0x3B208, size: 0x8, addend: 0x0, symName: __ZNSt3__16vectorIcNS_9allocatorIcEEE22__base_destruct_at_endB7v160006EPc, symObjAddr: 0x32D4, symBinAddr: 0x10001288C, symSize: 0x8C }
  - { offsetInCU: 0x110B8, offset: 0x3B24C, size: 0x8, addend: 0x0, symName: __ZNSt3__116allocator_traitsINS_9allocatorIcEEE7destroyB7v160006IcvEEvRS2_PT_, symObjAddr: 0x3360, symBinAddr: 0x100012918, symSize: 0x2C }
  - { offsetInCU: 0x110F5, offset: 0x3B289, size: 0x8, addend: 0x0, symName: __ZNSt3__19allocatorIcE7destroyB7v160006EPc, symObjAddr: 0x338C, symBinAddr: 0x100012944, symSize: 0x14 }
  - { offsetInCU: 0x11129, offset: 0x3B2BD, size: 0x8, addend: 0x0, symName: __ZNSt3__16vectorIcNS_9allocatorIcEEED2B7v160006Ev, symObjAddr: 0x33A0, symBinAddr: 0x100012958, symSize: 0x44 }
  - { offsetInCU: 0x2A1F, offset: 0x3DD79, size: 0x8, addend: 0x0, symName: __ZN6VertexC2Ev, symObjAddr: 0x0, symBinAddr: 0x10001299C, symSize: 0x18 }
  - { offsetInCU: 0x2A4B, offset: 0x3DDA5, size: 0x8, addend: 0x0, symName: __ZN6VertexC1Ev, symObjAddr: 0x18, symBinAddr: 0x1000129B4, symSize: 0x2C }
  - { offsetInCU: 0x2A77, offset: 0x3DDD1, size: 0x8, addend: 0x0, symName: __ZN6VertexD2Ev, symObjAddr: 0x44, symBinAddr: 0x1000129E0, symSize: 0x68 }
  - { offsetInCU: 0x2AA3, offset: 0x3DDFD, size: 0x8, addend: 0x0, symName: __ZN6VertexD1Ev, symObjAddr: 0xB8, symBinAddr: 0x100012A48, symSize: 0x2C }
  - { offsetInCU: 0x2ACF, offset: 0x3DE29, size: 0x8, addend: 0x0, symName: __ZN6Vertex4BindEv, symObjAddr: 0xE4, symBinAddr: 0x100012A74, symSize: 0x54 }
  - { offsetInCU: 0x2AF7, offset: 0x3DE51, size: 0x8, addend: 0x0, symName: __ZN6Vertex6UnbindEv, symObjAddr: 0x138, symBinAddr: 0x100012AC8, symSize: 0x64 }
  - { offsetInCU: 0x2B1E, offset: 0x3DE78, size: 0x8, addend: 0x0, symName: __ZN6Vertex26CreatePositionBufferLayoutEjjPfPj, symObjAddr: 0x19C, symBinAddr: 0x100012B2C, symSize: 0x190 }
  - { offsetInCU: 0x2B7D, offset: 0x3DED7, size: 0x8, addend: 0x0, symName: __ZN6Vertex25CreateTextureBufferLayoutEjjPfPj, symObjAddr: 0x32C, symBinAddr: 0x100012CBC, symSize: 0x1E4 }
  - { offsetInCU: 0x2BDD, offset: 0x3DF37, size: 0x8, addend: 0x0, symName: __ZN6Vertex24CreateNormalBufferLayoutEjjPfPj, symObjAddr: 0x510, symBinAddr: 0x100012EA0, symSize: 0x270 }
  - { offsetInCU: 0x26, offset: 0x3DFC2, size: 0x8, addend: 0x0, symName: __ZN6CameraC2EN3glm5tvec3IfLNS0_9precisionE0EEE, symObjAddr: 0x0, symBinAddr: 0x100013110, symSize: 0x184 }
  - { offsetInCU: 0x2F1, offset: 0x3E28D, size: 0x8, addend: 0x0, symName: __ZN3glm6lookAtIfLNS_9precisionE0EEENS_7tmat4x4IT_XT0_EEERKNS_5tvec3IS3_XT0_EEES8_S8_, symObjAddr: 0x434, symBinAddr: 0x100013500, symSize: 0x41C }
  - { offsetInCU: 0x38F, offset: 0x3E32B, size: 0x8, addend: 0x0, symName: __ZN3glmplIfLNS_9precisionE0EEENS_5tvec3IT_XT0_EEERKS4_S6_, symObjAddr: 0x850, symBinAddr: 0x10001391C, symSize: 0x8C }
  - { offsetInCU: 0x3DF, offset: 0x3E37B, size: 0x8, addend: 0x0, symName: __ZN3glm11perspectiveIfEENS_7tmat4x4IT_LNS_9precisionE0EEES2_S2_S2_S2_, symObjAddr: 0x930, symBinAddr: 0x1000139FC, symSize: 0x27C }
  - { offsetInCU: 0x45B, offset: 0x3E3F7, size: 0x8, addend: 0x0, symName: __ZN3glm7radiansIfEET_S1_, symObjAddr: 0xBAC, symBinAddr: 0x100013C78, symSize: 0x24 }
  - { offsetInCU: 0x490, offset: 0x3E42C, size: 0x8, addend: 0x0, symName: __ZN3glm5crossIfLNS_9precisionE0EEENS_5tvec3IT_XT0_EEERKS4_S6_, symObjAddr: 0x11AC, symBinAddr: 0x10001419C, symSize: 0xC8 }
  - { offsetInCU: 0x4DD, offset: 0x3E479, size: 0x8, addend: 0x0, symName: __ZN3glmmiIfLNS_9precisionE0EEENS_5tvec3IT_XT0_EEERKS4_S6_, symObjAddr: 0x1318, symBinAddr: 0x1000142C4, symSize: 0x8C }
  - { offsetInCU: 0x52D, offset: 0x3E4C9, size: 0x8, addend: 0x0, symName: __ZN3glm3absIfEET_S1_, symObjAddr: 0x1C88, symBinAddr: 0x100014350, symSize: 0x24 }
  - { offsetInCU: 0x186C, offset: 0x3F808, size: 0x8, addend: 0x0, symName: __ZN6CameraC2EN3glm5tvec3IfLNS0_9precisionE0EEE, symObjAddr: 0x0, symBinAddr: 0x100013110, symSize: 0x184 }
  - { offsetInCU: 0x18A7, offset: 0x3F843, size: 0x8, addend: 0x0, symName: __ZN3glm5tvec3IfLNS_9precisionE0EEC1ERKS2_, symObjAddr: 0x184, symBinAddr: 0x100013294, symSize: 0x34 }
  - { offsetInCU: 0x18E1, offset: 0x3F87D, size: 0x8, addend: 0x0, symName: __ZN3glm5tvec3IfLNS_9precisionE0EEC1Ev, symObjAddr: 0x1FC, symBinAddr: 0x1000132C8, symSize: 0x2C }
  - { offsetInCU: 0x190D, offset: 0x3F8A9, size: 0x8, addend: 0x0, symName: __ZN3glm5tvec3IfLNS_9precisionE0EEaSERKS2_, symObjAddr: 0x228, symBinAddr: 0x1000132F4, symSize: 0x3C }
  - { offsetInCU: 0x1943, offset: 0x3F8DF, size: 0x8, addend: 0x0, symName: __ZN6Camera19updateCameraVectorsEv, symObjAddr: 0x264, symBinAddr: 0x100013330, symSize: 0x13C }
  - { offsetInCU: 0x1979, offset: 0x3F915, size: 0x8, addend: 0x0, symName: __ZN6CameraC1EN3glm5tvec3IfLNS0_9precisionE0EEE, symObjAddr: 0x3A0, symBinAddr: 0x10001346C, symSize: 0x34 }
  - { offsetInCU: 0x19B4, offset: 0x3F950, size: 0x8, addend: 0x0, symName: __ZNK6Camera13GetViewMatrixEv, symObjAddr: 0x3D4, symBinAddr: 0x1000134A0, symSize: 0x60 }
  - { offsetInCU: 0x19DC, offset: 0x3F978, size: 0x8, addend: 0x0, symName: __ZNK6Camera19GetProjectionMatrixEf, symObjAddr: 0x8DC, symBinAddr: 0x1000139A8, symSize: 0x54 }
  - { offsetInCU: 0x1A12, offset: 0x3F9AE, size: 0x8, addend: 0x0, symName: __ZN6Camera15ProcessKeyboardEPKhf, symObjAddr: 0xBD0, symBinAddr: 0x100013C9C, symSize: 0x1E8 }
  - { offsetInCU: 0x1A64, offset: 0x3FA00, size: 0x8, addend: 0x0, symName: __ZN3glm5tvec3IfLNS_9precisionE0EEpLIfEERS2_RKNS0_IT_LS1_0EEE, symObjAddr: 0xE44, symBinAddr: 0x100013E84, symSize: 0x54 }
  - { offsetInCU: 0x1AA3, offset: 0x3FA3F, size: 0x8, addend: 0x0, symName: __ZN3glm5tvec3IfLNS_9precisionE0EEmIIfEERS2_RKNS0_IT_LS1_0EEE, symObjAddr: 0xE98, symBinAddr: 0x100013ED8, symSize: 0x54 }
  - { offsetInCU: 0x1AE3, offset: 0x3FA7F, size: 0x8, addend: 0x0, symName: __ZN6Camera23ProcessKeyboardRotationEfff, symObjAddr: 0xEEC, symBinAddr: 0x100013F2C, symSize: 0x19C }
  - { offsetInCU: 0x1B35, offset: 0x3FAD1, size: 0x8, addend: 0x0, symName: __ZN6Camera5ResetEv, symObjAddr: 0x1088, symBinAddr: 0x1000140C8, symSize: 0x8C }
  - { offsetInCU: 0x1B5D, offset: 0x3FAF9, size: 0x8, addend: 0x0, symName: __Z3cosB7v160006f, symObjAddr: 0x1114, symBinAddr: 0x100014154, symSize: 0x24 }
  - { offsetInCU: 0x1B8B, offset: 0x3FB27, size: 0x8, addend: 0x0, symName: __Z3sinB7v160006f, symObjAddr: 0x1138, symBinAddr: 0x100014178, symSize: 0x24 }
  - { offsetInCU: 0x1BB9, offset: 0x3FB55, size: 0x8, addend: 0x0, symName: __ZN3glm5tvec3IfLNS_9precisionE0EEC2ERKS2_, symObjAddr: 0x12B8, symBinAddr: 0x100014264, symSize: 0x3C }
  - { offsetInCU: 0x1BF3, offset: 0x3FB8F, size: 0x8, addend: 0x0, symName: __ZN3glm5tvec3IfLNS_9precisionE0EEC2Ev, symObjAddr: 0x12F4, symBinAddr: 0x1000142A0, symSize: 0x24 }
  - { offsetInCU: 0x1C33, offset: 0x3FBCF, size: 0x8, addend: 0x0, symName: __ZNSt3__114numeric_limitsIfE7epsilonB7v160006Ev, symObjAddr: 0x1CAC, symBinAddr: 0x100014374, symSize: 0x14 }
  - { offsetInCU: 0x1C47, offset: 0x3FBE3, size: 0x8, addend: 0x0, symName: __Z3tanB7v160006f, symObjAddr: 0x1CC0, symBinAddr: 0x100014388, symSize: 0x24 }
  - { offsetInCU: 0x1C75, offset: 0x3FC11, size: 0x8, addend: 0x0, symName: __ZN3glm6detail11compute_absIfLb1EE4callEf, symObjAddr: 0x1CE4, symBinAddr: 0x1000143AC, symSize: 0x44 }
  - { offsetInCU: 0x1C98, offset: 0x3FC34, size: 0x8, addend: 0x0, symName: __ZNSt3__123__libcpp_numeric_limitsIfLb1EE7epsilonB7v160006Ev, symObjAddr: 0x1D28, symBinAddr: 0x1000143F0, symSize: 0x8 }
  - { offsetInCU: 0x26, offset: 0x3FC7D, size: 0x8, addend: 0x0, symName: _gladLoadGL, symObjAddr: 0x0, symBinAddr: 0x1000143F8, symSize: 0x4C }
  - { offsetInCU: 0x40, offset: 0x3FC97, size: 0x8, addend: 0x0, symName: _GLVersion, symObjAddr: 0x299B8, symBinAddr: 0x100154B48, symSize: 0x0 }
  - { offsetInCU: 0x7F, offset: 0x3FCD6, size: 0x8, addend: 0x0, symName: _GLAD_GL_VERSION_1_0, symObjAddr: 0x299C0, symBinAddr: 0x100154B50, symSize: 0x0 }
  - { offsetInCU: 0x95, offset: 0x3FCEC, size: 0x8, addend: 0x0, symName: _GLAD_GL_VERSION_1_1, symObjAddr: 0x299C4, symBinAddr: 0x100154B54, symSize: 0x0 }
  - { offsetInCU: 0xAB, offset: 0x3FD02, size: 0x8, addend: 0x0, symName: _GLAD_GL_VERSION_1_2, symObjAddr: 0x299C8, symBinAddr: 0x100154B58, symSize: 0x0 }
  - { offsetInCU: 0xC1, offset: 0x3FD18, size: 0x8, addend: 0x0, symName: _GLAD_GL_VERSION_1_3, symObjAddr: 0x299CC, symBinAddr: 0x100154B5C, symSize: 0x0 }
  - { offsetInCU: 0xD7, offset: 0x3FD2E, size: 0x8, addend: 0x0, symName: _GLAD_GL_VERSION_1_4, symObjAddr: 0x299D0, symBinAddr: 0x100154B60, symSize: 0x0 }
  - { offsetInCU: 0xED, offset: 0x3FD44, size: 0x8, addend: 0x0, symName: _GLAD_GL_VERSION_1_5, symObjAddr: 0x299D4, symBinAddr: 0x100154B64, symSize: 0x0 }
  - { offsetInCU: 0x103, offset: 0x3FD5A, size: 0x8, addend: 0x0, symName: _GLAD_GL_VERSION_2_0, symObjAddr: 0x299D8, symBinAddr: 0x100154B68, symSize: 0x0 }
  - { offsetInCU: 0x119, offset: 0x3FD70, size: 0x8, addend: 0x0, symName: _GLAD_GL_VERSION_2_1, symObjAddr: 0x299DC, symBinAddr: 0x100154B6C, symSize: 0x0 }
  - { offsetInCU: 0x12F, offset: 0x3FD86, size: 0x8, addend: 0x0, symName: _GLAD_GL_VERSION_3_0, symObjAddr: 0x299E0, symBinAddr: 0x100154B70, symSize: 0x0 }
  - { offsetInCU: 0x145, offset: 0x3FD9C, size: 0x8, addend: 0x0, symName: _GLAD_GL_VERSION_3_1, symObjAddr: 0x299E4, symBinAddr: 0x100154B74, symSize: 0x0 }
  - { offsetInCU: 0x15B, offset: 0x3FDB2, size: 0x8, addend: 0x0, symName: _GLAD_GL_VERSION_3_2, symObjAddr: 0x299E8, symBinAddr: 0x100154B78, symSize: 0x0 }
  - { offsetInCU: 0x171, offset: 0x3FDC8, size: 0x8, addend: 0x0, symName: _GLAD_GL_VERSION_3_3, symObjAddr: 0x299EC, symBinAddr: 0x100154B7C, symSize: 0x0 }
  - { offsetInCU: 0x187, offset: 0x3FDDE, size: 0x8, addend: 0x0, symName: _glad_glCopyTexImage1D, symObjAddr: 0x299F0, symBinAddr: 0x100154B80, symSize: 0x0 }
  - { offsetInCU: 0x1F0, offset: 0x3FE47, size: 0x8, addend: 0x0, symName: _glad_glVertexAttribI3ui, symObjAddr: 0x299F8, symBinAddr: 0x100154B88, symSize: 0x0 }
  - { offsetInCU: 0x22D, offset: 0x3FE84, size: 0x8, addend: 0x0, symName: _glad_glWindowPos2s, symObjAddr: 0x29A00, symBinAddr: 0x100154B90, symSize: 0x0 }
  - { offsetInCU: 0x272, offset: 0x3FEC9, size: 0x8, addend: 0x0, symName: _glad_glWindowPos2i, symObjAddr: 0x29A08, symBinAddr: 0x100154B98, symSize: 0x0 }
  - { offsetInCU: 0x2A5, offset: 0x3FEFC, size: 0x8, addend: 0x0, symName: _glad_glWindowPos2f, symObjAddr: 0x29A10, symBinAddr: 0x100154BA0, symSize: 0x0 }
  - { offsetInCU: 0x2EA, offset: 0x3FF41, size: 0x8, addend: 0x0, symName: _glad_glWindowPos2d, symObjAddr: 0x29A18, symBinAddr: 0x100154BA8, symSize: 0x0 }
  - { offsetInCU: 0x330, offset: 0x3FF87, size: 0x8, addend: 0x0, symName: _glad_glVertex2fv, symObjAddr: 0x29A20, symBinAddr: 0x100154BB0, symSize: 0x0 }
  - { offsetInCU: 0x369, offset: 0x3FFC0, size: 0x8, addend: 0x0, symName: _glad_glIndexi, symObjAddr: 0x29A28, symBinAddr: 0x100154BB8, symSize: 0x0 }
  - { offsetInCU: 0x398, offset: 0x3FFEF, size: 0x8, addend: 0x0, symName: _glad_glFramebufferRenderbuffer, symObjAddr: 0x29A30, symBinAddr: 0x100154BC0, symSize: 0x0 }
  - { offsetInCU: 0x3D6, offset: 0x4002D, size: 0x8, addend: 0x0, symName: _glad_glRectdv, symObjAddr: 0x29A38, symBinAddr: 0x100154BC8, symSize: 0x0 }
  - { offsetInCU: 0x414, offset: 0x4006B, size: 0x8, addend: 0x0, symName: _glad_glCompressedTexSubImage3D, symObjAddr: 0x29A40, symBinAddr: 0x100154BD0, symSize: 0x0 }
  - { offsetInCU: 0x47B, offset: 0x400D2, size: 0x8, addend: 0x0, symName: _glad_glEvalCoord2d, symObjAddr: 0x29A48, symBinAddr: 0x100154BD8, symSize: 0x0 }
  - { offsetInCU: 0x49E, offset: 0x400F5, size: 0x8, addend: 0x0, symName: _glad_glEvalCoord2f, symObjAddr: 0x29A50, symBinAddr: 0x100154BE0, symSize: 0x0 }
  - { offsetInCU: 0x4C1, offset: 0x40118, size: 0x8, addend: 0x0, symName: _glad_glIndexd, symObjAddr: 0x29A58, symBinAddr: 0x100154BE8, symSize: 0x0 }
  - { offsetInCU: 0x4F0, offset: 0x40147, size: 0x8, addend: 0x0, symName: _glad_glVertexAttrib1sv, symObjAddr: 0x29A60, symBinAddr: 0x100154BF0, symSize: 0x0 }
  - { offsetInCU: 0x52E, offset: 0x40185, size: 0x8, addend: 0x0, symName: _glad_glIndexf, symObjAddr: 0x29A68, symBinAddr: 0x100154BF8, symSize: 0x0 }
  - { offsetInCU: 0x55D, offset: 0x401B4, size: 0x8, addend: 0x0, symName: _glad_glBindSampler, symObjAddr: 0x29A70, symBinAddr: 0x100154C00, symSize: 0x0 }
  - { offsetInCU: 0x591, offset: 0x401E8, size: 0x8, addend: 0x0, symName: _glad_glLineWidth, symObjAddr: 0x29A78, symBinAddr: 0x100154C08, symSize: 0x0 }
  - { offsetInCU: 0x5B4, offset: 0x4020B, size: 0x8, addend: 0x0, symName: _glad_glColorP3uiv, symObjAddr: 0x29A80, symBinAddr: 0x100154C10, symSize: 0x0 }
  - { offsetInCU: 0x5F2, offset: 0x40249, size: 0x8, addend: 0x0, symName: _glad_glGetIntegeri_v, symObjAddr: 0x29A88, symBinAddr: 0x100154C18, symSize: 0x0 }
  - { offsetInCU: 0x630, offset: 0x40287, size: 0x8, addend: 0x0, symName: _glad_glGetMapfv, symObjAddr: 0x29A90, symBinAddr: 0x100154C20, symSize: 0x0 }
  - { offsetInCU: 0x66E, offset: 0x402C5, size: 0x8, addend: 0x0, symName: _glad_glIndexs, symObjAddr: 0x29A98, symBinAddr: 0x100154C28, symSize: 0x0 }
  - { offsetInCU: 0x69D, offset: 0x402F4, size: 0x8, addend: 0x0, symName: _glad_glCompileShader, symObjAddr: 0x29AA0, symBinAddr: 0x100154C30, symSize: 0x0 }
  - { offsetInCU: 0x6CC, offset: 0x40323, size: 0x8, addend: 0x0, symName: _glad_glGetTransformFeedbackVarying, symObjAddr: 0x29AA8, symBinAddr: 0x100154C38, symSize: 0x0 }
  - { offsetInCU: 0x73A, offset: 0x40391, size: 0x8, addend: 0x0, symName: _glad_glWindowPos2iv, symObjAddr: 0x29AB0, symBinAddr: 0x100154C40, symSize: 0x0 }
  - { offsetInCU: 0x773, offset: 0x403CA, size: 0x8, addend: 0x0, symName: _glad_glIndexfv, symObjAddr: 0x29AB8, symBinAddr: 0x100154C48, symSize: 0x0 }
  - { offsetInCU: 0x796, offset: 0x403ED, size: 0x8, addend: 0x0, symName: _glad_glFogiv, symObjAddr: 0x29AC0, symBinAddr: 0x100154C50, symSize: 0x0 }
  - { offsetInCU: 0x7CA, offset: 0x40421, size: 0x8, addend: 0x0, symName: _glad_glStencilMaskSeparate, symObjAddr: 0x29AC8, symBinAddr: 0x100154C58, symSize: 0x0 }
  - { offsetInCU: 0x7FE, offset: 0x40455, size: 0x8, addend: 0x0, symName: _glad_glRasterPos2fv, symObjAddr: 0x29AD0, symBinAddr: 0x100154C60, symSize: 0x0 }
  - { offsetInCU: 0x821, offset: 0x40478, size: 0x8, addend: 0x0, symName: _glad_glLightModeliv, symObjAddr: 0x29AD8, symBinAddr: 0x100154C68, symSize: 0x0 }
  - { offsetInCU: 0x844, offset: 0x4049B, size: 0x8, addend: 0x0, symName: _glad_glColor4ui, symObjAddr: 0x29AE0, symBinAddr: 0x100154C70, symSize: 0x0 }
  - { offsetInCU: 0x867, offset: 0x404BE, size: 0x8, addend: 0x0, symName: _glad_glSecondaryColor3fv, symObjAddr: 0x29AE8, symBinAddr: 0x100154C78, symSize: 0x0 }
  - { offsetInCU: 0x88A, offset: 0x404E1, size: 0x8, addend: 0x0, symName: _glad_glMultiTexCoordP3ui, symObjAddr: 0x29AF0, symBinAddr: 0x100154C80, symSize: 0x0 }
  - { offsetInCU: 0x8C3, offset: 0x4051A, size: 0x8, addend: 0x0, symName: _glad_glFogfv, symObjAddr: 0x29AF8, symBinAddr: 0x100154C88, symSize: 0x0 }
  - { offsetInCU: 0x8F7, offset: 0x4054E, size: 0x8, addend: 0x0, symName: _glad_glVertexP4ui, symObjAddr: 0x29B00, symBinAddr: 0x100154C90, symSize: 0x0 }
  - { offsetInCU: 0x91A, offset: 0x40571, size: 0x8, addend: 0x0, symName: _glad_glEnablei, symObjAddr: 0x29B08, symBinAddr: 0x100154C98, symSize: 0x0 }
  - { offsetInCU: 0x93D, offset: 0x40594, size: 0x8, addend: 0x0, symName: _glad_glVertex4iv, symObjAddr: 0x29B10, symBinAddr: 0x100154CA0, symSize: 0x0 }
  - { offsetInCU: 0x960, offset: 0x405B7, size: 0x8, addend: 0x0, symName: _glad_glEvalCoord1fv, symObjAddr: 0x29B18, symBinAddr: 0x100154CA8, symSize: 0x0 }
  - { offsetInCU: 0x983, offset: 0x405DA, size: 0x8, addend: 0x0, symName: _glad_glWindowPos2sv, symObjAddr: 0x29B20, symBinAddr: 0x100154CB0, symSize: 0x0 }
  - { offsetInCU: 0x9B2, offset: 0x40609, size: 0x8, addend: 0x0, symName: _glad_glVertexAttribP4ui, symObjAddr: 0x29B28, symBinAddr: 0x100154CB8, symSize: 0x0 }
  - { offsetInCU: 0xA02, offset: 0x40659, size: 0x8, addend: 0x0, symName: _glad_glCreateShader, symObjAddr: 0x29B30, symBinAddr: 0x100154CC0, symSize: 0x0 }
  - { offsetInCU: 0xA36, offset: 0x4068D, size: 0x8, addend: 0x0, symName: _glad_glIsBuffer, symObjAddr: 0x29B38, symBinAddr: 0x100154CC8, symSize: 0x0 }
  - { offsetInCU: 0xA6A, offset: 0x406C1, size: 0x8, addend: 0x0, symName: _glad_glGetMultisamplefv, symObjAddr: 0x29B40, symBinAddr: 0x100154CD0, symSize: 0x0 }
  - { offsetInCU: 0xAA3, offset: 0x406FA, size: 0x8, addend: 0x0, symName: _glad_glGenRenderbuffers, symObjAddr: 0x29B48, symBinAddr: 0x100154CD8, symSize: 0x0 }
  - { offsetInCU: 0xADC, offset: 0x40733, size: 0x8, addend: 0x0, symName: _glad_glCopyTexSubImage2D, symObjAddr: 0x29B50, symBinAddr: 0x100154CE0, symSize: 0x0 }
  - { offsetInCU: 0xB2E, offset: 0x40785, size: 0x8, addend: 0x0, symName: _glad_glCompressedTexImage2D, symObjAddr: 0x29B58, symBinAddr: 0x100154CE8, symSize: 0x0 }
  - { offsetInCU: 0xB80, offset: 0x407D7, size: 0x8, addend: 0x0, symName: _glad_glVertexAttrib1f, symObjAddr: 0x29B60, symBinAddr: 0x100154CF0, symSize: 0x0 }
  - { offsetInCU: 0xBB4, offset: 0x4080B, size: 0x8, addend: 0x0, symName: _glad_glBlendFuncSeparate, symObjAddr: 0x29B68, symBinAddr: 0x100154CF8, symSize: 0x0 }
  - { offsetInCU: 0xBF2, offset: 0x40849, size: 0x8, addend: 0x0, symName: _glad_glVertex4fv, symObjAddr: 0x29B70, symBinAddr: 0x100154D00, symSize: 0x0 }
  - { offsetInCU: 0xC15, offset: 0x4086C, size: 0x8, addend: 0x0, symName: _glad_glBindTexture, symObjAddr: 0x29B78, symBinAddr: 0x100154D08, symSize: 0x0 }
  - { offsetInCU: 0xC38, offset: 0x4088F, size: 0x8, addend: 0x0, symName: _glad_glVertexAttrib1s, symObjAddr: 0x29B80, symBinAddr: 0x100154D10, symSize: 0x0 }
  - { offsetInCU: 0xC6C, offset: 0x408C3, size: 0x8, addend: 0x0, symName: _glad_glTexCoord2fv, symObjAddr: 0x29B88, symBinAddr: 0x100154D18, symSize: 0x0 }
  - { offsetInCU: 0xC8F, offset: 0x408E6, size: 0x8, addend: 0x0, symName: _glad_glSampleMaski, symObjAddr: 0x29B90, symBinAddr: 0x100154D20, symSize: 0x0 }
  - { offsetInCU: 0xCCE, offset: 0x40925, size: 0x8, addend: 0x0, symName: _glad_glVertexP2ui, symObjAddr: 0x29B98, symBinAddr: 0x100154D28, symSize: 0x0 }
  - { offsetInCU: 0xCF1, offset: 0x40948, size: 0x8, addend: 0x0, symName: _glad_glDrawRangeElementsBaseVertex, symObjAddr: 0x29BA0, symBinAddr: 0x100154D30, symSize: 0x0 }
  - { offsetInCU: 0xD3E, offset: 0x40995, size: 0x8, addend: 0x0, symName: _glad_glTexCoord4fv, symObjAddr: 0x29BA8, symBinAddr: 0x100154D38, symSize: 0x0 }
  - { offsetInCU: 0xD61, offset: 0x409B8, size: 0x8, addend: 0x0, symName: _glad_glUniformMatrix3x2fv, symObjAddr: 0x29BB0, symBinAddr: 0x100154D40, symSize: 0x0 }
  - { offsetInCU: 0xD9F, offset: 0x409F6, size: 0x8, addend: 0x0, symName: _glad_glPointSize, symObjAddr: 0x29BB8, symBinAddr: 0x100154D48, symSize: 0x0 }
  - { offsetInCU: 0xDC2, offset: 0x40A19, size: 0x8, addend: 0x0, symName: _glad_glVertexAttrib2dv, symObjAddr: 0x29BC0, symBinAddr: 0x100154D50, symSize: 0x0 }
  - { offsetInCU: 0xDF6, offset: 0x40A4D, size: 0x8, addend: 0x0, symName: _glad_glDeleteProgram, symObjAddr: 0x29BC8, symBinAddr: 0x100154D58, symSize: 0x0 }
  - { offsetInCU: 0xE19, offset: 0x40A70, size: 0x8, addend: 0x0, symName: _glad_glColor4bv, symObjAddr: 0x29BD0, symBinAddr: 0x100154D60, symSize: 0x0 }
  - { offsetInCU: 0xE64, offset: 0x40ABB, size: 0x8, addend: 0x0, symName: _glad_glRasterPos2f, symObjAddr: 0x29BD8, symBinAddr: 0x100154D68, symSize: 0x0 }
  - { offsetInCU: 0xE87, offset: 0x40ADE, size: 0x8, addend: 0x0, symName: _glad_glRasterPos2d, symObjAddr: 0x29BE0, symBinAddr: 0x100154D70, symSize: 0x0 }
  - { offsetInCU: 0xEAA, offset: 0x40B01, size: 0x8, addend: 0x0, symName: _glad_glLoadIdentity, symObjAddr: 0x29BE8, symBinAddr: 0x100154D78, symSize: 0x0 }
  - { offsetInCU: 0xED4, offset: 0x40B2B, size: 0x8, addend: 0x0, symName: _glad_glRasterPos2i, symObjAddr: 0x29BF0, symBinAddr: 0x100154D80, symSize: 0x0 }
  - { offsetInCU: 0xEF7, offset: 0x40B4E, size: 0x8, addend: 0x0, symName: _glad_glRenderbufferStorage, symObjAddr: 0x29BF8, symBinAddr: 0x100154D88, symSize: 0x0 }
  - { offsetInCU: 0xF35, offset: 0x40B8C, size: 0x8, addend: 0x0, symName: _glad_glUniformMatrix4x3fv, symObjAddr: 0x29C00, symBinAddr: 0x100154D90, symSize: 0x0 }
  - { offsetInCU: 0xF58, offset: 0x40BAF, size: 0x8, addend: 0x0, symName: _glad_glColor3b, symObjAddr: 0x29C08, symBinAddr: 0x100154D98, symSize: 0x0 }
  - { offsetInCU: 0xF91, offset: 0x40BE8, size: 0x8, addend: 0x0, symName: _glad_glClearBufferfv, symObjAddr: 0x29C10, symBinAddr: 0x100154DA0, symSize: 0x0 }
  - { offsetInCU: 0xFCA, offset: 0x40C21, size: 0x8, addend: 0x0, symName: _glad_glEdgeFlag, symObjAddr: 0x29C18, symBinAddr: 0x100154DA8, symSize: 0x0 }
  - { offsetInCU: 0xFF9, offset: 0x40C50, size: 0x8, addend: 0x0, symName: _glad_glDeleteSamplers, symObjAddr: 0x29C20, symBinAddr: 0x100154DB0, symSize: 0x0 }
  - { offsetInCU: 0x102D, offset: 0x40C84, size: 0x8, addend: 0x0, symName: _glad_glVertex3d, symObjAddr: 0x29C28, symBinAddr: 0x100154DB8, symSize: 0x0 }
  - { offsetInCU: 0x1066, offset: 0x40CBD, size: 0x8, addend: 0x0, symName: _glad_glVertex3f, symObjAddr: 0x29C30, symBinAddr: 0x100154DC0, symSize: 0x0 }
  - { offsetInCU: 0x109F, offset: 0x40CF6, size: 0x8, addend: 0x0, symName: _glad_glVertex3i, symObjAddr: 0x29C38, symBinAddr: 0x100154DC8, symSize: 0x0 }
  - { offsetInCU: 0x10D8, offset: 0x40D2F, size: 0x8, addend: 0x0, symName: _glad_glColor3i, symObjAddr: 0x29C40, symBinAddr: 0x100154DD0, symSize: 0x0 }
  - { offsetInCU: 0x10FB, offset: 0x40D52, size: 0x8, addend: 0x0, symName: _glad_glUniform3f, symObjAddr: 0x29C48, symBinAddr: 0x100154DD8, symSize: 0x0 }
  - { offsetInCU: 0x1139, offset: 0x40D90, size: 0x8, addend: 0x0, symName: _glad_glVertexAttrib4ubv, symObjAddr: 0x29C50, symBinAddr: 0x100154DE0, symSize: 0x0 }
  - { offsetInCU: 0x1182, offset: 0x40DD9, size: 0x8, addend: 0x0, symName: _glad_glColor3s, symObjAddr: 0x29C58, symBinAddr: 0x100154DE8, symSize: 0x0 }
  - { offsetInCU: 0x11BB, offset: 0x40E12, size: 0x8, addend: 0x0, symName: _glad_glVertex3s, symObjAddr: 0x29C60, symBinAddr: 0x100154DF0, symSize: 0x0 }
  - { offsetInCU: 0x11DE, offset: 0x40E35, size: 0x8, addend: 0x0, symName: _glad_glTexCoordP2ui, symObjAddr: 0x29C68, symBinAddr: 0x100154DF8, symSize: 0x0 }
  - { offsetInCU: 0x1201, offset: 0x40E58, size: 0x8, addend: 0x0, symName: _glad_glColorMaski, symObjAddr: 0x29C70, symBinAddr: 0x100154E00, symSize: 0x0 }
  - { offsetInCU: 0x1244, offset: 0x40E9B, size: 0x8, addend: 0x0, symName: _glad_glClearBufferfi, symObjAddr: 0x29C78, symBinAddr: 0x100154E08, symSize: 0x0 }
  - { offsetInCU: 0x1282, offset: 0x40ED9, size: 0x8, addend: 0x0, symName: _glad_glTexCoord1iv, symObjAddr: 0x29C80, symBinAddr: 0x100154E10, symSize: 0x0 }
  - { offsetInCU: 0x12A5, offset: 0x40EFC, size: 0x8, addend: 0x0, symName: _glad_glBlitFramebuffer, symObjAddr: 0x29C88, symBinAddr: 0x100154E18, symSize: 0x0 }
  - { offsetInCU: 0x1301, offset: 0x40F58, size: 0x8, addend: 0x0, symName: _glad_glMultiTexCoordP2ui, symObjAddr: 0x29C90, symBinAddr: 0x100154E20, symSize: 0x0 }
  - { offsetInCU: 0x1324, offset: 0x40F7B, size: 0x8, addend: 0x0, symName: _glad_glGetSamplerParameterIiv, symObjAddr: 0x29C98, symBinAddr: 0x100154E28, symSize: 0x0 }
  - { offsetInCU: 0x135D, offset: 0x40FB4, size: 0x8, addend: 0x0, symName: _glad_glGetFragDataIndex, symObjAddr: 0x29CA0, symBinAddr: 0x100154E30, symSize: 0x0 }
  - { offsetInCU: 0x13A0, offset: 0x40FF7, size: 0x8, addend: 0x0, symName: _glad_glVertexAttrib3f, symObjAddr: 0x29CA8, symBinAddr: 0x100154E38, symSize: 0x0 }
  - { offsetInCU: 0x13DE, offset: 0x41035, size: 0x8, addend: 0x0, symName: _glad_glVertex2iv, symObjAddr: 0x29CB0, symBinAddr: 0x100154E40, symSize: 0x0 }
  - { offsetInCU: 0x1401, offset: 0x41058, size: 0x8, addend: 0x0, symName: _glad_glColor3sv, symObjAddr: 0x29CB8, symBinAddr: 0x100154E48, symSize: 0x0 }
  - { offsetInCU: 0x1424, offset: 0x4107B, size: 0x8, addend: 0x0, symName: _glad_glGetVertexAttribdv, symObjAddr: 0x29CC0, symBinAddr: 0x100154E50, symSize: 0x0 }
  - { offsetInCU: 0x1462, offset: 0x410B9, size: 0x8, addend: 0x0, symName: _glad_glUniformMatrix3x4fv, symObjAddr: 0x29CC8, symBinAddr: 0x100154E58, symSize: 0x0 }
  - { offsetInCU: 0x1485, offset: 0x410DC, size: 0x8, addend: 0x0, symName: _glad_glNormalPointer, symObjAddr: 0x29CD0, symBinAddr: 0x100154E60, symSize: 0x0 }
  - { offsetInCU: 0x14BE, offset: 0x41115, size: 0x8, addend: 0x0, symName: _glad_glTexCoordP3uiv, symObjAddr: 0x29CD8, symBinAddr: 0x100154E68, symSize: 0x0 }
  - { offsetInCU: 0x14E1, offset: 0x41138, size: 0x8, addend: 0x0, symName: _glad_glVertex4sv, symObjAddr: 0x29CE0, symBinAddr: 0x100154E70, symSize: 0x0 }
  - { offsetInCU: 0x1504, offset: 0x4115B, size: 0x8, addend: 0x0, symName: _glad_glPassThrough, symObjAddr: 0x29CE8, symBinAddr: 0x100154E78, symSize: 0x0 }
  - { offsetInCU: 0x1527, offset: 0x4117E, size: 0x8, addend: 0x0, symName: _glad_glMultiTexCoordP4ui, symObjAddr: 0x29CF0, symBinAddr: 0x100154E80, symSize: 0x0 }
  - { offsetInCU: 0x154A, offset: 0x411A1, size: 0x8, addend: 0x0, symName: _glad_glFogi, symObjAddr: 0x29CF8, symBinAddr: 0x100154E88, symSize: 0x0 }
  - { offsetInCU: 0x157E, offset: 0x411D5, size: 0x8, addend: 0x0, symName: _glad_glBegin, symObjAddr: 0x29D00, symBinAddr: 0x100154E90, symSize: 0x0 }
  - { offsetInCU: 0x15AD, offset: 0x41204, size: 0x8, addend: 0x0, symName: _glad_glEvalCoord2dv, symObjAddr: 0x29D08, symBinAddr: 0x100154E98, symSize: 0x0 }
  - { offsetInCU: 0x15DC, offset: 0x41233, size: 0x8, addend: 0x0, symName: _glad_glColor3ubv, symObjAddr: 0x29D10, symBinAddr: 0x100154EA0, symSize: 0x0 }
  - { offsetInCU: 0x160B, offset: 0x41262, size: 0x8, addend: 0x0, symName: _glad_glVertexPointer, symObjAddr: 0x29D18, symBinAddr: 0x100154EA8, symSize: 0x0 }
  - { offsetInCU: 0x1649, offset: 0x412A0, size: 0x8, addend: 0x0, symName: _glad_glSecondaryColor3uiv, symObjAddr: 0x29D20, symBinAddr: 0x100154EB0, symSize: 0x0 }
  - { offsetInCU: 0x1678, offset: 0x412CF, size: 0x8, addend: 0x0, symName: _glad_glDeleteFramebuffers, symObjAddr: 0x29D28, symBinAddr: 0x100154EB8, symSize: 0x0 }
  - { offsetInCU: 0x169B, offset: 0x412F2, size: 0x8, addend: 0x0, symName: _glad_glDrawArrays, symObjAddr: 0x29D30, symBinAddr: 0x100154EC0, symSize: 0x0 }
  - { offsetInCU: 0x16D4, offset: 0x4132B, size: 0x8, addend: 0x0, symName: _glad_glUniform1ui, symObjAddr: 0x29D38, symBinAddr: 0x100154EC8, symSize: 0x0 }
  - { offsetInCU: 0x1708, offset: 0x4135F, size: 0x8, addend: 0x0, symName: _glad_glMultiTexCoord1d, symObjAddr: 0x29D40, symBinAddr: 0x100154ED0, symSize: 0x0 }
  - { offsetInCU: 0x173C, offset: 0x41393, size: 0x8, addend: 0x0, symName: _glad_glMultiTexCoord1f, symObjAddr: 0x29D48, symBinAddr: 0x100154ED8, symSize: 0x0 }
  - { offsetInCU: 0x1770, offset: 0x413C7, size: 0x8, addend: 0x0, symName: _glad_glLightfv, symObjAddr: 0x29D50, symBinAddr: 0x100154EE0, symSize: 0x0 }
  - { offsetInCU: 0x17A9, offset: 0x41400, size: 0x8, addend: 0x0, symName: _glad_glTexCoordP3ui, symObjAddr: 0x29D58, symBinAddr: 0x100154EE8, symSize: 0x0 }
  - { offsetInCU: 0x17CC, offset: 0x41423, size: 0x8, addend: 0x0, symName: _glad_glVertexAttrib3d, symObjAddr: 0x29D60, symBinAddr: 0x100154EF0, symSize: 0x0 }
  - { offsetInCU: 0x180A, offset: 0x41461, size: 0x8, addend: 0x0, symName: _glad_glClear, symObjAddr: 0x29D68, symBinAddr: 0x100154EF8, symSize: 0x0 }
  - { offsetInCU: 0x1839, offset: 0x41490, size: 0x8, addend: 0x0, symName: _glad_glMultiTexCoord1i, symObjAddr: 0x29D70, symBinAddr: 0x100154F00, symSize: 0x0 }
  - { offsetInCU: 0x185C, offset: 0x414B3, size: 0x8, addend: 0x0, symName: _glad_glGetActiveUniformName, symObjAddr: 0x29D78, symBinAddr: 0x100154F08, symSize: 0x0 }
  - { offsetInCU: 0x189F, offset: 0x414F6, size: 0x8, addend: 0x0, symName: _glad_glMultiTexCoord1s, symObjAddr: 0x29D80, symBinAddr: 0x100154F10, symSize: 0x0 }
  - { offsetInCU: 0x18D3, offset: 0x4152A, size: 0x8, addend: 0x0, symName: _glad_glIsEnabled, symObjAddr: 0x29D88, symBinAddr: 0x100154F18, symSize: 0x0 }
  - { offsetInCU: 0x1907, offset: 0x4155E, size: 0x8, addend: 0x0, symName: _glad_glStencilOp, symObjAddr: 0x29D90, symBinAddr: 0x100154F20, symSize: 0x0 }
  - { offsetInCU: 0x1940, offset: 0x41597, size: 0x8, addend: 0x0, symName: _glad_glGetQueryObjectuiv, symObjAddr: 0x29D98, symBinAddr: 0x100154F28, symSize: 0x0 }
  - { offsetInCU: 0x1979, offset: 0x415D0, size: 0x8, addend: 0x0, symName: _glad_glFramebufferTexture2D, symObjAddr: 0x29DA0, symBinAddr: 0x100154F30, symSize: 0x0 }
  - { offsetInCU: 0x19BC, offset: 0x41613, size: 0x8, addend: 0x0, symName: _glad_glGetFramebufferAttachmentParameteriv, symObjAddr: 0x29DA8, symBinAddr: 0x100154F38, symSize: 0x0 }
  - { offsetInCU: 0x19FA, offset: 0x41651, size: 0x8, addend: 0x0, symName: _glad_glTranslatef, symObjAddr: 0x29DB0, symBinAddr: 0x100154F40, symSize: 0x0 }
  - { offsetInCU: 0x1A1D, offset: 0x41674, size: 0x8, addend: 0x0, symName: _glad_glVertexAttrib4Nub, symObjAddr: 0x29DB8, symBinAddr: 0x100154F48, symSize: 0x0 }
  - { offsetInCU: 0x1A60, offset: 0x416B7, size: 0x8, addend: 0x0, symName: _glad_glTranslated, symObjAddr: 0x29DC0, symBinAddr: 0x100154F50, symSize: 0x0 }
  - { offsetInCU: 0x1A83, offset: 0x416DA, size: 0x8, addend: 0x0, symName: _glad_glTexCoord3sv, symObjAddr: 0x29DC8, symBinAddr: 0x100154F58, symSize: 0x0 }
  - { offsetInCU: 0x1AA6, offset: 0x416FD, size: 0x8, addend: 0x0, symName: _glad_glGetFragDataLocation, symObjAddr: 0x29DD0, symBinAddr: 0x100154F60, symSize: 0x0 }
  - { offsetInCU: 0x1AC9, offset: 0x41720, size: 0x8, addend: 0x0, symName: _glad_glTexImage1D, symObjAddr: 0x29DD8, symBinAddr: 0x100154F68, symSize: 0x0 }
  - { offsetInCU: 0x1B1B, offset: 0x41772, size: 0x8, addend: 0x0, symName: _glad_glVertexP3uiv, symObjAddr: 0x29DE0, symBinAddr: 0x100154F70, symSize: 0x0 }
  - { offsetInCU: 0x1B3E, offset: 0x41795, size: 0x8, addend: 0x0, symName: _glad_glTexParameteriv, symObjAddr: 0x29DE8, symBinAddr: 0x100154F78, symSize: 0x0 }
  - { offsetInCU: 0x1B77, offset: 0x417CE, size: 0x8, addend: 0x0, symName: _glad_glSecondaryColor3bv, symObjAddr: 0x29DF0, symBinAddr: 0x100154F80, symSize: 0x0 }
  - { offsetInCU: 0x1B9A, offset: 0x417F1, size: 0x8, addend: 0x0, symName: _glad_glGetMaterialfv, symObjAddr: 0x29DF8, symBinAddr: 0x100154F88, symSize: 0x0 }
  - { offsetInCU: 0x1BBD, offset: 0x41814, size: 0x8, addend: 0x0, symName: _glad_glGetTexImage, symObjAddr: 0x29E00, symBinAddr: 0x100154F90, symSize: 0x0 }
  - { offsetInCU: 0x1C01, offset: 0x41858, size: 0x8, addend: 0x0, symName: _glad_glFogCoordfv, symObjAddr: 0x29E08, symBinAddr: 0x100154F98, symSize: 0x0 }
  - { offsetInCU: 0x1C24, offset: 0x4187B, size: 0x8, addend: 0x0, symName: _glad_glPixelMapuiv, symObjAddr: 0x29E10, symBinAddr: 0x100154FA0, symSize: 0x0 }
  - { offsetInCU: 0x1C5D, offset: 0x418B4, size: 0x8, addend: 0x0, symName: _glad_glGetShaderInfoLog, symObjAddr: 0x29E18, symBinAddr: 0x100154FA8, symSize: 0x0 }
  - { offsetInCU: 0x1C9B, offset: 0x418F2, size: 0x8, addend: 0x0, symName: _glad_glGetQueryObjecti64v, symObjAddr: 0x29E20, symBinAddr: 0x100154FB0, symSize: 0x0 }
  - { offsetInCU: 0x1CEB, offset: 0x41942, size: 0x8, addend: 0x0, symName: _glad_glGenFramebuffers, symObjAddr: 0x29E28, symBinAddr: 0x100154FB8, symSize: 0x0 }
  - { offsetInCU: 0x1D0E, offset: 0x41965, size: 0x8, addend: 0x0, symName: _glad_glIndexsv, symObjAddr: 0x29E30, symBinAddr: 0x100154FC0, symSize: 0x0 }
  - { offsetInCU: 0x1D31, offset: 0x41988, size: 0x8, addend: 0x0, symName: _glad_glGetAttachedShaders, symObjAddr: 0x29E38, symBinAddr: 0x100154FC8, symSize: 0x0 }
  - { offsetInCU: 0x1D6F, offset: 0x419C6, size: 0x8, addend: 0x0, symName: _glad_glIsRenderbuffer, symObjAddr: 0x29E40, symBinAddr: 0x100154FD0, symSize: 0x0 }
  - { offsetInCU: 0x1D92, offset: 0x419E9, size: 0x8, addend: 0x0, symName: _glad_glVertex3iv, symObjAddr: 0x29E48, symBinAddr: 0x100154FD8, symSize: 0x0 }
  - { offsetInCU: 0x1DB5, offset: 0x41A0C, size: 0x8, addend: 0x0, symName: _glad_glBitmap, symObjAddr: 0x29E50, symBinAddr: 0x100154FE0, symSize: 0x0 }
  - { offsetInCU: 0x1E02, offset: 0x41A59, size: 0x8, addend: 0x0, symName: _glad_glMateriali, symObjAddr: 0x29E58, symBinAddr: 0x100154FE8, symSize: 0x0 }
  - { offsetInCU: 0x1E3B, offset: 0x41A92, size: 0x8, addend: 0x0, symName: _glad_glIsVertexArray, symObjAddr: 0x29E60, symBinAddr: 0x100154FF0, symSize: 0x0 }
  - { offsetInCU: 0x1E5E, offset: 0x41AB5, size: 0x8, addend: 0x0, symName: _glad_glDisableVertexAttribArray, symObjAddr: 0x29E68, symBinAddr: 0x100154FF8, symSize: 0x0 }
  - { offsetInCU: 0x1E81, offset: 0x41AD8, size: 0x8, addend: 0x0, symName: _glad_glGetQueryiv, symObjAddr: 0x29E70, symBinAddr: 0x100155000, symSize: 0x0 }
  - { offsetInCU: 0x1EBA, offset: 0x41B11, size: 0x8, addend: 0x0, symName: _glad_glTexCoord4f, symObjAddr: 0x29E78, symBinAddr: 0x100155008, symSize: 0x0 }
  - { offsetInCU: 0x1EF8, offset: 0x41B4F, size: 0x8, addend: 0x0, symName: _glad_glTexCoord4d, symObjAddr: 0x29E80, symBinAddr: 0x100155010, symSize: 0x0 }
  - { offsetInCU: 0x1F36, offset: 0x41B8D, size: 0x8, addend: 0x0, symName: _glad_glGetSamplerParameterfv, symObjAddr: 0x29E88, symBinAddr: 0x100155018, symSize: 0x0 }
  - { offsetInCU: 0x1F6F, offset: 0x41BC6, size: 0x8, addend: 0x0, symName: _glad_glTexCoord4i, symObjAddr: 0x29E90, symBinAddr: 0x100155020, symSize: 0x0 }
  - { offsetInCU: 0x1FAD, offset: 0x41C04, size: 0x8, addend: 0x0, symName: _glad_glMaterialf, symObjAddr: 0x29E98, symBinAddr: 0x100155028, symSize: 0x0 }
  - { offsetInCU: 0x1FE6, offset: 0x41C3D, size: 0x8, addend: 0x0, symName: _glad_glTexCoord4s, symObjAddr: 0x29EA0, symBinAddr: 0x100155030, symSize: 0x0 }
  - { offsetInCU: 0x2024, offset: 0x41C7B, size: 0x8, addend: 0x0, symName: _glad_glGetUniformIndices, symObjAddr: 0x29EA8, symBinAddr: 0x100155038, symSize: 0x0 }
  - { offsetInCU: 0x206C, offset: 0x41CC3, size: 0x8, addend: 0x0, symName: _glad_glIsShader, symObjAddr: 0x29EB0, symBinAddr: 0x100155040, symSize: 0x0 }
  - { offsetInCU: 0x208F, offset: 0x41CE6, size: 0x8, addend: 0x0, symName: _glad_glMultiTexCoord2s, symObjAddr: 0x29EB8, symBinAddr: 0x100155048, symSize: 0x0 }
  - { offsetInCU: 0x20C8, offset: 0x41D1F, size: 0x8, addend: 0x0, symName: _glad_glVertexAttribI4ubv, symObjAddr: 0x29EC0, symBinAddr: 0x100155050, symSize: 0x0 }
  - { offsetInCU: 0x20EB, offset: 0x41D42, size: 0x8, addend: 0x0, symName: _glad_glVertex3dv, symObjAddr: 0x29EC8, symBinAddr: 0x100155058, symSize: 0x0 }
  - { offsetInCU: 0x210E, offset: 0x41D65, size: 0x8, addend: 0x0, symName: _glad_glGetInteger64v, symObjAddr: 0x29ED0, symBinAddr: 0x100155060, symSize: 0x0 }
  - { offsetInCU: 0x2142, offset: 0x41D99, size: 0x8, addend: 0x0, symName: _glad_glPointParameteriv, symObjAddr: 0x29ED8, symBinAddr: 0x100155068, symSize: 0x0 }
  - { offsetInCU: 0x2165, offset: 0x41DBC, size: 0x8, addend: 0x0, symName: _glad_glEnable, symObjAddr: 0x29EE0, symBinAddr: 0x100155070, symSize: 0x0 }
  - { offsetInCU: 0x2188, offset: 0x41DDF, size: 0x8, addend: 0x0, symName: _glad_glGetActiveUniformsiv, symObjAddr: 0x29EE8, symBinAddr: 0x100155078, symSize: 0x0 }
  - { offsetInCU: 0x21CB, offset: 0x41E22, size: 0x8, addend: 0x0, symName: _glad_glColor4fv, symObjAddr: 0x29EF0, symBinAddr: 0x100155080, symSize: 0x0 }
  - { offsetInCU: 0x21EE, offset: 0x41E45, size: 0x8, addend: 0x0, symName: _glad_glTexCoord1fv, symObjAddr: 0x29EF8, symBinAddr: 0x100155088, symSize: 0x0 }
  - { offsetInCU: 0x2211, offset: 0x41E68, size: 0x8, addend: 0x0, symName: _glad_glTexCoord2sv, symObjAddr: 0x29F00, symBinAddr: 0x100155090, symSize: 0x0 }
  - { offsetInCU: 0x2234, offset: 0x41E8B, size: 0x8, addend: 0x0, symName: _glad_glVertexAttrib4dv, symObjAddr: 0x29F08, symBinAddr: 0x100155098, symSize: 0x0 }
  - { offsetInCU: 0x2257, offset: 0x41EAE, size: 0x8, addend: 0x0, symName: _glad_glMultiTexCoord1dv, symObjAddr: 0x29F10, symBinAddr: 0x1001550A0, symSize: 0x0 }
  - { offsetInCU: 0x228B, offset: 0x41EE2, size: 0x8, addend: 0x0, symName: _glad_glMultiTexCoord2i, symObjAddr: 0x29F18, symBinAddr: 0x1001550A8, symSize: 0x0 }
  - { offsetInCU: 0x22C4, offset: 0x41F1B, size: 0x8, addend: 0x0, symName: _glad_glTexCoord3fv, symObjAddr: 0x29F20, symBinAddr: 0x1001550B0, symSize: 0x0 }
  - { offsetInCU: 0x22E7, offset: 0x41F3E, size: 0x8, addend: 0x0, symName: _glad_glSecondaryColor3usv, symObjAddr: 0x29F28, symBinAddr: 0x1001550B8, symSize: 0x0 }
  - { offsetInCU: 0x2332, offset: 0x41F89, size: 0x8, addend: 0x0, symName: _glad_glTexGenf, symObjAddr: 0x29F30, symBinAddr: 0x1001550C0, symSize: 0x0 }
  - { offsetInCU: 0x2355, offset: 0x41FAC, size: 0x8, addend: 0x0, symName: _glad_glMultiTexCoordP3uiv, symObjAddr: 0x29F38, symBinAddr: 0x1001550C8, symSize: 0x0 }
  - { offsetInCU: 0x238E, offset: 0x41FE5, size: 0x8, addend: 0x0, symName: _glad_glVertexAttribP3ui, symObjAddr: 0x29F40, symBinAddr: 0x1001550D0, symSize: 0x0 }
  - { offsetInCU: 0x23B1, offset: 0x42008, size: 0x8, addend: 0x0, symName: _glad_glMultiTexCoordP1ui, symObjAddr: 0x29F48, symBinAddr: 0x1001550D8, symSize: 0x0 }
  - { offsetInCU: 0x23D4, offset: 0x4202B, size: 0x8, addend: 0x0, symName: _glad_glGetPointerv, symObjAddr: 0x29F50, symBinAddr: 0x1001550E0, symSize: 0x0 }
  - { offsetInCU: 0x240D, offset: 0x42064, size: 0x8, addend: 0x0, symName: _glad_glPolygonOffset, symObjAddr: 0x29F58, symBinAddr: 0x1001550E8, symSize: 0x0 }
  - { offsetInCU: 0x2430, offset: 0x42087, size: 0x8, addend: 0x0, symName: _glad_glGetUniformuiv, symObjAddr: 0x29F60, symBinAddr: 0x1001550F0, symSize: 0x0 }
  - { offsetInCU: 0x2469, offset: 0x420C0, size: 0x8, addend: 0x0, symName: _glad_glNormal3fv, symObjAddr: 0x29F68, symBinAddr: 0x1001550F8, symSize: 0x0 }
  - { offsetInCU: 0x248C, offset: 0x420E3, size: 0x8, addend: 0x0, symName: _glad_glSecondaryColor3s, symObjAddr: 0x29F70, symBinAddr: 0x100155100, symSize: 0x0 }
  - { offsetInCU: 0x24AF, offset: 0x42106, size: 0x8, addend: 0x0, symName: _glad_glDepthRange, symObjAddr: 0x29F78, symBinAddr: 0x100155108, symSize: 0x0 }
  - { offsetInCU: 0x24D2, offset: 0x42129, size: 0x8, addend: 0x0, symName: _glad_glFrustum, symObjAddr: 0x29F80, symBinAddr: 0x100155110, symSize: 0x0 }
  - { offsetInCU: 0x251A, offset: 0x42171, size: 0x8, addend: 0x0, symName: _glad_glMultiTexCoord4sv, symObjAddr: 0x29F88, symBinAddr: 0x100155118, symSize: 0x0 }
  - { offsetInCU: 0x254E, offset: 0x421A5, size: 0x8, addend: 0x0, symName: _glad_glDrawBuffer, symObjAddr: 0x29F90, symBinAddr: 0x100155120, symSize: 0x0 }
  - { offsetInCU: 0x2571, offset: 0x421C8, size: 0x8, addend: 0x0, symName: _glad_glPushMatrix, symObjAddr: 0x29F98, symBinAddr: 0x100155128, symSize: 0x0 }
  - { offsetInCU: 0x2594, offset: 0x421EB, size: 0x8, addend: 0x0, symName: _glad_glRasterPos3fv, symObjAddr: 0x29FA0, symBinAddr: 0x100155130, symSize: 0x0 }
  - { offsetInCU: 0x25B7, offset: 0x4220E, size: 0x8, addend: 0x0, symName: _glad_glOrtho, symObjAddr: 0x29FA8, symBinAddr: 0x100155138, symSize: 0x0 }
  - { offsetInCU: 0x25DA, offset: 0x42231, size: 0x8, addend: 0x0, symName: _glad_glDrawElementsInstanced, symObjAddr: 0x29FB0, symBinAddr: 0x100155140, symSize: 0x0 }
  - { offsetInCU: 0x261D, offset: 0x42274, size: 0x8, addend: 0x0, symName: _glad_glWindowPos3sv, symObjAddr: 0x29FB8, symBinAddr: 0x100155148, symSize: 0x0 }
  - { offsetInCU: 0x2640, offset: 0x42297, size: 0x8, addend: 0x0, symName: _glad_glClearIndex, symObjAddr: 0x29FC0, symBinAddr: 0x100155150, symSize: 0x0 }
  - { offsetInCU: 0x2663, offset: 0x422BA, size: 0x8, addend: 0x0, symName: _glad_glMap1d, symObjAddr: 0x29FC8, symBinAddr: 0x100155158, symSize: 0x0 }
  - { offsetInCU: 0x26AB, offset: 0x42302, size: 0x8, addend: 0x0, symName: _glad_glMap1f, symObjAddr: 0x29FD0, symBinAddr: 0x100155160, symSize: 0x0 }
  - { offsetInCU: 0x26F3, offset: 0x4234A, size: 0x8, addend: 0x0, symName: _glad_glFlush, symObjAddr: 0x29FD8, symBinAddr: 0x100155168, symSize: 0x0 }
  - { offsetInCU: 0x2716, offset: 0x4236D, size: 0x8, addend: 0x0, symName: _glad_glGetRenderbufferParameteriv, symObjAddr: 0x29FE0, symBinAddr: 0x100155170, symSize: 0x0 }
  - { offsetInCU: 0x2739, offset: 0x42390, size: 0x8, addend: 0x0, symName: _glad_glIndexiv, symObjAddr: 0x29FE8, symBinAddr: 0x100155178, symSize: 0x0 }
  - { offsetInCU: 0x275C, offset: 0x423B3, size: 0x8, addend: 0x0, symName: _glad_glRasterPos3sv, symObjAddr: 0x29FF0, symBinAddr: 0x100155180, symSize: 0x0 }
  - { offsetInCU: 0x277F, offset: 0x423D6, size: 0x8, addend: 0x0, symName: _glad_glGetVertexAttribPointerv, symObjAddr: 0x29FF8, symBinAddr: 0x100155188, symSize: 0x0 }
  - { offsetInCU: 0x27B8, offset: 0x4240F, size: 0x8, addend: 0x0, symName: _glad_glPixelZoom, symObjAddr: 0x2A000, symBinAddr: 0x100155190, symSize: 0x0 }
  - { offsetInCU: 0x27DB, offset: 0x42432, size: 0x8, addend: 0x0, symName: _glad_glFenceSync, symObjAddr: 0x2A008, symBinAddr: 0x100155198, symSize: 0x0 }
  - { offsetInCU: 0x2829, offset: 0x42480, size: 0x8, addend: 0x0, symName: _glad_glDeleteVertexArrays, symObjAddr: 0x2A010, symBinAddr: 0x1001551A0, symSize: 0x0 }
  - { offsetInCU: 0x284C, offset: 0x424A3, size: 0x8, addend: 0x0, symName: _glad_glColorP3ui, symObjAddr: 0x2A018, symBinAddr: 0x1001551A8, symSize: 0x0 }
  - { offsetInCU: 0x286F, offset: 0x424C6, size: 0x8, addend: 0x0, symName: _glad_glVertexAttrib3sv, symObjAddr: 0x2A020, symBinAddr: 0x1001551B0, symSize: 0x0 }
  - { offsetInCU: 0x2892, offset: 0x424E9, size: 0x8, addend: 0x0, symName: _glad_glBeginConditionalRender, symObjAddr: 0x2A028, symBinAddr: 0x1001551B8, symSize: 0x0 }
  - { offsetInCU: 0x28C6, offset: 0x4251D, size: 0x8, addend: 0x0, symName: _glad_glDrawElementsBaseVertex, symObjAddr: 0x2A030, symBinAddr: 0x1001551C0, symSize: 0x0 }
  - { offsetInCU: 0x2909, offset: 0x42560, size: 0x8, addend: 0x0, symName: _glad_glGetTexLevelParameteriv, symObjAddr: 0x2A038, symBinAddr: 0x1001551C8, symSize: 0x0 }
  - { offsetInCU: 0x2947, offset: 0x4259E, size: 0x8, addend: 0x0, symName: _glad_glLighti, symObjAddr: 0x2A040, symBinAddr: 0x1001551D0, symSize: 0x0 }
  - { offsetInCU: 0x296A, offset: 0x425C1, size: 0x8, addend: 0x0, symName: _glad_glMultiTexCoordP4uiv, symObjAddr: 0x2A048, symBinAddr: 0x1001551D8, symSize: 0x0 }
  - { offsetInCU: 0x298D, offset: 0x425E4, size: 0x8, addend: 0x0, symName: _glad_glLightf, symObjAddr: 0x2A050, symBinAddr: 0x1001551E0, symSize: 0x0 }
  - { offsetInCU: 0x29B0, offset: 0x42607, size: 0x8, addend: 0x0, symName: _glad_glGetAttribLocation, symObjAddr: 0x2A058, symBinAddr: 0x1001551E8, symSize: 0x0 }
  - { offsetInCU: 0x29D3, offset: 0x4262A, size: 0x8, addend: 0x0, symName: _glad_glStencilFuncSeparate, symObjAddr: 0x2A060, symBinAddr: 0x1001551F0, symSize: 0x0 }
  - { offsetInCU: 0x2A11, offset: 0x42668, size: 0x8, addend: 0x0, symName: _glad_glGenSamplers, symObjAddr: 0x2A068, symBinAddr: 0x1001551F8, symSize: 0x0 }
  - { offsetInCU: 0x2A34, offset: 0x4268B, size: 0x8, addend: 0x0, symName: _glad_glClampColor, symObjAddr: 0x2A070, symBinAddr: 0x100155200, symSize: 0x0 }
  - { offsetInCU: 0x2A68, offset: 0x426BF, size: 0x8, addend: 0x0, symName: _glad_glUniform4iv, symObjAddr: 0x2A078, symBinAddr: 0x100155208, symSize: 0x0 }
  - { offsetInCU: 0x2AA1, offset: 0x426F8, size: 0x8, addend: 0x0, symName: _glad_glClearStencil, symObjAddr: 0x2A080, symBinAddr: 0x100155210, symSize: 0x0 }
  - { offsetInCU: 0x2AC4, offset: 0x4271B, size: 0x8, addend: 0x0, symName: _glad_glTexCoordP1uiv, symObjAddr: 0x2A088, symBinAddr: 0x100155218, symSize: 0x0 }
  - { offsetInCU: 0x2AE7, offset: 0x4273E, size: 0x8, addend: 0x0, symName: _glad_glMultiTexCoord3fv, symObjAddr: 0x2A090, symBinAddr: 0x100155220, symSize: 0x0 }
  - { offsetInCU: 0x2B0A, offset: 0x42761, size: 0x8, addend: 0x0, symName: _glad_glGetPixelMapuiv, symObjAddr: 0x2A098, symBinAddr: 0x100155228, symSize: 0x0 }
  - { offsetInCU: 0x2B3E, offset: 0x42795, size: 0x8, addend: 0x0, symName: _glad_glGenTextures, symObjAddr: 0x2A0A0, symBinAddr: 0x100155230, symSize: 0x0 }
  - { offsetInCU: 0x2B61, offset: 0x427B8, size: 0x8, addend: 0x0, symName: _glad_glTexCoord4iv, symObjAddr: 0x2A0A8, symBinAddr: 0x100155238, symSize: 0x0 }
  - { offsetInCU: 0x2B84, offset: 0x427DB, size: 0x8, addend: 0x0, symName: _glad_glGetTexParameterIuiv, symObjAddr: 0x2A0B0, symBinAddr: 0x100155240, symSize: 0x0 }
  - { offsetInCU: 0x2BBD, offset: 0x42814, size: 0x8, addend: 0x0, symName: _glad_glIndexPointer, symObjAddr: 0x2A0B8, symBinAddr: 0x100155248, symSize: 0x0 }
  - { offsetInCU: 0x2BE0, offset: 0x42837, size: 0x8, addend: 0x0, symName: _glad_glVertexAttrib4Nbv, symObjAddr: 0x2A0C0, symBinAddr: 0x100155250, symSize: 0x0 }
  - { offsetInCU: 0x2C14, offset: 0x4286B, size: 0x8, addend: 0x0, symName: _glad_glIsSync, symObjAddr: 0x2A0C8, symBinAddr: 0x100155258, symSize: 0x0 }
  - { offsetInCU: 0x2C48, offset: 0x4289F, size: 0x8, addend: 0x0, symName: _glad_glVertex2f, symObjAddr: 0x2A0D0, symBinAddr: 0x100155260, symSize: 0x0 }
  - { offsetInCU: 0x2C6B, offset: 0x428C2, size: 0x8, addend: 0x0, symName: _glad_glVertex2d, symObjAddr: 0x2A0D8, symBinAddr: 0x100155268, symSize: 0x0 }
  - { offsetInCU: 0x2C8E, offset: 0x428E5, size: 0x8, addend: 0x0, symName: _glad_glDeleteRenderbuffers, symObjAddr: 0x2A0E0, symBinAddr: 0x100155270, symSize: 0x0 }
  - { offsetInCU: 0x2CB1, offset: 0x42908, size: 0x8, addend: 0x0, symName: _glad_glUniform2i, symObjAddr: 0x2A0E8, symBinAddr: 0x100155278, symSize: 0x0 }
  - { offsetInCU: 0x2CD4, offset: 0x4292B, size: 0x8, addend: 0x0, symName: _glad_glMapGrid2d, symObjAddr: 0x2A0F0, symBinAddr: 0x100155280, symSize: 0x0 }
  - { offsetInCU: 0x2D1C, offset: 0x42973, size: 0x8, addend: 0x0, symName: _glad_glMapGrid2f, symObjAddr: 0x2A0F8, symBinAddr: 0x100155288, symSize: 0x0 }
  - { offsetInCU: 0x2D64, offset: 0x429BB, size: 0x8, addend: 0x0, symName: _glad_glTexCoordP4ui, symObjAddr: 0x2A100, symBinAddr: 0x100155290, symSize: 0x0 }
  - { offsetInCU: 0x2D87, offset: 0x429DE, size: 0x8, addend: 0x0, symName: _glad_glVertex2i, symObjAddr: 0x2A108, symBinAddr: 0x100155298, symSize: 0x0 }
  - { offsetInCU: 0x2DAA, offset: 0x42A01, size: 0x8, addend: 0x0, symName: _glad_glVertexAttribPointer, symObjAddr: 0x2A110, symBinAddr: 0x1001552A0, symSize: 0x0 }
  - { offsetInCU: 0x2DF2, offset: 0x42A49, size: 0x8, addend: 0x0, symName: _glad_glFramebufferTextureLayer, symObjAddr: 0x2A118, symBinAddr: 0x1001552A8, symSize: 0x0 }
  - { offsetInCU: 0x2E35, offset: 0x42A8C, size: 0x8, addend: 0x0, symName: _glad_glVertex2s, symObjAddr: 0x2A120, symBinAddr: 0x1001552B0, symSize: 0x0 }
  - { offsetInCU: 0x2E58, offset: 0x42AAF, size: 0x8, addend: 0x0, symName: _glad_glNormal3bv, symObjAddr: 0x2A128, symBinAddr: 0x1001552B8, symSize: 0x0 }
  - { offsetInCU: 0x2E7B, offset: 0x42AD2, size: 0x8, addend: 0x0, symName: _glad_glVertexAttrib4Nuiv, symObjAddr: 0x2A130, symBinAddr: 0x1001552C0, symSize: 0x0 }
  - { offsetInCU: 0x2EAF, offset: 0x42B06, size: 0x8, addend: 0x0, symName: _glad_glFlushMappedBufferRange, symObjAddr: 0x2A138, symBinAddr: 0x1001552C8, symSize: 0x0 }
  - { offsetInCU: 0x2F05, offset: 0x42B5C, size: 0x8, addend: 0x0, symName: _glad_glSecondaryColor3sv, symObjAddr: 0x2A140, symBinAddr: 0x1001552D0, symSize: 0x0 }
  - { offsetInCU: 0x2F28, offset: 0x42B7F, size: 0x8, addend: 0x0, symName: _glad_glVertex3sv, symObjAddr: 0x2A148, symBinAddr: 0x1001552D8, symSize: 0x0 }
  - { offsetInCU: 0x2F4B, offset: 0x42BA2, size: 0x8, addend: 0x0, symName: _glad_glGenQueries, symObjAddr: 0x2A150, symBinAddr: 0x1001552E0, symSize: 0x0 }
  - { offsetInCU: 0x2F6E, offset: 0x42BC5, size: 0x8, addend: 0x0, symName: _glad_glGetPixelMapfv, symObjAddr: 0x2A158, symBinAddr: 0x1001552E8, symSize: 0x0 }
  - { offsetInCU: 0x2FA2, offset: 0x42BF9, size: 0x8, addend: 0x0, symName: _glad_glTexEnvf, symObjAddr: 0x2A160, symBinAddr: 0x1001552F0, symSize: 0x0 }
  - { offsetInCU: 0x2FC5, offset: 0x42C1C, size: 0x8, addend: 0x0, symName: _glad_glVertexAttribP1ui, symObjAddr: 0x2A168, symBinAddr: 0x1001552F8, symSize: 0x0 }
  - { offsetInCU: 0x2FE8, offset: 0x42C3F, size: 0x8, addend: 0x0, symName: _glad_glTexSubImage3D, symObjAddr: 0x2A170, symBinAddr: 0x100155300, symSize: 0x0 }
  - { offsetInCU: 0x3049, offset: 0x42CA0, size: 0x8, addend: 0x0, symName: _glad_glGetInteger64i_v, symObjAddr: 0x2A178, symBinAddr: 0x100155308, symSize: 0x0 }
  - { offsetInCU: 0x3082, offset: 0x42CD9, size: 0x8, addend: 0x0, symName: _glad_glFogCoordd, symObjAddr: 0x2A180, symBinAddr: 0x100155310, symSize: 0x0 }
  - { offsetInCU: 0x30A5, offset: 0x42CFC, size: 0x8, addend: 0x0, symName: _glad_glFogCoordf, symObjAddr: 0x2A188, symBinAddr: 0x100155318, symSize: 0x0 }
  - { offsetInCU: 0x30C8, offset: 0x42D1F, size: 0x8, addend: 0x0, symName: _glad_glCopyTexImage2D, symObjAddr: 0x2A190, symBinAddr: 0x100155320, symSize: 0x0 }
  - { offsetInCU: 0x311A, offset: 0x42D71, size: 0x8, addend: 0x0, symName: _glad_glTexEnvi, symObjAddr: 0x2A198, symBinAddr: 0x100155328, symSize: 0x0 }
  - { offsetInCU: 0x313D, offset: 0x42D94, size: 0x8, addend: 0x0, symName: _glad_glMultiTexCoord1iv, symObjAddr: 0x2A1A0, symBinAddr: 0x100155330, symSize: 0x0 }
  - { offsetInCU: 0x3160, offset: 0x42DB7, size: 0x8, addend: 0x0, symName: _glad_glIsEnabledi, symObjAddr: 0x2A1A8, symBinAddr: 0x100155338, symSize: 0x0 }
  - { offsetInCU: 0x3199, offset: 0x42DF0, size: 0x8, addend: 0x0, symName: _glad_glSecondaryColorP3ui, symObjAddr: 0x2A1B0, symBinAddr: 0x100155340, symSize: 0x0 }
  - { offsetInCU: 0x31BC, offset: 0x42E13, size: 0x8, addend: 0x0, symName: _glad_glVertexAttribI2i, symObjAddr: 0x2A1B8, symBinAddr: 0x100155348, symSize: 0x0 }
  - { offsetInCU: 0x31F5, offset: 0x42E4C, size: 0x8, addend: 0x0, symName: _glad_glBindFragDataLocationIndexed, symObjAddr: 0x2A1C0, symBinAddr: 0x100155350, symSize: 0x0 }
  - { offsetInCU: 0x3233, offset: 0x42E8A, size: 0x8, addend: 0x0, symName: _glad_glMultiTexCoord2dv, symObjAddr: 0x2A1C8, symBinAddr: 0x100155358, symSize: 0x0 }
  - { offsetInCU: 0x3256, offset: 0x42EAD, size: 0x8, addend: 0x0, symName: _glad_glUniform2iv, symObjAddr: 0x2A1D0, symBinAddr: 0x100155360, symSize: 0x0 }
  - { offsetInCU: 0x3279, offset: 0x42ED0, size: 0x8, addend: 0x0, symName: _glad_glVertexAttrib1fv, symObjAddr: 0x2A1D8, symBinAddr: 0x100155368, symSize: 0x0 }
  - { offsetInCU: 0x32AD, offset: 0x42F04, size: 0x8, addend: 0x0, symName: _glad_glUniform4uiv, symObjAddr: 0x2A1E0, symBinAddr: 0x100155370, symSize: 0x0 }
  - { offsetInCU: 0x32E6, offset: 0x42F3D, size: 0x8, addend: 0x0, symName: _glad_glMatrixMode, symObjAddr: 0x2A1E8, symBinAddr: 0x100155378, symSize: 0x0 }
  - { offsetInCU: 0x3309, offset: 0x42F60, size: 0x8, addend: 0x0, symName: _glad_glFeedbackBuffer, symObjAddr: 0x2A1F0, symBinAddr: 0x100155380, symSize: 0x0 }
  - { offsetInCU: 0x3342, offset: 0x42F99, size: 0x8, addend: 0x0, symName: _glad_glGetMapiv, symObjAddr: 0x2A1F8, symBinAddr: 0x100155388, symSize: 0x0 }
  - { offsetInCU: 0x3365, offset: 0x42FBC, size: 0x8, addend: 0x0, symName: _glad_glFramebufferTexture1D, symObjAddr: 0x2A200, symBinAddr: 0x100155390, symSize: 0x0 }
  - { offsetInCU: 0x3388, offset: 0x42FDF, size: 0x8, addend: 0x0, symName: _glad_glGetShaderiv, symObjAddr: 0x2A208, symBinAddr: 0x100155398, symSize: 0x0 }
  - { offsetInCU: 0x33AB, offset: 0x43002, size: 0x8, addend: 0x0, symName: _glad_glMultiTexCoord2d, symObjAddr: 0x2A210, symBinAddr: 0x1001553A0, symSize: 0x0 }
  - { offsetInCU: 0x33E4, offset: 0x4303B, size: 0x8, addend: 0x0, symName: _glad_glMultiTexCoord2f, symObjAddr: 0x2A218, symBinAddr: 0x1001553A8, symSize: 0x0 }
  - { offsetInCU: 0x341D, offset: 0x43074, size: 0x8, addend: 0x0, symName: _glad_glBindFragDataLocation, symObjAddr: 0x2A220, symBinAddr: 0x1001553B0, symSize: 0x0 }
  - { offsetInCU: 0x3456, offset: 0x430AD, size: 0x8, addend: 0x0, symName: _glad_glPrioritizeTextures, symObjAddr: 0x2A228, symBinAddr: 0x1001553B8, symSize: 0x0 }
  - { offsetInCU: 0x348F, offset: 0x430E6, size: 0x8, addend: 0x0, symName: _glad_glCallList, symObjAddr: 0x2A230, symBinAddr: 0x1001553C0, symSize: 0x0 }
  - { offsetInCU: 0x34B2, offset: 0x43109, size: 0x8, addend: 0x0, symName: _glad_glSecondaryColor3ubv, symObjAddr: 0x2A238, symBinAddr: 0x1001553C8, symSize: 0x0 }
  - { offsetInCU: 0x34D5, offset: 0x4312C, size: 0x8, addend: 0x0, symName: _glad_glGetDoublev, symObjAddr: 0x2A240, symBinAddr: 0x1001553D0, symSize: 0x0 }
  - { offsetInCU: 0x3509, offset: 0x43160, size: 0x8, addend: 0x0, symName: _glad_glMultiTexCoord3iv, symObjAddr: 0x2A248, symBinAddr: 0x1001553D8, symSize: 0x0 }
  - { offsetInCU: 0x352C, offset: 0x43183, size: 0x8, addend: 0x0, symName: _glad_glVertexAttrib1d, symObjAddr: 0x2A250, symBinAddr: 0x1001553E0, symSize: 0x0 }
  - { offsetInCU: 0x3560, offset: 0x431B7, size: 0x8, addend: 0x0, symName: _glad_glLightModelf, symObjAddr: 0x2A258, symBinAddr: 0x1001553E8, symSize: 0x0 }
  - { offsetInCU: 0x3583, offset: 0x431DA, size: 0x8, addend: 0x0, symName: _glad_glGetUniformiv, symObjAddr: 0x2A260, symBinAddr: 0x1001553F0, symSize: 0x0 }
  - { offsetInCU: 0x35BC, offset: 0x43213, size: 0x8, addend: 0x0, symName: _glad_glVertex2sv, symObjAddr: 0x2A268, symBinAddr: 0x1001553F8, symSize: 0x0 }
  - { offsetInCU: 0x35DF, offset: 0x43236, size: 0x8, addend: 0x0, symName: _glad_glLightModeli, symObjAddr: 0x2A270, symBinAddr: 0x100155400, symSize: 0x0 }
  - { offsetInCU: 0x3602, offset: 0x43259, size: 0x8, addend: 0x0, symName: _glad_glWindowPos3iv, symObjAddr: 0x2A278, symBinAddr: 0x100155408, symSize: 0x0 }
  - { offsetInCU: 0x3625, offset: 0x4327C, size: 0x8, addend: 0x0, symName: _glad_glMultiTexCoordP1uiv, symObjAddr: 0x2A280, symBinAddr: 0x100155410, symSize: 0x0 }
  - { offsetInCU: 0x3648, offset: 0x4329F, size: 0x8, addend: 0x0, symName: _glad_glUniform3fv, symObjAddr: 0x2A288, symBinAddr: 0x100155418, symSize: 0x0 }
  - { offsetInCU: 0x3681, offset: 0x432D8, size: 0x8, addend: 0x0, symName: _glad_glPixelStorei, symObjAddr: 0x2A290, symBinAddr: 0x100155420, symSize: 0x0 }
  - { offsetInCU: 0x36A4, offset: 0x432FB, size: 0x8, addend: 0x0, symName: _glad_glCallLists, symObjAddr: 0x2A298, symBinAddr: 0x100155428, symSize: 0x0 }
  - { offsetInCU: 0x36DD, offset: 0x43334, size: 0x8, addend: 0x0, symName: _glad_glMapBuffer, symObjAddr: 0x2A2A0, symBinAddr: 0x100155430, symSize: 0x0 }
  - { offsetInCU: 0x3716, offset: 0x4336D, size: 0x8, addend: 0x0, symName: _glad_glSecondaryColor3d, symObjAddr: 0x2A2A8, symBinAddr: 0x100155438, symSize: 0x0 }
  - { offsetInCU: 0x3739, offset: 0x43390, size: 0x8, addend: 0x0, symName: _glad_glTexCoord3i, symObjAddr: 0x2A2B0, symBinAddr: 0x100155440, symSize: 0x0 }
  - { offsetInCU: 0x375C, offset: 0x433B3, size: 0x8, addend: 0x0, symName: _glad_glMultiTexCoord4fv, symObjAddr: 0x2A2B8, symBinAddr: 0x100155448, symSize: 0x0 }
  - { offsetInCU: 0x377F, offset: 0x433D6, size: 0x8, addend: 0x0, symName: _glad_glRasterPos3i, symObjAddr: 0x2A2C0, symBinAddr: 0x100155450, symSize: 0x0 }
  - { offsetInCU: 0x37A2, offset: 0x433F9, size: 0x8, addend: 0x0, symName: _glad_glSecondaryColor3b, symObjAddr: 0x2A2C8, symBinAddr: 0x100155458, symSize: 0x0 }
  - { offsetInCU: 0x37C5, offset: 0x4341C, size: 0x8, addend: 0x0, symName: _glad_glRasterPos3d, symObjAddr: 0x2A2D0, symBinAddr: 0x100155460, symSize: 0x0 }
  - { offsetInCU: 0x37E8, offset: 0x4343F, size: 0x8, addend: 0x0, symName: _glad_glRasterPos3f, symObjAddr: 0x2A2D8, symBinAddr: 0x100155468, symSize: 0x0 }
  - { offsetInCU: 0x380B, offset: 0x43462, size: 0x8, addend: 0x0, symName: _glad_glCompressedTexImage3D, symObjAddr: 0x2A2E0, symBinAddr: 0x100155470, symSize: 0x0 }
  - { offsetInCU: 0x3862, offset: 0x434B9, size: 0x8, addend: 0x0, symName: _glad_glTexCoord3f, symObjAddr: 0x2A2E8, symBinAddr: 0x100155478, symSize: 0x0 }
  - { offsetInCU: 0x3885, offset: 0x434DC, size: 0x8, addend: 0x0, symName: _glad_glDeleteSync, symObjAddr: 0x2A2F0, symBinAddr: 0x100155480, symSize: 0x0 }
  - { offsetInCU: 0x38B4, offset: 0x4350B, size: 0x8, addend: 0x0, symName: _glad_glTexCoord3d, symObjAddr: 0x2A2F8, symBinAddr: 0x100155488, symSize: 0x0 }
  - { offsetInCU: 0x38D7, offset: 0x4352E, size: 0x8, addend: 0x0, symName: _glad_glTexImage2DMultisample, symObjAddr: 0x2A300, symBinAddr: 0x100155490, symSize: 0x0 }
  - { offsetInCU: 0x391F, offset: 0x43576, size: 0x8, addend: 0x0, symName: _glad_glGetVertexAttribiv, symObjAddr: 0x2A308, symBinAddr: 0x100155498, symSize: 0x0 }
  - { offsetInCU: 0x3942, offset: 0x43599, size: 0x8, addend: 0x0, symName: _glad_glMultiDrawElements, symObjAddr: 0x2A310, symBinAddr: 0x1001554A0, symSize: 0x0 }
  - { offsetInCU: 0x3999, offset: 0x435F0, size: 0x8, addend: 0x0, symName: _glad_glVertexAttrib3fv, symObjAddr: 0x2A318, symBinAddr: 0x1001554A8, symSize: 0x0 }
  - { offsetInCU: 0x39BC, offset: 0x43613, size: 0x8, addend: 0x0, symName: _glad_glTexCoord3s, symObjAddr: 0x2A320, symBinAddr: 0x1001554B0, symSize: 0x0 }
  - { offsetInCU: 0x39DF, offset: 0x43636, size: 0x8, addend: 0x0, symName: _glad_glUniform3iv, symObjAddr: 0x2A328, symBinAddr: 0x1001554B8, symSize: 0x0 }
  - { offsetInCU: 0x3A02, offset: 0x43659, size: 0x8, addend: 0x0, symName: _glad_glRasterPos3s, symObjAddr: 0x2A330, symBinAddr: 0x1001554C0, symSize: 0x0 }
  - { offsetInCU: 0x3A25, offset: 0x4367C, size: 0x8, addend: 0x0, symName: _glad_glPolygonMode, symObjAddr: 0x2A338, symBinAddr: 0x1001554C8, symSize: 0x0 }
  - { offsetInCU: 0x3A48, offset: 0x4369F, size: 0x8, addend: 0x0, symName: _glad_glDrawBuffers, symObjAddr: 0x2A340, symBinAddr: 0x1001554D0, symSize: 0x0 }
  - { offsetInCU: 0x3A86, offset: 0x436DD, size: 0x8, addend: 0x0, symName: _glad_glGetActiveUniformBlockiv, symObjAddr: 0x2A348, symBinAddr: 0x1001554D8, symSize: 0x0 }
  - { offsetInCU: 0x3AC4, offset: 0x4371B, size: 0x8, addend: 0x0, symName: _glad_glAreTexturesResident, symObjAddr: 0x2A350, symBinAddr: 0x1001554E0, symSize: 0x0 }
  - { offsetInCU: 0x3B07, offset: 0x4375E, size: 0x8, addend: 0x0, symName: _glad_glIsList, symObjAddr: 0x2A358, symBinAddr: 0x1001554E8, symSize: 0x0 }
  - { offsetInCU: 0x3B2A, offset: 0x43781, size: 0x8, addend: 0x0, symName: _glad_glRasterPos2sv, symObjAddr: 0x2A360, symBinAddr: 0x1001554F0, symSize: 0x0 }
  - { offsetInCU: 0x3B4D, offset: 0x437A4, size: 0x8, addend: 0x0, symName: _glad_glRasterPos4sv, symObjAddr: 0x2A368, symBinAddr: 0x1001554F8, symSize: 0x0 }
  - { offsetInCU: 0x3B70, offset: 0x437C7, size: 0x8, addend: 0x0, symName: _glad_glColor4s, symObjAddr: 0x2A370, symBinAddr: 0x100155500, symSize: 0x0 }
  - { offsetInCU: 0x3B93, offset: 0x437EA, size: 0x8, addend: 0x0, symName: _glad_glUseProgram, symObjAddr: 0x2A378, symBinAddr: 0x100155508, symSize: 0x0 }
  - { offsetInCU: 0x3BB6, offset: 0x4380D, size: 0x8, addend: 0x0, symName: _glad_glLineStipple, symObjAddr: 0x2A380, symBinAddr: 0x100155510, symSize: 0x0 }
  - { offsetInCU: 0x3BEA, offset: 0x43841, size: 0x8, addend: 0x0, symName: _glad_glMultiTexCoord1sv, symObjAddr: 0x2A388, symBinAddr: 0x100155518, symSize: 0x0 }
  - { offsetInCU: 0x3C0D, offset: 0x43864, size: 0x8, addend: 0x0, symName: _glad_glGetProgramInfoLog, symObjAddr: 0x2A390, symBinAddr: 0x100155520, symSize: 0x0 }
  - { offsetInCU: 0x3C30, offset: 0x43887, size: 0x8, addend: 0x0, symName: _glad_glGetBufferParameteriv, symObjAddr: 0x2A398, symBinAddr: 0x100155528, symSize: 0x0 }
  - { offsetInCU: 0x3C53, offset: 0x438AA, size: 0x8, addend: 0x0, symName: _glad_glMultiTexCoord2iv, symObjAddr: 0x2A3A0, symBinAddr: 0x100155530, symSize: 0x0 }
  - { offsetInCU: 0x3C76, offset: 0x438CD, size: 0x8, addend: 0x0, symName: _glad_glUniformMatrix2x4fv, symObjAddr: 0x2A3A8, symBinAddr: 0x100155538, symSize: 0x0 }
  - { offsetInCU: 0x3C99, offset: 0x438F0, size: 0x8, addend: 0x0, symName: _glad_glBindVertexArray, symObjAddr: 0x2A3B0, symBinAddr: 0x100155540, symSize: 0x0 }
  - { offsetInCU: 0x3CBC, offset: 0x43913, size: 0x8, addend: 0x0, symName: _glad_glColor4b, symObjAddr: 0x2A3B8, symBinAddr: 0x100155548, symSize: 0x0 }
  - { offsetInCU: 0x3CFA, offset: 0x43951, size: 0x8, addend: 0x0, symName: _glad_glSecondaryColor3f, symObjAddr: 0x2A3C0, symBinAddr: 0x100155550, symSize: 0x0 }
  - { offsetInCU: 0x3D1D, offset: 0x43974, size: 0x8, addend: 0x0, symName: _glad_glColor4f, symObjAddr: 0x2A3C8, symBinAddr: 0x100155558, symSize: 0x0 }
  - { offsetInCU: 0x3D40, offset: 0x43997, size: 0x8, addend: 0x0, symName: _glad_glColor4d, symObjAddr: 0x2A3D0, symBinAddr: 0x100155560, symSize: 0x0 }
  - { offsetInCU: 0x3D63, offset: 0x439BA, size: 0x8, addend: 0x0, symName: _glad_glColor4i, symObjAddr: 0x2A3D8, symBinAddr: 0x100155568, symSize: 0x0 }
  - { offsetInCU: 0x3D86, offset: 0x439DD, size: 0x8, addend: 0x0, symName: _glad_glSamplerParameterIiv, symObjAddr: 0x2A3E0, symBinAddr: 0x100155570, symSize: 0x0 }
  - { offsetInCU: 0x3DBF, offset: 0x43A16, size: 0x8, addend: 0x0, symName: _glad_glMultiDrawElementsBaseVertex, symObjAddr: 0x2A3E8, symBinAddr: 0x100155578, symSize: 0x0 }
  - { offsetInCU: 0x3E07, offset: 0x43A5E, size: 0x8, addend: 0x0, symName: _glad_glRasterPos3iv, symObjAddr: 0x2A3F0, symBinAddr: 0x100155580, symSize: 0x0 }
  - { offsetInCU: 0x3E2A, offset: 0x43A81, size: 0x8, addend: 0x0, symName: _glad_glVertex2dv, symObjAddr: 0x2A3F8, symBinAddr: 0x100155588, symSize: 0x0 }
  - { offsetInCU: 0x3E4D, offset: 0x43AA4, size: 0x8, addend: 0x0, symName: _glad_glTexCoord4sv, symObjAddr: 0x2A400, symBinAddr: 0x100155590, symSize: 0x0 }
  - { offsetInCU: 0x3E70, offset: 0x43AC7, size: 0x8, addend: 0x0, symName: _glad_glUniform2uiv, symObjAddr: 0x2A408, symBinAddr: 0x100155598, symSize: 0x0 }
  - { offsetInCU: 0x3E93, offset: 0x43AEA, size: 0x8, addend: 0x0, symName: _glad_glCompressedTexSubImage1D, symObjAddr: 0x2A410, symBinAddr: 0x1001555A0, symSize: 0x0 }
  - { offsetInCU: 0x3EE0, offset: 0x43B37, size: 0x8, addend: 0x0, symName: _glad_glFinish, symObjAddr: 0x2A418, symBinAddr: 0x1001555A8, symSize: 0x0 }
  - { offsetInCU: 0x3F03, offset: 0x43B5A, size: 0x8, addend: 0x0, symName: _glad_glGetBooleanv, symObjAddr: 0x2A420, symBinAddr: 0x1001555B0, symSize: 0x0 }
  - { offsetInCU: 0x3F37, offset: 0x43B8E, size: 0x8, addend: 0x0, symName: _glad_glDeleteShader, symObjAddr: 0x2A428, symBinAddr: 0x1001555B8, symSize: 0x0 }
  - { offsetInCU: 0x3F5A, offset: 0x43BB1, size: 0x8, addend: 0x0, symName: _glad_glDrawElements, symObjAddr: 0x2A430, symBinAddr: 0x1001555C0, symSize: 0x0 }
  - { offsetInCU: 0x3F98, offset: 0x43BEF, size: 0x8, addend: 0x0, symName: _glad_glRasterPos2s, symObjAddr: 0x2A438, symBinAddr: 0x1001555C8, symSize: 0x0 }
  - { offsetInCU: 0x3FBB, offset: 0x43C12, size: 0x8, addend: 0x0, symName: _glad_glGetMapdv, symObjAddr: 0x2A440, symBinAddr: 0x1001555D0, symSize: 0x0 }
  - { offsetInCU: 0x3FF4, offset: 0x43C4B, size: 0x8, addend: 0x0, symName: _glad_glVertexAttrib4Nsv, symObjAddr: 0x2A448, symBinAddr: 0x1001555D8, symSize: 0x0 }
  - { offsetInCU: 0x4017, offset: 0x43C6E, size: 0x8, addend: 0x0, symName: _glad_glMaterialfv, symObjAddr: 0x2A450, symBinAddr: 0x1001555E0, symSize: 0x0 }
  - { offsetInCU: 0x403A, offset: 0x43C91, size: 0x8, addend: 0x0, symName: _glad_glViewport, symObjAddr: 0x2A458, symBinAddr: 0x1001555E8, symSize: 0x0 }
  - { offsetInCU: 0x4078, offset: 0x43CCF, size: 0x8, addend: 0x0, symName: _glad_glUniform1uiv, symObjAddr: 0x2A460, symBinAddr: 0x1001555F0, symSize: 0x0 }
  - { offsetInCU: 0x409B, offset: 0x43CF2, size: 0x8, addend: 0x0, symName: _glad_glTransformFeedbackVaryings, symObjAddr: 0x2A468, symBinAddr: 0x1001555F8, symSize: 0x0 }
  - { offsetInCU: 0x40D9, offset: 0x43D30, size: 0x8, addend: 0x0, symName: _glad_glIndexdv, symObjAddr: 0x2A470, symBinAddr: 0x100155600, symSize: 0x0 }
  - { offsetInCU: 0x40FC, offset: 0x43D53, size: 0x8, addend: 0x0, symName: _glad_glCopyTexSubImage3D, symObjAddr: 0x2A478, symBinAddr: 0x100155608, symSize: 0x0 }
  - { offsetInCU: 0x4153, offset: 0x43DAA, size: 0x8, addend: 0x0, symName: _glad_glTexCoord3iv, symObjAddr: 0x2A480, symBinAddr: 0x100155610, symSize: 0x0 }
  - { offsetInCU: 0x4176, offset: 0x43DCD, size: 0x8, addend: 0x0, symName: _glad_glVertexAttribI3i, symObjAddr: 0x2A488, symBinAddr: 0x100155618, symSize: 0x0 }
  - { offsetInCU: 0x41B4, offset: 0x43E0B, size: 0x8, addend: 0x0, symName: _glad_glClearDepth, symObjAddr: 0x2A490, symBinAddr: 0x100155620, symSize: 0x0 }
  - { offsetInCU: 0x41D7, offset: 0x43E2E, size: 0x8, addend: 0x0, symName: _glad_glVertexAttribI4usv, symObjAddr: 0x2A498, symBinAddr: 0x100155628, symSize: 0x0 }
  - { offsetInCU: 0x420B, offset: 0x43E62, size: 0x8, addend: 0x0, symName: _glad_glTexParameterf, symObjAddr: 0x2A4A0, symBinAddr: 0x100155630, symSize: 0x0 }
  - { offsetInCU: 0x422E, offset: 0x43E85, size: 0x8, addend: 0x0, symName: _glad_glTexParameteri, symObjAddr: 0x2A4A8, symBinAddr: 0x100155638, symSize: 0x0 }
  - { offsetInCU: 0x4251, offset: 0x43EA8, size: 0x8, addend: 0x0, symName: _glad_glGetShaderSource, symObjAddr: 0x2A4B0, symBinAddr: 0x100155640, symSize: 0x0 }
  - { offsetInCU: 0x4274, offset: 0x43ECB, size: 0x8, addend: 0x0, symName: _glad_glTexBuffer, symObjAddr: 0x2A4B8, symBinAddr: 0x100155648, symSize: 0x0 }
  - { offsetInCU: 0x4297, offset: 0x43EEE, size: 0x8, addend: 0x0, symName: _glad_glPopName, symObjAddr: 0x2A4C0, symBinAddr: 0x100155650, symSize: 0x0 }
  - { offsetInCU: 0x42BA, offset: 0x43F11, size: 0x8, addend: 0x0, symName: _glad_glValidateProgram, symObjAddr: 0x2A4C8, symBinAddr: 0x100155658, symSize: 0x0 }
  - { offsetInCU: 0x42DD, offset: 0x43F34, size: 0x8, addend: 0x0, symName: _glad_glPixelStoref, symObjAddr: 0x2A4D0, symBinAddr: 0x100155660, symSize: 0x0 }
  - { offsetInCU: 0x4300, offset: 0x43F57, size: 0x8, addend: 0x0, symName: _glad_glUniform3uiv, symObjAddr: 0x2A4D8, symBinAddr: 0x100155668, symSize: 0x0 }
  - { offsetInCU: 0x4323, offset: 0x43F7A, size: 0x8, addend: 0x0, symName: _glad_glRasterPos4fv, symObjAddr: 0x2A4E0, symBinAddr: 0x100155670, symSize: 0x0 }
  - { offsetInCU: 0x4346, offset: 0x43F9D, size: 0x8, addend: 0x0, symName: _glad_glEvalCoord1dv, symObjAddr: 0x2A4E8, symBinAddr: 0x100155678, symSize: 0x0 }
  - { offsetInCU: 0x4369, offset: 0x43FC0, size: 0x8, addend: 0x0, symName: _glad_glMultiTexCoordP2uiv, symObjAddr: 0x2A4F0, symBinAddr: 0x100155680, symSize: 0x0 }
  - { offsetInCU: 0x438C, offset: 0x43FE3, size: 0x8, addend: 0x0, symName: _glad_glRecti, symObjAddr: 0x2A4F8, symBinAddr: 0x100155688, symSize: 0x0 }
  - { offsetInCU: 0x43AF, offset: 0x44006, size: 0x8, addend: 0x0, symName: _glad_glColor4ub, symObjAddr: 0x2A500, symBinAddr: 0x100155690, symSize: 0x0 }
  - { offsetInCU: 0x43ED, offset: 0x44044, size: 0x8, addend: 0x0, symName: _glad_glMultTransposeMatrixf, symObjAddr: 0x2A508, symBinAddr: 0x100155698, symSize: 0x0 }
  - { offsetInCU: 0x4410, offset: 0x44067, size: 0x8, addend: 0x0, symName: _glad_glRectf, symObjAddr: 0x2A510, symBinAddr: 0x1001556A0, symSize: 0x0 }
  - { offsetInCU: 0x4433, offset: 0x4408A, size: 0x8, addend: 0x0, symName: _glad_glRectd, symObjAddr: 0x2A518, symBinAddr: 0x1001556A8, symSize: 0x0 }
  - { offsetInCU: 0x4456, offset: 0x440AD, size: 0x8, addend: 0x0, symName: _glad_glNormal3sv, symObjAddr: 0x2A520, symBinAddr: 0x1001556B0, symSize: 0x0 }
  - { offsetInCU: 0x4479, offset: 0x440D0, size: 0x8, addend: 0x0, symName: _glad_glNewList, symObjAddr: 0x2A528, symBinAddr: 0x1001556B8, symSize: 0x0 }
  - { offsetInCU: 0x449C, offset: 0x440F3, size: 0x8, addend: 0x0, symName: _glad_glColor4us, symObjAddr: 0x2A530, symBinAddr: 0x1001556C0, symSize: 0x0 }
  - { offsetInCU: 0x44DA, offset: 0x44131, size: 0x8, addend: 0x0, symName: _glad_glVertexAttribP1uiv, symObjAddr: 0x2A538, symBinAddr: 0x1001556C8, symSize: 0x0 }
  - { offsetInCU: 0x4518, offset: 0x4416F, size: 0x8, addend: 0x0, symName: _glad_glLinkProgram, symObjAddr: 0x2A540, symBinAddr: 0x1001556D0, symSize: 0x0 }
  - { offsetInCU: 0x453B, offset: 0x44192, size: 0x8, addend: 0x0, symName: _glad_glHint, symObjAddr: 0x2A548, symBinAddr: 0x1001556D8, symSize: 0x0 }
  - { offsetInCU: 0x455E, offset: 0x441B5, size: 0x8, addend: 0x0, symName: _glad_glRects, symObjAddr: 0x2A550, symBinAddr: 0x1001556E0, symSize: 0x0 }
  - { offsetInCU: 0x4581, offset: 0x441D8, size: 0x8, addend: 0x0, symName: _glad_glTexCoord2dv, symObjAddr: 0x2A558, symBinAddr: 0x1001556E8, symSize: 0x0 }
  - { offsetInCU: 0x45A4, offset: 0x441FB, size: 0x8, addend: 0x0, symName: _glad_glRasterPos4iv, symObjAddr: 0x2A560, symBinAddr: 0x1001556F0, symSize: 0x0 }
  - { offsetInCU: 0x45C7, offset: 0x4421E, size: 0x8, addend: 0x0, symName: _glad_glGetString, symObjAddr: 0x2A568, symBinAddr: 0x1001556F8, symSize: 0x0 }
  - { offsetInCU: 0x45FB, offset: 0x44252, size: 0x8, addend: 0x0, symName: _glad_glVertexAttribP2uiv, symObjAddr: 0x2A570, symBinAddr: 0x100155700, symSize: 0x0 }
  - { offsetInCU: 0x461E, offset: 0x44275, size: 0x8, addend: 0x0, symName: _glad_glEdgeFlagv, symObjAddr: 0x2A578, symBinAddr: 0x100155708, symSize: 0x0 }
  - { offsetInCU: 0x4657, offset: 0x442AE, size: 0x8, addend: 0x0, symName: _glad_glDetachShader, symObjAddr: 0x2A580, symBinAddr: 0x100155710, symSize: 0x0 }
  - { offsetInCU: 0x467A, offset: 0x442D1, size: 0x8, addend: 0x0, symName: _glad_glScalef, symObjAddr: 0x2A588, symBinAddr: 0x100155718, symSize: 0x0 }
  - { offsetInCU: 0x469D, offset: 0x442F4, size: 0x8, addend: 0x0, symName: _glad_glEndQuery, symObjAddr: 0x2A590, symBinAddr: 0x100155720, symSize: 0x0 }
  - { offsetInCU: 0x46C0, offset: 0x44317, size: 0x8, addend: 0x0, symName: _glad_glScaled, symObjAddr: 0x2A598, symBinAddr: 0x100155728, symSize: 0x0 }
  - { offsetInCU: 0x46E3, offset: 0x4433A, size: 0x8, addend: 0x0, symName: _glad_glEdgeFlagPointer, symObjAddr: 0x2A5A0, symBinAddr: 0x100155730, symSize: 0x0 }
  - { offsetInCU: 0x4717, offset: 0x4436E, size: 0x8, addend: 0x0, symName: _glad_glCopyPixels, symObjAddr: 0x2A5A8, symBinAddr: 0x100155738, symSize: 0x0 }
  - { offsetInCU: 0x475A, offset: 0x443B1, size: 0x8, addend: 0x0, symName: _glad_glVertexAttribI2ui, symObjAddr: 0x2A5B0, symBinAddr: 0x100155740, symSize: 0x0 }
  - { offsetInCU: 0x4793, offset: 0x443EA, size: 0x8, addend: 0x0, symName: _glad_glPopAttrib, symObjAddr: 0x2A5B8, symBinAddr: 0x100155748, symSize: 0x0 }
  - { offsetInCU: 0x47B6, offset: 0x4440D, size: 0x8, addend: 0x0, symName: _glad_glDeleteTextures, symObjAddr: 0x2A5C0, symBinAddr: 0x100155750, symSize: 0x0 }
  - { offsetInCU: 0x47D9, offset: 0x44430, size: 0x8, addend: 0x0, symName: _glad_glStencilOpSeparate, symObjAddr: 0x2A5C8, symBinAddr: 0x100155758, symSize: 0x0 }
  - { offsetInCU: 0x47FC, offset: 0x44453, size: 0x8, addend: 0x0, symName: _glad_glDeleteQueries, symObjAddr: 0x2A5D0, symBinAddr: 0x100155760, symSize: 0x0 }
  - { offsetInCU: 0x481F, offset: 0x44476, size: 0x8, addend: 0x0, symName: _glad_glNormalP3uiv, symObjAddr: 0x2A5D8, symBinAddr: 0x100155768, symSize: 0x0 }
  - { offsetInCU: 0x4842, offset: 0x44499, size: 0x8, addend: 0x0, symName: _glad_glVertexAttrib4f, symObjAddr: 0x2A5E0, symBinAddr: 0x100155770, symSize: 0x0 }
  - { offsetInCU: 0x4885, offset: 0x444DC, size: 0x8, addend: 0x0, symName: _glad_glVertexAttrib4d, symObjAddr: 0x2A5E8, symBinAddr: 0x100155778, symSize: 0x0 }
  - { offsetInCU: 0x48C8, offset: 0x4451F, size: 0x8, addend: 0x0, symName: _glad_glInitNames, symObjAddr: 0x2A5F0, symBinAddr: 0x100155780, symSize: 0x0 }
  - { offsetInCU: 0x48EB, offset: 0x44542, size: 0x8, addend: 0x0, symName: _glad_glGetBufferParameteri64v, symObjAddr: 0x2A5F8, symBinAddr: 0x100155788, symSize: 0x0 }
  - { offsetInCU: 0x4924, offset: 0x4457B, size: 0x8, addend: 0x0, symName: _glad_glColor3dv, symObjAddr: 0x2A600, symBinAddr: 0x100155790, symSize: 0x0 }
  - { offsetInCU: 0x4947, offset: 0x4459E, size: 0x8, addend: 0x0, symName: _glad_glVertexAttribI1i, symObjAddr: 0x2A608, symBinAddr: 0x100155798, symSize: 0x0 }
  - { offsetInCU: 0x497B, offset: 0x445D2, size: 0x8, addend: 0x0, symName: _glad_glGetTexParameteriv, symObjAddr: 0x2A610, symBinAddr: 0x1001557A0, symSize: 0x0 }
  - { offsetInCU: 0x499E, offset: 0x445F5, size: 0x8, addend: 0x0, symName: _glad_glWaitSync, symObjAddr: 0x2A618, symBinAddr: 0x1001557A8, symSize: 0x0 }
  - { offsetInCU: 0x49E9, offset: 0x44640, size: 0x8, addend: 0x0, symName: _glad_glVertexAttrib4s, symObjAddr: 0x2A620, symBinAddr: 0x1001557B0, symSize: 0x0 }
  - { offsetInCU: 0x4A2C, offset: 0x44683, size: 0x8, addend: 0x0, symName: _glad_glColorMaterial, symObjAddr: 0x2A628, symBinAddr: 0x1001557B8, symSize: 0x0 }
  - { offsetInCU: 0x4A4F, offset: 0x446A6, size: 0x8, addend: 0x0, symName: _glad_glSampleCoverage, symObjAddr: 0x2A630, symBinAddr: 0x1001557C0, symSize: 0x0 }
  - { offsetInCU: 0x4A83, offset: 0x446DA, size: 0x8, addend: 0x0, symName: _glad_glSamplerParameteri, symObjAddr: 0x2A638, symBinAddr: 0x1001557C8, symSize: 0x0 }
  - { offsetInCU: 0x4ABC, offset: 0x44713, size: 0x8, addend: 0x0, symName: _glad_glSamplerParameterf, symObjAddr: 0x2A640, symBinAddr: 0x1001557D0, symSize: 0x0 }
  - { offsetInCU: 0x4AF5, offset: 0x4474C, size: 0x8, addend: 0x0, symName: _glad_glUniform1f, symObjAddr: 0x2A648, symBinAddr: 0x1001557D8, symSize: 0x0 }
  - { offsetInCU: 0x4B29, offset: 0x44780, size: 0x8, addend: 0x0, symName: _glad_glGetVertexAttribfv, symObjAddr: 0x2A650, symBinAddr: 0x1001557E0, symSize: 0x0 }
  - { offsetInCU: 0x4B4C, offset: 0x447A3, size: 0x8, addend: 0x0, symName: _glad_glRenderMode, symObjAddr: 0x2A658, symBinAddr: 0x1001557E8, symSize: 0x0 }
  - { offsetInCU: 0x4B80, offset: 0x447D7, size: 0x8, addend: 0x0, symName: _glad_glGetCompressedTexImage, symObjAddr: 0x2A660, symBinAddr: 0x1001557F0, symSize: 0x0 }
  - { offsetInCU: 0x4BB9, offset: 0x44810, size: 0x8, addend: 0x0, symName: _glad_glWindowPos2dv, symObjAddr: 0x2A668, symBinAddr: 0x1001557F8, symSize: 0x0 }
  - { offsetInCU: 0x4BDC, offset: 0x44833, size: 0x8, addend: 0x0, symName: _glad_glUniform1i, symObjAddr: 0x2A670, symBinAddr: 0x100155800, symSize: 0x0 }
  - { offsetInCU: 0x4BFF, offset: 0x44856, size: 0x8, addend: 0x0, symName: _glad_glGetActiveAttrib, symObjAddr: 0x2A678, symBinAddr: 0x100155808, symSize: 0x0 }
  - { offsetInCU: 0x4C4C, offset: 0x448A3, size: 0x8, addend: 0x0, symName: _glad_glUniform3i, symObjAddr: 0x2A680, symBinAddr: 0x100155810, symSize: 0x0 }
  - { offsetInCU: 0x4C6F, offset: 0x448C6, size: 0x8, addend: 0x0, symName: _glad_glPixelTransferi, symObjAddr: 0x2A688, symBinAddr: 0x100155818, symSize: 0x0 }
  - { offsetInCU: 0x4C92, offset: 0x448E9, size: 0x8, addend: 0x0, symName: _glad_glTexSubImage2D, symObjAddr: 0x2A690, symBinAddr: 0x100155820, symSize: 0x0 }
  - { offsetInCU: 0x4CE9, offset: 0x44940, size: 0x8, addend: 0x0, symName: _glad_glDisable, symObjAddr: 0x2A698, symBinAddr: 0x100155828, symSize: 0x0 }
  - { offsetInCU: 0x4D0C, offset: 0x44963, size: 0x8, addend: 0x0, symName: _glad_glLogicOp, symObjAddr: 0x2A6A0, symBinAddr: 0x100155830, symSize: 0x0 }
  - { offsetInCU: 0x4D2F, offset: 0x44986, size: 0x8, addend: 0x0, symName: _glad_glEvalPoint2, symObjAddr: 0x2A6A8, symBinAddr: 0x100155838, symSize: 0x0 }
  - { offsetInCU: 0x4D52, offset: 0x449A9, size: 0x8, addend: 0x0, symName: _glad_glPixelTransferf, symObjAddr: 0x2A6B0, symBinAddr: 0x100155840, symSize: 0x0 }
  - { offsetInCU: 0x4D75, offset: 0x449CC, size: 0x8, addend: 0x0, symName: _glad_glSecondaryColor3i, symObjAddr: 0x2A6B8, symBinAddr: 0x100155848, symSize: 0x0 }
  - { offsetInCU: 0x4D98, offset: 0x449EF, size: 0x8, addend: 0x0, symName: _glad_glUniform4ui, symObjAddr: 0x2A6C0, symBinAddr: 0x100155850, symSize: 0x0 }
  - { offsetInCU: 0x4DDB, offset: 0x44A32, size: 0x8, addend: 0x0, symName: _glad_glColor3f, symObjAddr: 0x2A6C8, symBinAddr: 0x100155858, symSize: 0x0 }
  - { offsetInCU: 0x4DFE, offset: 0x44A55, size: 0x8, addend: 0x0, symName: _glad_glBindFramebuffer, symObjAddr: 0x2A6D0, symBinAddr: 0x100155860, symSize: 0x0 }
  - { offsetInCU: 0x4E21, offset: 0x44A78, size: 0x8, addend: 0x0, symName: _glad_glGetTexEnvfv, symObjAddr: 0x2A6D8, symBinAddr: 0x100155868, symSize: 0x0 }
  - { offsetInCU: 0x4E44, offset: 0x44A9B, size: 0x8, addend: 0x0, symName: _glad_glRectfv, symObjAddr: 0x2A6E0, symBinAddr: 0x100155870, symSize: 0x0 }
  - { offsetInCU: 0x4E78, offset: 0x44ACF, size: 0x8, addend: 0x0, symName: _glad_glCullFace, symObjAddr: 0x2A6E8, symBinAddr: 0x100155878, symSize: 0x0 }
  - { offsetInCU: 0x4E9B, offset: 0x44AF2, size: 0x8, addend: 0x0, symName: _glad_glGetLightfv, symObjAddr: 0x2A6F0, symBinAddr: 0x100155880, symSize: 0x0 }
  - { offsetInCU: 0x4EBE, offset: 0x44B15, size: 0x8, addend: 0x0, symName: _glad_glColor3d, symObjAddr: 0x2A6F8, symBinAddr: 0x100155888, symSize: 0x0 }
  - { offsetInCU: 0x4EE1, offset: 0x44B38, size: 0x8, addend: 0x0, symName: _glad_glTexGend, symObjAddr: 0x2A700, symBinAddr: 0x100155890, symSize: 0x0 }
  - { offsetInCU: 0x4F1A, offset: 0x44B71, size: 0x8, addend: 0x0, symName: _glad_glTexGeni, symObjAddr: 0x2A708, symBinAddr: 0x100155898, symSize: 0x0 }
  - { offsetInCU: 0x4F3D, offset: 0x44B94, size: 0x8, addend: 0x0, symName: _glad_glMultiTexCoord3s, symObjAddr: 0x2A710, symBinAddr: 0x1001558A0, symSize: 0x0 }
  - { offsetInCU: 0x4F7B, offset: 0x44BD2, size: 0x8, addend: 0x0, symName: _glad_glGetStringi, symObjAddr: 0x2A718, symBinAddr: 0x1001558A8, symSize: 0x0 }
  - { offsetInCU: 0x4FB4, offset: 0x44C0B, size: 0x8, addend: 0x0, symName: _glad_glMultiTexCoord3i, symObjAddr: 0x2A720, symBinAddr: 0x1001558B0, symSize: 0x0 }
  - { offsetInCU: 0x4FF2, offset: 0x44C49, size: 0x8, addend: 0x0, symName: _glad_glMultiTexCoord3f, symObjAddr: 0x2A728, symBinAddr: 0x1001558B8, symSize: 0x0 }
  - { offsetInCU: 0x5030, offset: 0x44C87, size: 0x8, addend: 0x0, symName: _glad_glMultiTexCoord3d, symObjAddr: 0x2A730, symBinAddr: 0x1001558C0, symSize: 0x0 }
  - { offsetInCU: 0x506E, offset: 0x44CC5, size: 0x8, addend: 0x0, symName: _glad_glAttachShader, symObjAddr: 0x2A738, symBinAddr: 0x1001558C8, symSize: 0x0 }
  - { offsetInCU: 0x5091, offset: 0x44CE8, size: 0x8, addend: 0x0, symName: _glad_glFogCoorddv, symObjAddr: 0x2A740, symBinAddr: 0x1001558D0, symSize: 0x0 }
  - { offsetInCU: 0x50B4, offset: 0x44D0B, size: 0x8, addend: 0x0, symName: _glad_glUniformMatrix2x3fv, symObjAddr: 0x2A748, symBinAddr: 0x1001558D8, symSize: 0x0 }
  - { offsetInCU: 0x50D7, offset: 0x44D2E, size: 0x8, addend: 0x0, symName: _glad_glGetTexGenfv, symObjAddr: 0x2A750, symBinAddr: 0x1001558E0, symSize: 0x0 }
  - { offsetInCU: 0x50FA, offset: 0x44D51, size: 0x8, addend: 0x0, symName: _glad_glQueryCounter, symObjAddr: 0x2A758, symBinAddr: 0x1001558E8, symSize: 0x0 }
  - { offsetInCU: 0x511D, offset: 0x44D74, size: 0x8, addend: 0x0, symName: _glad_glFogCoordPointer, symObjAddr: 0x2A760, symBinAddr: 0x1001558F0, symSize: 0x0 }
  - { offsetInCU: 0x5140, offset: 0x44D97, size: 0x8, addend: 0x0, symName: _glad_glProvokingVertex, symObjAddr: 0x2A768, symBinAddr: 0x1001558F8, symSize: 0x0 }
  - { offsetInCU: 0x5163, offset: 0x44DBA, size: 0x8, addend: 0x0, symName: _glad_glFramebufferTexture3D, symObjAddr: 0x2A770, symBinAddr: 0x100155900, symSize: 0x0 }
  - { offsetInCU: 0x51AB, offset: 0x44E02, size: 0x8, addend: 0x0, symName: _glad_glTexGeniv, symObjAddr: 0x2A778, symBinAddr: 0x100155908, symSize: 0x0 }
  - { offsetInCU: 0x51CE, offset: 0x44E25, size: 0x8, addend: 0x0, symName: _glad_glRasterPos2dv, symObjAddr: 0x2A780, symBinAddr: 0x100155910, symSize: 0x0 }
  - { offsetInCU: 0x51F1, offset: 0x44E48, size: 0x8, addend: 0x0, symName: _glad_glSecondaryColor3dv, symObjAddr: 0x2A788, symBinAddr: 0x100155918, symSize: 0x0 }
  - { offsetInCU: 0x5214, offset: 0x44E6B, size: 0x8, addend: 0x0, symName: _glad_glClientActiveTexture, symObjAddr: 0x2A790, symBinAddr: 0x100155920, symSize: 0x0 }
  - { offsetInCU: 0x5237, offset: 0x44E8E, size: 0x8, addend: 0x0, symName: _glad_glVertexAttribI4sv, symObjAddr: 0x2A798, symBinAddr: 0x100155928, symSize: 0x0 }
  - { offsetInCU: 0x525A, offset: 0x44EB1, size: 0x8, addend: 0x0, symName: _glad_glSecondaryColor3us, symObjAddr: 0x2A7A0, symBinAddr: 0x100155930, symSize: 0x0 }
  - { offsetInCU: 0x5293, offset: 0x44EEA, size: 0x8, addend: 0x0, symName: _glad_glNormalP3ui, symObjAddr: 0x2A7A8, symBinAddr: 0x100155938, symSize: 0x0 }
  - { offsetInCU: 0x52B6, offset: 0x44F0D, size: 0x8, addend: 0x0, symName: _glad_glTexEnvfv, symObjAddr: 0x2A7B0, symBinAddr: 0x100155940, symSize: 0x0 }
  - { offsetInCU: 0x52D9, offset: 0x44F30, size: 0x8, addend: 0x0, symName: _glad_glReadBuffer, symObjAddr: 0x2A7B8, symBinAddr: 0x100155948, symSize: 0x0 }
  - { offsetInCU: 0x52FC, offset: 0x44F53, size: 0x8, addend: 0x0, symName: _glad_glTexParameterIuiv, symObjAddr: 0x2A7C0, symBinAddr: 0x100155950, symSize: 0x0 }
  - { offsetInCU: 0x531F, offset: 0x44F76, size: 0x8, addend: 0x0, symName: _glad_glDrawArraysInstanced, symObjAddr: 0x2A7C8, symBinAddr: 0x100155958, symSize: 0x0 }
  - { offsetInCU: 0x535D, offset: 0x44FB4, size: 0x8, addend: 0x0, symName: _glad_glGenerateMipmap, symObjAddr: 0x2A7D0, symBinAddr: 0x100155960, symSize: 0x0 }
  - { offsetInCU: 0x5380, offset: 0x44FD7, size: 0x8, addend: 0x0, symName: _glad_glWindowPos3fv, symObjAddr: 0x2A7D8, symBinAddr: 0x100155968, symSize: 0x0 }
  - { offsetInCU: 0x53A3, offset: 0x44FFA, size: 0x8, addend: 0x0, symName: _glad_glLightModelfv, symObjAddr: 0x2A7E0, symBinAddr: 0x100155970, symSize: 0x0 }
  - { offsetInCU: 0x53C6, offset: 0x4501D, size: 0x8, addend: 0x0, symName: _glad_glSamplerParameteriv, symObjAddr: 0x2A7E8, symBinAddr: 0x100155978, symSize: 0x0 }
  - { offsetInCU: 0x53E9, offset: 0x45040, size: 0x8, addend: 0x0, symName: _glad_glDeleteLists, symObjAddr: 0x2A7F0, symBinAddr: 0x100155980, symSize: 0x0 }
  - { offsetInCU: 0x541D, offset: 0x45074, size: 0x8, addend: 0x0, symName: _glad_glGetClipPlane, symObjAddr: 0x2A7F8, symBinAddr: 0x100155988, symSize: 0x0 }
  - { offsetInCU: 0x5440, offset: 0x45097, size: 0x8, addend: 0x0, symName: _glad_glVertex4dv, symObjAddr: 0x2A800, symBinAddr: 0x100155990, symSize: 0x0 }
  - { offsetInCU: 0x5463, offset: 0x450BA, size: 0x8, addend: 0x0, symName: _glad_glTexCoord2d, symObjAddr: 0x2A808, symBinAddr: 0x100155998, symSize: 0x0 }
  - { offsetInCU: 0x5486, offset: 0x450DD, size: 0x8, addend: 0x0, symName: _glad_glPopMatrix, symObjAddr: 0x2A810, symBinAddr: 0x1001559A0, symSize: 0x0 }
  - { offsetInCU: 0x54A9, offset: 0x45100, size: 0x8, addend: 0x0, symName: _glad_glTexCoord2f, symObjAddr: 0x2A818, symBinAddr: 0x1001559A8, symSize: 0x0 }
  - { offsetInCU: 0x54CC, offset: 0x45123, size: 0x8, addend: 0x0, symName: _glad_glColor4iv, symObjAddr: 0x2A820, symBinAddr: 0x1001559B0, symSize: 0x0 }
  - { offsetInCU: 0x54EF, offset: 0x45146, size: 0x8, addend: 0x0, symName: _glad_glIndexubv, symObjAddr: 0x2A828, symBinAddr: 0x1001559B8, symSize: 0x0 }
  - { offsetInCU: 0x5512, offset: 0x45169, size: 0x8, addend: 0x0, symName: _glad_glUnmapBuffer, symObjAddr: 0x2A830, symBinAddr: 0x1001559C0, symSize: 0x0 }
  - { offsetInCU: 0x5535, offset: 0x4518C, size: 0x8, addend: 0x0, symName: _glad_glTexCoord2i, symObjAddr: 0x2A838, symBinAddr: 0x1001559C8, symSize: 0x0 }
  - { offsetInCU: 0x5558, offset: 0x451AF, size: 0x8, addend: 0x0, symName: _glad_glRasterPos4d, symObjAddr: 0x2A840, symBinAddr: 0x1001559D0, symSize: 0x0 }
  - { offsetInCU: 0x557B, offset: 0x451D2, size: 0x8, addend: 0x0, symName: _glad_glRasterPos4f, symObjAddr: 0x2A848, symBinAddr: 0x1001559D8, symSize: 0x0 }
  - { offsetInCU: 0x559E, offset: 0x451F5, size: 0x8, addend: 0x0, symName: _glad_glVertexAttrib3s, symObjAddr: 0x2A850, symBinAddr: 0x1001559E0, symSize: 0x0 }
  - { offsetInCU: 0x55DC, offset: 0x45233, size: 0x8, addend: 0x0, symName: _glad_glTexCoord2s, symObjAddr: 0x2A858, symBinAddr: 0x1001559E8, symSize: 0x0 }
  - { offsetInCU: 0x55FF, offset: 0x45256, size: 0x8, addend: 0x0, symName: _glad_glBindRenderbuffer, symObjAddr: 0x2A860, symBinAddr: 0x1001559F0, symSize: 0x0 }
  - { offsetInCU: 0x5622, offset: 0x45279, size: 0x8, addend: 0x0, symName: _glad_glVertex3fv, symObjAddr: 0x2A868, symBinAddr: 0x1001559F8, symSize: 0x0 }
  - { offsetInCU: 0x5645, offset: 0x4529C, size: 0x8, addend: 0x0, symName: _glad_glTexCoord4dv, symObjAddr: 0x2A870, symBinAddr: 0x100155A00, symSize: 0x0 }
  - { offsetInCU: 0x5668, offset: 0x452BF, size: 0x8, addend: 0x0, symName: _glad_glMaterialiv, symObjAddr: 0x2A878, symBinAddr: 0x100155A08, symSize: 0x0 }
  - { offsetInCU: 0x568B, offset: 0x452E2, size: 0x8, addend: 0x0, symName: _glad_glVertexAttribP4uiv, symObjAddr: 0x2A880, symBinAddr: 0x100155A10, symSize: 0x0 }
  - { offsetInCU: 0x56AE, offset: 0x45305, size: 0x8, addend: 0x0, symName: _glad_glIsProgram, symObjAddr: 0x2A888, symBinAddr: 0x100155A18, symSize: 0x0 }
  - { offsetInCU: 0x56D1, offset: 0x45328, size: 0x8, addend: 0x0, symName: _glad_glVertexAttrib4bv, symObjAddr: 0x2A890, symBinAddr: 0x100155A20, symSize: 0x0 }
  - { offsetInCU: 0x56F4, offset: 0x4534B, size: 0x8, addend: 0x0, symName: _glad_glVertex4s, symObjAddr: 0x2A898, symBinAddr: 0x100155A28, symSize: 0x0 }
  - { offsetInCU: 0x5717, offset: 0x4536E, size: 0x8, addend: 0x0, symName: _glad_glVertexAttrib4fv, symObjAddr: 0x2A8A0, symBinAddr: 0x100155A30, symSize: 0x0 }
  - { offsetInCU: 0x573A, offset: 0x45391, size: 0x8, addend: 0x0, symName: _glad_glNormal3dv, symObjAddr: 0x2A8A8, symBinAddr: 0x100155A38, symSize: 0x0 }
  - { offsetInCU: 0x575D, offset: 0x453B4, size: 0x8, addend: 0x0, symName: _glad_glUniform4i, symObjAddr: 0x2A8B0, symBinAddr: 0x100155A40, symSize: 0x0 }
  - { offsetInCU: 0x57A0, offset: 0x453F7, size: 0x8, addend: 0x0, symName: _glad_glActiveTexture, symObjAddr: 0x2A8B8, symBinAddr: 0x100155A48, symSize: 0x0 }
  - { offsetInCU: 0x57C3, offset: 0x4541A, size: 0x8, addend: 0x0, symName: _glad_glEnableVertexAttribArray, symObjAddr: 0x2A8C0, symBinAddr: 0x100155A50, symSize: 0x0 }
  - { offsetInCU: 0x57E6, offset: 0x4543D, size: 0x8, addend: 0x0, symName: _glad_glRotated, symObjAddr: 0x2A8C8, symBinAddr: 0x100155A58, symSize: 0x0 }
  - { offsetInCU: 0x5809, offset: 0x45460, size: 0x8, addend: 0x0, symName: _glad_glRotatef, symObjAddr: 0x2A8D0, symBinAddr: 0x100155A60, symSize: 0x0 }
  - { offsetInCU: 0x582C, offset: 0x45483, size: 0x8, addend: 0x0, symName: _glad_glVertex4i, symObjAddr: 0x2A8D8, symBinAddr: 0x100155A68, symSize: 0x0 }
  - { offsetInCU: 0x584F, offset: 0x454A6, size: 0x8, addend: 0x0, symName: _glad_glReadPixels, symObjAddr: 0x2A8E0, symBinAddr: 0x100155A70, symSize: 0x0 }
  - { offsetInCU: 0x589C, offset: 0x454F3, size: 0x8, addend: 0x0, symName: _glad_glVertexAttribI3iv, symObjAddr: 0x2A8E8, symBinAddr: 0x100155A78, symSize: 0x0 }
  - { offsetInCU: 0x58D0, offset: 0x45527, size: 0x8, addend: 0x0, symName: _glad_glLoadName, symObjAddr: 0x2A8F0, symBinAddr: 0x100155A80, symSize: 0x0 }
  - { offsetInCU: 0x58F3, offset: 0x4554A, size: 0x8, addend: 0x0, symName: _glad_glUniform4f, symObjAddr: 0x2A8F8, symBinAddr: 0x100155A88, symSize: 0x0 }
  - { offsetInCU: 0x5936, offset: 0x4558D, size: 0x8, addend: 0x0, symName: _glad_glRenderbufferStorageMultisample, symObjAddr: 0x2A900, symBinAddr: 0x100155A90, symSize: 0x0 }
  - { offsetInCU: 0x5979, offset: 0x455D0, size: 0x8, addend: 0x0, symName: _glad_glGenVertexArrays, symObjAddr: 0x2A908, symBinAddr: 0x100155A98, symSize: 0x0 }
  - { offsetInCU: 0x599C, offset: 0x455F3, size: 0x8, addend: 0x0, symName: _glad_glShadeModel, symObjAddr: 0x2A910, symBinAddr: 0x100155AA0, symSize: 0x0 }
  - { offsetInCU: 0x59BF, offset: 0x45616, size: 0x8, addend: 0x0, symName: _glad_glMapGrid1d, symObjAddr: 0x2A918, symBinAddr: 0x100155AA8, symSize: 0x0 }
  - { offsetInCU: 0x59F8, offset: 0x4564F, size: 0x8, addend: 0x0, symName: _glad_glGetUniformfv, symObjAddr: 0x2A920, symBinAddr: 0x100155AB0, symSize: 0x0 }
  - { offsetInCU: 0x5A31, offset: 0x45688, size: 0x8, addend: 0x0, symName: _glad_glMapGrid1f, symObjAddr: 0x2A928, symBinAddr: 0x100155AB8, symSize: 0x0 }
  - { offsetInCU: 0x5A6A, offset: 0x456C1, size: 0x8, addend: 0x0, symName: _glad_glSamplerParameterfv, symObjAddr: 0x2A930, symBinAddr: 0x100155AC0, symSize: 0x0 }
  - { offsetInCU: 0x5AA3, offset: 0x456FA, size: 0x8, addend: 0x0, symName: _glad_glDisableClientState, symObjAddr: 0x2A938, symBinAddr: 0x100155AC8, symSize: 0x0 }
  - { offsetInCU: 0x5AC6, offset: 0x4571D, size: 0x8, addend: 0x0, symName: _glad_glMultiTexCoord3sv, symObjAddr: 0x2A940, symBinAddr: 0x100155AD0, symSize: 0x0 }
  - { offsetInCU: 0x5AE9, offset: 0x45740, size: 0x8, addend: 0x0, symName: _glad_glDrawElementsInstancedBaseVertex, symObjAddr: 0x2A948, symBinAddr: 0x100155AD8, symSize: 0x0 }
  - { offsetInCU: 0x5B31, offset: 0x45788, size: 0x8, addend: 0x0, symName: _glad_glSecondaryColorPointer, symObjAddr: 0x2A950, symBinAddr: 0x100155AE0, symSize: 0x0 }
  - { offsetInCU: 0x5B54, offset: 0x457AB, size: 0x8, addend: 0x0, symName: _glad_glAlphaFunc, symObjAddr: 0x2A958, symBinAddr: 0x100155AE8, symSize: 0x0 }
  - { offsetInCU: 0x5B77, offset: 0x457CE, size: 0x8, addend: 0x0, symName: _glad_glUniform1iv, symObjAddr: 0x2A960, symBinAddr: 0x100155AF0, symSize: 0x0 }
  - { offsetInCU: 0x5B9A, offset: 0x457F1, size: 0x8, addend: 0x0, symName: _glad_glMultiTexCoord4iv, symObjAddr: 0x2A968, symBinAddr: 0x100155AF8, symSize: 0x0 }
  - { offsetInCU: 0x5BBD, offset: 0x45814, size: 0x8, addend: 0x0, symName: _glad_glGetQueryObjectiv, symObjAddr: 0x2A970, symBinAddr: 0x100155B00, symSize: 0x0 }
  - { offsetInCU: 0x5BE0, offset: 0x45837, size: 0x8, addend: 0x0, symName: _glad_glStencilFunc, symObjAddr: 0x2A978, symBinAddr: 0x100155B08, symSize: 0x0 }
  - { offsetInCU: 0x5C19, offset: 0x45870, size: 0x8, addend: 0x0, symName: _glad_glMultiTexCoord1fv, symObjAddr: 0x2A980, symBinAddr: 0x100155B10, symSize: 0x0 }
  - { offsetInCU: 0x5C3C, offset: 0x45893, size: 0x8, addend: 0x0, symName: _glad_glUniformBlockBinding, symObjAddr: 0x2A988, symBinAddr: 0x100155B18, symSize: 0x0 }
  - { offsetInCU: 0x5C5F, offset: 0x458B6, size: 0x8, addend: 0x0, symName: _glad_glColor4uiv, symObjAddr: 0x2A990, symBinAddr: 0x100155B20, symSize: 0x0 }
  - { offsetInCU: 0x5C82, offset: 0x458D9, size: 0x8, addend: 0x0, symName: _glad_glRectiv, symObjAddr: 0x2A998, symBinAddr: 0x100155B28, symSize: 0x0 }
  - { offsetInCU: 0x5CB6, offset: 0x4590D, size: 0x8, addend: 0x0, symName: _glad_glColorP4ui, symObjAddr: 0x2A9A0, symBinAddr: 0x100155B30, symSize: 0x0 }
  - { offsetInCU: 0x5CD9, offset: 0x45930, size: 0x8, addend: 0x0, symName: _glad_glRasterPos3dv, symObjAddr: 0x2A9A8, symBinAddr: 0x100155B38, symSize: 0x0 }
  - { offsetInCU: 0x5CFC, offset: 0x45953, size: 0x8, addend: 0x0, symName: _glad_glEvalMesh2, symObjAddr: 0x2A9B0, symBinAddr: 0x100155B40, symSize: 0x0 }
  - { offsetInCU: 0x5D3F, offset: 0x45996, size: 0x8, addend: 0x0, symName: _glad_glEvalMesh1, symObjAddr: 0x2A9B8, symBinAddr: 0x100155B48, symSize: 0x0 }
  - { offsetInCU: 0x5D62, offset: 0x459B9, size: 0x8, addend: 0x0, symName: _glad_glTexCoordPointer, symObjAddr: 0x2A9C0, symBinAddr: 0x100155B50, symSize: 0x0 }
  - { offsetInCU: 0x5D85, offset: 0x459DC, size: 0x8, addend: 0x0, symName: _glad_glVertexAttrib4Nubv, symObjAddr: 0x2A9C8, symBinAddr: 0x100155B58, symSize: 0x0 }
  - { offsetInCU: 0x5DA8, offset: 0x459FF, size: 0x8, addend: 0x0, symName: _glad_glVertexAttribI4iv, symObjAddr: 0x2A9D0, symBinAddr: 0x100155B60, symSize: 0x0 }
  - { offsetInCU: 0x5DCB, offset: 0x45A22, size: 0x8, addend: 0x0, symName: _glad_glEvalCoord2fv, symObjAddr: 0x2A9D8, symBinAddr: 0x100155B68, symSize: 0x0 }
  - { offsetInCU: 0x5DEE, offset: 0x45A45, size: 0x8, addend: 0x0, symName: _glad_glColor4ubv, symObjAddr: 0x2A9E0, symBinAddr: 0x100155B70, symSize: 0x0 }
  - { offsetInCU: 0x5E11, offset: 0x45A68, size: 0x8, addend: 0x0, symName: _glad_glLoadTransposeMatrixd, symObjAddr: 0x2A9E8, symBinAddr: 0x100155B78, symSize: 0x0 }
  - { offsetInCU: 0x5E34, offset: 0x45A8B, size: 0x8, addend: 0x0, symName: _glad_glLoadTransposeMatrixf, symObjAddr: 0x2A9F0, symBinAddr: 0x100155B80, symSize: 0x0 }
  - { offsetInCU: 0x5E57, offset: 0x45AAE, size: 0x8, addend: 0x0, symName: _glad_glVertexAttribI4i, symObjAddr: 0x2A9F8, symBinAddr: 0x100155B88, symSize: 0x0 }
  - { offsetInCU: 0x5E9A, offset: 0x45AF1, size: 0x8, addend: 0x0, symName: _glad_glRasterPos2iv, symObjAddr: 0x2AA00, symBinAddr: 0x100155B90, symSize: 0x0 }
  - { offsetInCU: 0x5EBD, offset: 0x45B14, size: 0x8, addend: 0x0, symName: _glad_glGetBufferSubData, symObjAddr: 0x2AA08, symBinAddr: 0x100155B98, symSize: 0x0 }
  - { offsetInCU: 0x5EFB, offset: 0x45B52, size: 0x8, addend: 0x0, symName: _glad_glTexEnviv, symObjAddr: 0x2AA10, symBinAddr: 0x100155BA0, symSize: 0x0 }
  - { offsetInCU: 0x5F1E, offset: 0x45B75, size: 0x8, addend: 0x0, symName: _glad_glBlendEquationSeparate, symObjAddr: 0x2AA18, symBinAddr: 0x100155BA8, symSize: 0x0 }
  - { offsetInCU: 0x5F41, offset: 0x45B98, size: 0x8, addend: 0x0, symName: _glad_glVertexAttribI1ui, symObjAddr: 0x2AA20, symBinAddr: 0x100155BB0, symSize: 0x0 }
  - { offsetInCU: 0x5F64, offset: 0x45BBB, size: 0x8, addend: 0x0, symName: _glad_glGenBuffers, symObjAddr: 0x2AA28, symBinAddr: 0x100155BB8, symSize: 0x0 }
  - { offsetInCU: 0x5F87, offset: 0x45BDE, size: 0x8, addend: 0x0, symName: _glad_glSelectBuffer, symObjAddr: 0x2AA30, symBinAddr: 0x100155BC0, symSize: 0x0 }
  - { offsetInCU: 0x5FAA, offset: 0x45C01, size: 0x8, addend: 0x0, symName: _glad_glVertexAttrib2sv, symObjAddr: 0x2AA38, symBinAddr: 0x100155BC8, symSize: 0x0 }
  - { offsetInCU: 0x5FCD, offset: 0x45C24, size: 0x8, addend: 0x0, symName: _glad_glPushAttrib, symObjAddr: 0x2AA40, symBinAddr: 0x100155BD0, symSize: 0x0 }
  - { offsetInCU: 0x5FF0, offset: 0x45C47, size: 0x8, addend: 0x0, symName: _glad_glVertexAttribIPointer, symObjAddr: 0x2AA48, symBinAddr: 0x100155BD8, symSize: 0x0 }
  - { offsetInCU: 0x6033, offset: 0x45C8A, size: 0x8, addend: 0x0, symName: _glad_glBlendFunc, symObjAddr: 0x2AA50, symBinAddr: 0x100155BE0, symSize: 0x0 }
  - { offsetInCU: 0x6056, offset: 0x45CAD, size: 0x8, addend: 0x0, symName: _glad_glCreateProgram, symObjAddr: 0x2AA58, symBinAddr: 0x100155BE8, symSize: 0x0 }
  - { offsetInCU: 0x6083, offset: 0x45CDA, size: 0x8, addend: 0x0, symName: _glad_glTexImage3D, symObjAddr: 0x2AA60, symBinAddr: 0x100155BF0, symSize: 0x0 }
  - { offsetInCU: 0x60DF, offset: 0x45D36, size: 0x8, addend: 0x0, symName: _glad_glIsFramebuffer, symObjAddr: 0x2AA68, symBinAddr: 0x100155BF8, symSize: 0x0 }
  - { offsetInCU: 0x6102, offset: 0x45D59, size: 0x8, addend: 0x0, symName: _glad_glLightiv, symObjAddr: 0x2AA70, symBinAddr: 0x100155C00, symSize: 0x0 }
  - { offsetInCU: 0x6125, offset: 0x45D7C, size: 0x8, addend: 0x0, symName: _glad_glPrimitiveRestartIndex, symObjAddr: 0x2AA78, symBinAddr: 0x100155C08, symSize: 0x0 }
  - { offsetInCU: 0x6148, offset: 0x45D9F, size: 0x8, addend: 0x0, symName: _glad_glTexGenfv, symObjAddr: 0x2AA80, symBinAddr: 0x100155C10, symSize: 0x0 }
  - { offsetInCU: 0x616B, offset: 0x45DC2, size: 0x8, addend: 0x0, symName: _glad_glEnd, symObjAddr: 0x2AA88, symBinAddr: 0x100155C18, symSize: 0x0 }
  - { offsetInCU: 0x618E, offset: 0x45DE5, size: 0x8, addend: 0x0, symName: _glad_glDeleteBuffers, symObjAddr: 0x2AA90, symBinAddr: 0x100155C20, symSize: 0x0 }
  - { offsetInCU: 0x61B1, offset: 0x45E08, size: 0x8, addend: 0x0, symName: _glad_glScissor, symObjAddr: 0x2AA98, symBinAddr: 0x100155C28, symSize: 0x0 }
  - { offsetInCU: 0x61D4, offset: 0x45E2B, size: 0x8, addend: 0x0, symName: _glad_glTexCoordP4uiv, symObjAddr: 0x2AAA0, symBinAddr: 0x100155C30, symSize: 0x0 }
  - { offsetInCU: 0x61F7, offset: 0x45E4E, size: 0x8, addend: 0x0, symName: _glad_glClipPlane, symObjAddr: 0x2AAA8, symBinAddr: 0x100155C38, symSize: 0x0 }
  - { offsetInCU: 0x621A, offset: 0x45E71, size: 0x8, addend: 0x0, symName: _glad_glPushName, symObjAddr: 0x2AAB0, symBinAddr: 0x100155C40, symSize: 0x0 }
  - { offsetInCU: 0x623D, offset: 0x45E94, size: 0x8, addend: 0x0, symName: _glad_glTexGendv, symObjAddr: 0x2AAB8, symBinAddr: 0x100155C48, symSize: 0x0 }
  - { offsetInCU: 0x6276, offset: 0x45ECD, size: 0x8, addend: 0x0, symName: _glad_glIndexub, symObjAddr: 0x2AAC0, symBinAddr: 0x100155C50, symSize: 0x0 }
  - { offsetInCU: 0x62A5, offset: 0x45EFC, size: 0x8, addend: 0x0, symName: _glad_glVertexP2uiv, symObjAddr: 0x2AAC8, symBinAddr: 0x100155C58, symSize: 0x0 }
  - { offsetInCU: 0x62C8, offset: 0x45F1F, size: 0x8, addend: 0x0, symName: _glad_glSecondaryColor3iv, symObjAddr: 0x2AAD0, symBinAddr: 0x100155C60, symSize: 0x0 }
  - { offsetInCU: 0x62EB, offset: 0x45F42, size: 0x8, addend: 0x0, symName: _glad_glRasterPos4i, symObjAddr: 0x2AAD8, symBinAddr: 0x100155C68, symSize: 0x0 }
  - { offsetInCU: 0x630E, offset: 0x45F65, size: 0x8, addend: 0x0, symName: _glad_glMultTransposeMatrixd, symObjAddr: 0x2AAE0, symBinAddr: 0x100155C70, symSize: 0x0 }
  - { offsetInCU: 0x6331, offset: 0x45F88, size: 0x8, addend: 0x0, symName: _glad_glClearColor, symObjAddr: 0x2AAE8, symBinAddr: 0x100155C78, symSize: 0x0 }
  - { offsetInCU: 0x6354, offset: 0x45FAB, size: 0x8, addend: 0x0, symName: _glad_glVertexAttrib4uiv, symObjAddr: 0x2AAF0, symBinAddr: 0x100155C80, symSize: 0x0 }
  - { offsetInCU: 0x6377, offset: 0x45FCE, size: 0x8, addend: 0x0, symName: _glad_glNormal3s, symObjAddr: 0x2AAF8, symBinAddr: 0x100155C88, symSize: 0x0 }
  - { offsetInCU: 0x639A, offset: 0x45FF1, size: 0x8, addend: 0x0, symName: _glad_glVertexAttrib4Niv, symObjAddr: 0x2AB00, symBinAddr: 0x100155C90, symSize: 0x0 }
  - { offsetInCU: 0x63BD, offset: 0x46014, size: 0x8, addend: 0x0, symName: _glad_glClearBufferiv, symObjAddr: 0x2AB08, symBinAddr: 0x100155C98, symSize: 0x0 }
  - { offsetInCU: 0x63F6, offset: 0x4604D, size: 0x8, addend: 0x0, symName: _glad_glPointParameteri, symObjAddr: 0x2AB10, symBinAddr: 0x100155CA0, symSize: 0x0 }
  - { offsetInCU: 0x6419, offset: 0x46070, size: 0x8, addend: 0x0, symName: _glad_glColorP4uiv, symObjAddr: 0x2AB18, symBinAddr: 0x100155CA8, symSize: 0x0 }
  - { offsetInCU: 0x643C, offset: 0x46093, size: 0x8, addend: 0x0, symName: _glad_glBlendColor, symObjAddr: 0x2AB20, symBinAddr: 0x100155CB0, symSize: 0x0 }
  - { offsetInCU: 0x645F, offset: 0x460B6, size: 0x8, addend: 0x0, symName: _glad_glWindowPos3d, symObjAddr: 0x2AB28, symBinAddr: 0x100155CB8, symSize: 0x0 }
  - { offsetInCU: 0x6482, offset: 0x460D9, size: 0x8, addend: 0x0, symName: _glad_glVertexAttribI2uiv, symObjAddr: 0x2AB30, symBinAddr: 0x100155CC0, symSize: 0x0 }
  - { offsetInCU: 0x64A5, offset: 0x460FC, size: 0x8, addend: 0x0, symName: _glad_glSamplerParameterIuiv, symObjAddr: 0x2AB38, symBinAddr: 0x100155CC8, symSize: 0x0 }
  - { offsetInCU: 0x64DE, offset: 0x46135, size: 0x8, addend: 0x0, symName: _glad_glUniform3ui, symObjAddr: 0x2AB40, symBinAddr: 0x100155CD0, symSize: 0x0 }
  - { offsetInCU: 0x651C, offset: 0x46173, size: 0x8, addend: 0x0, symName: _glad_glColor4dv, symObjAddr: 0x2AB48, symBinAddr: 0x100155CD8, symSize: 0x0 }
  - { offsetInCU: 0x653F, offset: 0x46196, size: 0x8, addend: 0x0, symName: _glad_glVertexAttribI4uiv, symObjAddr: 0x2AB50, symBinAddr: 0x100155CE0, symSize: 0x0 }
  - { offsetInCU: 0x6562, offset: 0x461B9, size: 0x8, addend: 0x0, symName: _glad_glPointParameterfv, symObjAddr: 0x2AB58, symBinAddr: 0x100155CE8, symSize: 0x0 }
  - { offsetInCU: 0x6585, offset: 0x461DC, size: 0x8, addend: 0x0, symName: _glad_glUniform2fv, symObjAddr: 0x2AB60, symBinAddr: 0x100155CF0, symSize: 0x0 }
  - { offsetInCU: 0x65A8, offset: 0x461FF, size: 0x8, addend: 0x0, symName: _glad_glSecondaryColor3ub, symObjAddr: 0x2AB68, symBinAddr: 0x100155CF8, symSize: 0x0 }
  - { offsetInCU: 0x65E1, offset: 0x46238, size: 0x8, addend: 0x0, symName: _glad_glSecondaryColor3ui, symObjAddr: 0x2AB70, symBinAddr: 0x100155D00, symSize: 0x0 }
  - { offsetInCU: 0x6604, offset: 0x4625B, size: 0x8, addend: 0x0, symName: _glad_glTexCoord3dv, symObjAddr: 0x2AB78, symBinAddr: 0x100155D08, symSize: 0x0 }
  - { offsetInCU: 0x6627, offset: 0x4627E, size: 0x8, addend: 0x0, symName: _glad_glGetSamplerParameterIuiv, symObjAddr: 0x2AB80, symBinAddr: 0x100155D10, symSize: 0x0 }
  - { offsetInCU: 0x664A, offset: 0x462A1, size: 0x8, addend: 0x0, symName: _glad_glBindBufferRange, symObjAddr: 0x2AB88, symBinAddr: 0x100155D18, symSize: 0x0 }
  - { offsetInCU: 0x668D, offset: 0x462E4, size: 0x8, addend: 0x0, symName: _glad_glNormal3iv, symObjAddr: 0x2AB90, symBinAddr: 0x100155D20, symSize: 0x0 }
  - { offsetInCU: 0x66B0, offset: 0x46307, size: 0x8, addend: 0x0, symName: _glad_glWindowPos3s, symObjAddr: 0x2AB98, symBinAddr: 0x100155D28, symSize: 0x0 }
  - { offsetInCU: 0x66D3, offset: 0x4632A, size: 0x8, addend: 0x0, symName: _glad_glPointParameterf, symObjAddr: 0x2ABA0, symBinAddr: 0x100155D30, symSize: 0x0 }
  - { offsetInCU: 0x66F6, offset: 0x4634D, size: 0x8, addend: 0x0, symName: _glad_glGetVertexAttribIuiv, symObjAddr: 0x2ABA8, symBinAddr: 0x100155D38, symSize: 0x0 }
  - { offsetInCU: 0x6719, offset: 0x46370, size: 0x8, addend: 0x0, symName: _glad_glWindowPos3i, symObjAddr: 0x2ABB0, symBinAddr: 0x100155D40, symSize: 0x0 }
  - { offsetInCU: 0x673C, offset: 0x46393, size: 0x8, addend: 0x0, symName: _glad_glMultiTexCoord4s, symObjAddr: 0x2ABB8, symBinAddr: 0x100155D48, symSize: 0x0 }
  - { offsetInCU: 0x677F, offset: 0x463D6, size: 0x8, addend: 0x0, symName: _glad_glWindowPos3f, symObjAddr: 0x2ABC0, symBinAddr: 0x100155D50, symSize: 0x0 }
  - { offsetInCU: 0x67A2, offset: 0x463F9, size: 0x8, addend: 0x0, symName: _glad_glColor3us, symObjAddr: 0x2ABC8, symBinAddr: 0x100155D58, symSize: 0x0 }
  - { offsetInCU: 0x67C5, offset: 0x4641C, size: 0x8, addend: 0x0, symName: _glad_glColor3uiv, symObjAddr: 0x2ABD0, symBinAddr: 0x100155D60, symSize: 0x0 }
  - { offsetInCU: 0x67E8, offset: 0x4643F, size: 0x8, addend: 0x0, symName: _glad_glVertexAttrib4Nusv, symObjAddr: 0x2ABD8, symBinAddr: 0x100155D68, symSize: 0x0 }
  - { offsetInCU: 0x680B, offset: 0x46462, size: 0x8, addend: 0x0, symName: _glad_glGetLightiv, symObjAddr: 0x2ABE0, symBinAddr: 0x100155D70, symSize: 0x0 }
  - { offsetInCU: 0x682E, offset: 0x46485, size: 0x8, addend: 0x0, symName: _glad_glDepthFunc, symObjAddr: 0x2ABE8, symBinAddr: 0x100155D78, symSize: 0x0 }
  - { offsetInCU: 0x6851, offset: 0x464A8, size: 0x8, addend: 0x0, symName: _glad_glCompressedTexSubImage2D, symObjAddr: 0x2ABF0, symBinAddr: 0x100155D80, symSize: 0x0 }
  - { offsetInCU: 0x68A8, offset: 0x464FF, size: 0x8, addend: 0x0, symName: _glad_glListBase, symObjAddr: 0x2ABF8, symBinAddr: 0x100155D88, symSize: 0x0 }
  - { offsetInCU: 0x68CB, offset: 0x46522, size: 0x8, addend: 0x0, symName: _glad_glMultiTexCoord4f, symObjAddr: 0x2AC00, symBinAddr: 0x100155D90, symSize: 0x0 }
  - { offsetInCU: 0x690E, offset: 0x46565, size: 0x8, addend: 0x0, symName: _glad_glColor3ub, symObjAddr: 0x2AC08, symBinAddr: 0x100155D98, symSize: 0x0 }
  - { offsetInCU: 0x6931, offset: 0x46588, size: 0x8, addend: 0x0, symName: _glad_glMultiTexCoord4d, symObjAddr: 0x2AC10, symBinAddr: 0x100155DA0, symSize: 0x0 }
  - { offsetInCU: 0x6974, offset: 0x465CB, size: 0x8, addend: 0x0, symName: _glad_glVertexAttribI4bv, symObjAddr: 0x2AC18, symBinAddr: 0x100155DA8, symSize: 0x0 }
  - { offsetInCU: 0x6997, offset: 0x465EE, size: 0x8, addend: 0x0, symName: _glad_glGetTexParameterfv, symObjAddr: 0x2AC20, symBinAddr: 0x100155DB0, symSize: 0x0 }
  - { offsetInCU: 0x69BA, offset: 0x46611, size: 0x8, addend: 0x0, symName: _glad_glColor3ui, symObjAddr: 0x2AC28, symBinAddr: 0x100155DB8, symSize: 0x0 }
  - { offsetInCU: 0x69DD, offset: 0x46634, size: 0x8, addend: 0x0, symName: _glad_glMultiTexCoord4i, symObjAddr: 0x2AC30, symBinAddr: 0x100155DC0, symSize: 0x0 }
  - { offsetInCU: 0x6A00, offset: 0x46657, size: 0x8, addend: 0x0, symName: _glad_glGetPolygonStipple, symObjAddr: 0x2AC38, symBinAddr: 0x100155DC8, symSize: 0x0 }
  - { offsetInCU: 0x6A34, offset: 0x4668B, size: 0x8, addend: 0x0, symName: _glad_glClientWaitSync, symObjAddr: 0x2AC40, symBinAddr: 0x100155DD0, symSize: 0x0 }
  - { offsetInCU: 0x6A72, offset: 0x466C9, size: 0x8, addend: 0x0, symName: _glad_glVertexAttribI4ui, symObjAddr: 0x2AC48, symBinAddr: 0x100155DD8, symSize: 0x0 }
  - { offsetInCU: 0x6AB5, offset: 0x4670C, size: 0x8, addend: 0x0, symName: _glad_glMultiTexCoord4dv, symObjAddr: 0x2AC50, symBinAddr: 0x100155DE0, symSize: 0x0 }
  - { offsetInCU: 0x6AD8, offset: 0x4672F, size: 0x8, addend: 0x0, symName: _glad_glColorMask, symObjAddr: 0x2AC58, symBinAddr: 0x100155DE8, symSize: 0x0 }
  - { offsetInCU: 0x6B16, offset: 0x4676D, size: 0x8, addend: 0x0, symName: _glad_glTexParameterIiv, symObjAddr: 0x2AC60, symBinAddr: 0x100155DF0, symSize: 0x0 }
  - { offsetInCU: 0x6B39, offset: 0x46790, size: 0x8, addend: 0x0, symName: _glad_glBlendEquation, symObjAddr: 0x2AC68, symBinAddr: 0x100155DF8, symSize: 0x0 }
  - { offsetInCU: 0x6B5C, offset: 0x467B3, size: 0x8, addend: 0x0, symName: _glad_glGetUniformLocation, symObjAddr: 0x2AC70, symBinAddr: 0x100155E00, symSize: 0x0 }
  - { offsetInCU: 0x6B7F, offset: 0x467D6, size: 0x8, addend: 0x0, symName: _glad_glGetSamplerParameteriv, symObjAddr: 0x2AC78, symBinAddr: 0x100155E08, symSize: 0x0 }
  - { offsetInCU: 0x6BA2, offset: 0x467F9, size: 0x8, addend: 0x0, symName: _glad_glRasterPos4s, symObjAddr: 0x2AC80, symBinAddr: 0x100155E10, symSize: 0x0 }
  - { offsetInCU: 0x6BC5, offset: 0x4681C, size: 0x8, addend: 0x0, symName: _glad_glEndTransformFeedback, symObjAddr: 0x2AC88, symBinAddr: 0x100155E18, symSize: 0x0 }
  - { offsetInCU: 0x6BE8, offset: 0x4683F, size: 0x8, addend: 0x0, symName: _glad_glVertexAttrib4usv, symObjAddr: 0x2AC90, symBinAddr: 0x100155E20, symSize: 0x0 }
  - { offsetInCU: 0x6C0B, offset: 0x46862, size: 0x8, addend: 0x0, symName: _glad_glMultiTexCoord3dv, symObjAddr: 0x2AC98, symBinAddr: 0x100155E28, symSize: 0x0 }
  - { offsetInCU: 0x6C2E, offset: 0x46885, size: 0x8, addend: 0x0, symName: _glad_glColor4sv, symObjAddr: 0x2ACA0, symBinAddr: 0x100155E30, symSize: 0x0 }
  - { offsetInCU: 0x6C51, offset: 0x468A8, size: 0x8, addend: 0x0, symName: _glad_glPopClientAttrib, symObjAddr: 0x2ACA8, symBinAddr: 0x100155E38, symSize: 0x0 }
  - { offsetInCU: 0x6C74, offset: 0x468CB, size: 0x8, addend: 0x0, symName: _glad_glBeginTransformFeedback, symObjAddr: 0x2ACB0, symBinAddr: 0x100155E40, symSize: 0x0 }
  - { offsetInCU: 0x6C97, offset: 0x468EE, size: 0x8, addend: 0x0, symName: _glad_glFogf, symObjAddr: 0x2ACB8, symBinAddr: 0x100155E48, symSize: 0x0 }
  - { offsetInCU: 0x6CBA, offset: 0x46911, size: 0x8, addend: 0x0, symName: _glad_glVertexAttribI1iv, symObjAddr: 0x2ACC0, symBinAddr: 0x100155E50, symSize: 0x0 }
  - { offsetInCU: 0x6CDD, offset: 0x46934, size: 0x8, addend: 0x0, symName: _glad_glIsSampler, symObjAddr: 0x2ACC8, symBinAddr: 0x100155E58, symSize: 0x0 }
  - { offsetInCU: 0x6D00, offset: 0x46957, size: 0x8, addend: 0x0, symName: _glad_glVertexP3ui, symObjAddr: 0x2ACD0, symBinAddr: 0x100155E60, symSize: 0x0 }
  - { offsetInCU: 0x6D23, offset: 0x4697A, size: 0x8, addend: 0x0, symName: _glad_glVertexAttribDivisor, symObjAddr: 0x2ACD8, symBinAddr: 0x100155E68, symSize: 0x0 }
  - { offsetInCU: 0x6D46, offset: 0x4699D, size: 0x8, addend: 0x0, symName: _glad_glColor3iv, symObjAddr: 0x2ACE0, symBinAddr: 0x100155E70, symSize: 0x0 }
  - { offsetInCU: 0x6D69, offset: 0x469C0, size: 0x8, addend: 0x0, symName: _glad_glCompressedTexImage1D, symObjAddr: 0x2ACE8, symBinAddr: 0x100155E78, symSize: 0x0 }
  - { offsetInCU: 0x6DB6, offset: 0x46A0D, size: 0x8, addend: 0x0, symName: _glad_glCopyTexSubImage1D, symObjAddr: 0x2ACF0, symBinAddr: 0x100155E80, symSize: 0x0 }
  - { offsetInCU: 0x6DFE, offset: 0x46A55, size: 0x8, addend: 0x0, symName: _glad_glTexCoord1i, symObjAddr: 0x2ACF8, symBinAddr: 0x100155E88, symSize: 0x0 }
  - { offsetInCU: 0x6E21, offset: 0x46A78, size: 0x8, addend: 0x0, symName: _glad_glCheckFramebufferStatus, symObjAddr: 0x2AD00, symBinAddr: 0x100155E90, symSize: 0x0 }
  - { offsetInCU: 0x6E55, offset: 0x46AAC, size: 0x8, addend: 0x0, symName: _glad_glTexCoord1d, symObjAddr: 0x2AD08, symBinAddr: 0x100155E98, symSize: 0x0 }
  - { offsetInCU: 0x6E78, offset: 0x46ACF, size: 0x8, addend: 0x0, symName: _glad_glTexCoord1f, symObjAddr: 0x2AD10, symBinAddr: 0x100155EA0, symSize: 0x0 }
  - { offsetInCU: 0x6E9B, offset: 0x46AF2, size: 0x8, addend: 0x0, symName: _glad_glEndConditionalRender, symObjAddr: 0x2AD18, symBinAddr: 0x100155EA8, symSize: 0x0 }
  - { offsetInCU: 0x6EBE, offset: 0x46B15, size: 0x8, addend: 0x0, symName: _glad_glEnableClientState, symObjAddr: 0x2AD20, symBinAddr: 0x100155EB0, symSize: 0x0 }
  - { offsetInCU: 0x6EE1, offset: 0x46B38, size: 0x8, addend: 0x0, symName: _glad_glBindAttribLocation, symObjAddr: 0x2AD28, symBinAddr: 0x100155EB8, symSize: 0x0 }
  - { offsetInCU: 0x6F04, offset: 0x46B5B, size: 0x8, addend: 0x0, symName: _glad_glUniformMatrix4x2fv, symObjAddr: 0x2AD30, symBinAddr: 0x100155EC0, symSize: 0x0 }
  - { offsetInCU: 0x6F27, offset: 0x46B7E, size: 0x8, addend: 0x0, symName: _glad_glMultiTexCoord2sv, symObjAddr: 0x2AD38, symBinAddr: 0x100155EC8, symSize: 0x0 }
  - { offsetInCU: 0x6F4A, offset: 0x46BA1, size: 0x8, addend: 0x0, symName: _glad_glVertexAttrib1dv, symObjAddr: 0x2AD40, symBinAddr: 0x100155ED0, symSize: 0x0 }
  - { offsetInCU: 0x6F6D, offset: 0x46BC4, size: 0x8, addend: 0x0, symName: _glad_glDrawRangeElements, symObjAddr: 0x2AD48, symBinAddr: 0x100155ED8, symSize: 0x0 }
  - { offsetInCU: 0x6FB5, offset: 0x46C0C, size: 0x8, addend: 0x0, symName: _glad_glTexCoord1s, symObjAddr: 0x2AD50, symBinAddr: 0x100155EE0, symSize: 0x0 }
  - { offsetInCU: 0x6FD8, offset: 0x46C2F, size: 0x8, addend: 0x0, symName: _glad_glBindBufferBase, symObjAddr: 0x2AD58, symBinAddr: 0x100155EE8, symSize: 0x0 }
  - { offsetInCU: 0x7011, offset: 0x46C68, size: 0x8, addend: 0x0, symName: _glad_glBufferSubData, symObjAddr: 0x2AD60, symBinAddr: 0x100155EF0, symSize: 0x0 }
  - { offsetInCU: 0x704F, offset: 0x46CA6, size: 0x8, addend: 0x0, symName: _glad_glVertexAttrib4iv, symObjAddr: 0x2AD68, symBinAddr: 0x100155EF8, symSize: 0x0 }
  - { offsetInCU: 0x7072, offset: 0x46CC9, size: 0x8, addend: 0x0, symName: _glad_glGenLists, symObjAddr: 0x2AD70, symBinAddr: 0x100155F00, symSize: 0x0 }
  - { offsetInCU: 0x70A6, offset: 0x46CFD, size: 0x8, addend: 0x0, symName: _glad_glColor3bv, symObjAddr: 0x2AD78, symBinAddr: 0x100155F08, symSize: 0x0 }
  - { offsetInCU: 0x70C9, offset: 0x46D20, size: 0x8, addend: 0x0, symName: _glad_glMapBufferRange, symObjAddr: 0x2AD80, symBinAddr: 0x100155F10, symSize: 0x0 }
  - { offsetInCU: 0x710C, offset: 0x46D63, size: 0x8, addend: 0x0, symName: _glad_glFramebufferTexture, symObjAddr: 0x2AD88, symBinAddr: 0x100155F18, symSize: 0x0 }
  - { offsetInCU: 0x714A, offset: 0x46DA1, size: 0x8, addend: 0x0, symName: _glad_glGetTexGendv, symObjAddr: 0x2AD90, symBinAddr: 0x100155F20, symSize: 0x0 }
  - { offsetInCU: 0x716D, offset: 0x46DC4, size: 0x8, addend: 0x0, symName: _glad_glMultiDrawArrays, symObjAddr: 0x2AD98, symBinAddr: 0x100155F28, symSize: 0x0 }
  - { offsetInCU: 0x71AB, offset: 0x46E02, size: 0x8, addend: 0x0, symName: _glad_glEndList, symObjAddr: 0x2ADA0, symBinAddr: 0x100155F30, symSize: 0x0 }
  - { offsetInCU: 0x71CE, offset: 0x46E25, size: 0x8, addend: 0x0, symName: _glad_glVertexP4uiv, symObjAddr: 0x2ADA8, symBinAddr: 0x100155F38, symSize: 0x0 }
  - { offsetInCU: 0x71F1, offset: 0x46E48, size: 0x8, addend: 0x0, symName: _glad_glUniform2ui, symObjAddr: 0x2ADB0, symBinAddr: 0x100155F40, symSize: 0x0 }
  - { offsetInCU: 0x722A, offset: 0x46E81, size: 0x8, addend: 0x0, symName: _glad_glVertexAttribI2iv, symObjAddr: 0x2ADB8, symBinAddr: 0x100155F48, symSize: 0x0 }
  - { offsetInCU: 0x724D, offset: 0x46EA4, size: 0x8, addend: 0x0, symName: _glad_glColor3usv, symObjAddr: 0x2ADC0, symBinAddr: 0x100155F50, symSize: 0x0 }
  - { offsetInCU: 0x7270, offset: 0x46EC7, size: 0x8, addend: 0x0, symName: _glad_glWindowPos2fv, symObjAddr: 0x2ADC8, symBinAddr: 0x100155F58, symSize: 0x0 }
  - { offsetInCU: 0x7293, offset: 0x46EEA, size: 0x8, addend: 0x0, symName: _glad_glDisablei, symObjAddr: 0x2ADD0, symBinAddr: 0x100155F60, symSize: 0x0 }
  - { offsetInCU: 0x72B6, offset: 0x46F0D, size: 0x8, addend: 0x0, symName: _glad_glIndexMask, symObjAddr: 0x2ADD8, symBinAddr: 0x100155F68, symSize: 0x0 }
  - { offsetInCU: 0x72D9, offset: 0x46F30, size: 0x8, addend: 0x0, symName: _glad_glPushClientAttrib, symObjAddr: 0x2ADE0, symBinAddr: 0x100155F70, symSize: 0x0 }
  - { offsetInCU: 0x72FC, offset: 0x46F53, size: 0x8, addend: 0x0, symName: _glad_glShaderSource, symObjAddr: 0x2ADE8, symBinAddr: 0x100155F78, symSize: 0x0 }
  - { offsetInCU: 0x733A, offset: 0x46F91, size: 0x8, addend: 0x0, symName: _glad_glGetActiveUniformBlockName, symObjAddr: 0x2ADF0, symBinAddr: 0x100155F80, symSize: 0x0 }
  - { offsetInCU: 0x735D, offset: 0x46FB4, size: 0x8, addend: 0x0, symName: _glad_glVertexAttribI3uiv, symObjAddr: 0x2ADF8, symBinAddr: 0x100155F88, symSize: 0x0 }
  - { offsetInCU: 0x7380, offset: 0x46FD7, size: 0x8, addend: 0x0, symName: _glad_glClearAccum, symObjAddr: 0x2AE00, symBinAddr: 0x100155F90, symSize: 0x0 }
  - { offsetInCU: 0x73A3, offset: 0x46FFA, size: 0x8, addend: 0x0, symName: _glad_glGetSynciv, symObjAddr: 0x2AE08, symBinAddr: 0x100155F98, symSize: 0x0 }
  - { offsetInCU: 0x73E6, offset: 0x4703D, size: 0x8, addend: 0x0, symName: _glad_glTexCoordP2uiv, symObjAddr: 0x2AE10, symBinAddr: 0x100155FA0, symSize: 0x0 }
  - { offsetInCU: 0x7409, offset: 0x47060, size: 0x8, addend: 0x0, symName: _glad_glUniform2f, symObjAddr: 0x2AE18, symBinAddr: 0x100155FA8, symSize: 0x0 }
  - { offsetInCU: 0x742C, offset: 0x47083, size: 0x8, addend: 0x0, symName: _glad_glBeginQuery, symObjAddr: 0x2AE20, symBinAddr: 0x100155FB0, symSize: 0x0 }
  - { offsetInCU: 0x744F, offset: 0x470A6, size: 0x8, addend: 0x0, symName: _glad_glGetUniformBlockIndex, symObjAddr: 0x2AE28, symBinAddr: 0x100155FB8, symSize: 0x0 }
  - { offsetInCU: 0x7488, offset: 0x470DF, size: 0x8, addend: 0x0, symName: _glad_glBindBuffer, symObjAddr: 0x2AE30, symBinAddr: 0x100155FC0, symSize: 0x0 }
  - { offsetInCU: 0x74AB, offset: 0x47102, size: 0x8, addend: 0x0, symName: _glad_glMap2d, symObjAddr: 0x2AE38, symBinAddr: 0x100155FC8, symSize: 0x0 }
  - { offsetInCU: 0x7507, offset: 0x4715E, size: 0x8, addend: 0x0, symName: _glad_glMap2f, symObjAddr: 0x2AE40, symBinAddr: 0x100155FD0, symSize: 0x0 }
  - { offsetInCU: 0x7563, offset: 0x471BA, size: 0x8, addend: 0x0, symName: _glad_glVertex4d, symObjAddr: 0x2AE48, symBinAddr: 0x100155FD8, symSize: 0x0 }
  - { offsetInCU: 0x7586, offset: 0x471DD, size: 0x8, addend: 0x0, symName: _glad_glUniformMatrix2fv, symObjAddr: 0x2AE50, symBinAddr: 0x100155FE0, symSize: 0x0 }
  - { offsetInCU: 0x75A9, offset: 0x47200, size: 0x8, addend: 0x0, symName: _glad_glTexCoord1sv, symObjAddr: 0x2AE58, symBinAddr: 0x100155FE8, symSize: 0x0 }
  - { offsetInCU: 0x75CC, offset: 0x47223, size: 0x8, addend: 0x0, symName: _glad_glBufferData, symObjAddr: 0x2AE60, symBinAddr: 0x100155FF0, symSize: 0x0 }
  - { offsetInCU: 0x760A, offset: 0x47261, size: 0x8, addend: 0x0, symName: _glad_glEvalPoint1, symObjAddr: 0x2AE68, symBinAddr: 0x100155FF8, symSize: 0x0 }
  - { offsetInCU: 0x762D, offset: 0x47284, size: 0x8, addend: 0x0, symName: _glad_glGetTexParameterIiv, symObjAddr: 0x2AE70, symBinAddr: 0x100156000, symSize: 0x0 }
  - { offsetInCU: 0x7650, offset: 0x472A7, size: 0x8, addend: 0x0, symName: _glad_glTexCoord1dv, symObjAddr: 0x2AE78, symBinAddr: 0x100156008, symSize: 0x0 }
  - { offsetInCU: 0x7673, offset: 0x472CA, size: 0x8, addend: 0x0, symName: _glad_glTexCoordP1ui, symObjAddr: 0x2AE80, symBinAddr: 0x100156010, symSize: 0x0 }
  - { offsetInCU: 0x7696, offset: 0x472ED, size: 0x8, addend: 0x0, symName: _glad_glGetError, symObjAddr: 0x2AE88, symBinAddr: 0x100156018, symSize: 0x0 }
  - { offsetInCU: 0x76C3, offset: 0x4731A, size: 0x8, addend: 0x0, symName: _glad_glGetTexEnviv, symObjAddr: 0x2AE90, symBinAddr: 0x100156020, symSize: 0x0 }
  - { offsetInCU: 0x76E6, offset: 0x4733D, size: 0x8, addend: 0x0, symName: _glad_glGetProgramiv, symObjAddr: 0x2AE98, symBinAddr: 0x100156028, symSize: 0x0 }
  - { offsetInCU: 0x7709, offset: 0x47360, size: 0x8, addend: 0x0, symName: _glad_glVertexAttribP2ui, symObjAddr: 0x2AEA0, symBinAddr: 0x100156030, symSize: 0x0 }
  - { offsetInCU: 0x772C, offset: 0x47383, size: 0x8, addend: 0x0, symName: _glad_glGetFloatv, symObjAddr: 0x2AEA8, symBinAddr: 0x100156038, symSize: 0x0 }
  - { offsetInCU: 0x774F, offset: 0x473A6, size: 0x8, addend: 0x0, symName: _glad_glTexSubImage1D, symObjAddr: 0x2AEB0, symBinAddr: 0x100156040, symSize: 0x0 }
  - { offsetInCU: 0x779C, offset: 0x473F3, size: 0x8, addend: 0x0, symName: _glad_glMultiTexCoord2fv, symObjAddr: 0x2AEB8, symBinAddr: 0x100156048, symSize: 0x0 }
  - { offsetInCU: 0x77BF, offset: 0x47416, size: 0x8, addend: 0x0, symName: _glad_glVertexAttrib2fv, symObjAddr: 0x2AEC0, symBinAddr: 0x100156050, symSize: 0x0 }
  - { offsetInCU: 0x77E2, offset: 0x47439, size: 0x8, addend: 0x0, symName: _glad_glEvalCoord1d, symObjAddr: 0x2AEC8, symBinAddr: 0x100156058, symSize: 0x0 }
  - { offsetInCU: 0x7805, offset: 0x4745C, size: 0x8, addend: 0x0, symName: _glad_glGetTexLevelParameterfv, symObjAddr: 0x2AED0, symBinAddr: 0x100156060, symSize: 0x0 }
  - { offsetInCU: 0x7843, offset: 0x4749A, size: 0x8, addend: 0x0, symName: _glad_glEvalCoord1f, symObjAddr: 0x2AED8, symBinAddr: 0x100156068, symSize: 0x0 }
  - { offsetInCU: 0x7866, offset: 0x474BD, size: 0x8, addend: 0x0, symName: _glad_glPixelMapfv, symObjAddr: 0x2AEE0, symBinAddr: 0x100156070, symSize: 0x0 }
  - { offsetInCU: 0x789F, offset: 0x474F6, size: 0x8, addend: 0x0, symName: _glad_glVertexAttribP3uiv, symObjAddr: 0x2AEE8, symBinAddr: 0x100156078, symSize: 0x0 }
  - { offsetInCU: 0x78C2, offset: 0x47519, size: 0x8, addend: 0x0, symName: _glad_glGetPixelMapusv, symObjAddr: 0x2AEF0, symBinAddr: 0x100156080, symSize: 0x0 }
  - { offsetInCU: 0x78FB, offset: 0x47552, size: 0x8, addend: 0x0, symName: _glad_glSecondaryColorP3uiv, symObjAddr: 0x2AEF8, symBinAddr: 0x100156088, symSize: 0x0 }
  - { offsetInCU: 0x791E, offset: 0x47575, size: 0x8, addend: 0x0, symName: _glad_glGetIntegerv, symObjAddr: 0x2AF00, symBinAddr: 0x100156090, symSize: 0x0 }
  - { offsetInCU: 0x7952, offset: 0x475A9, size: 0x8, addend: 0x0, symName: _glad_glAccum, symObjAddr: 0x2AF08, symBinAddr: 0x100156098, symSize: 0x0 }
  - { offsetInCU: 0x7975, offset: 0x475CC, size: 0x8, addend: 0x0, symName: _glad_glGetBufferPointerv, symObjAddr: 0x2AF10, symBinAddr: 0x1001560A0, symSize: 0x0 }
  - { offsetInCU: 0x79AE, offset: 0x47605, size: 0x8, addend: 0x0, symName: _glad_glGetVertexAttribIiv, symObjAddr: 0x2AF18, symBinAddr: 0x1001560A8, symSize: 0x0 }
  - { offsetInCU: 0x79D1, offset: 0x47628, size: 0x8, addend: 0x0, symName: _glad_glRasterPos4dv, symObjAddr: 0x2AF20, symBinAddr: 0x1001560B0, symSize: 0x0 }
  - { offsetInCU: 0x79F4, offset: 0x4764B, size: 0x8, addend: 0x0, symName: _glad_glTexCoord2iv, symObjAddr: 0x2AF28, symBinAddr: 0x1001560B8, symSize: 0x0 }
  - { offsetInCU: 0x7A17, offset: 0x4766E, size: 0x8, addend: 0x0, symName: _glad_glIsQuery, symObjAddr: 0x2AF30, symBinAddr: 0x1001560C0, symSize: 0x0 }
  - { offsetInCU: 0x7A3A, offset: 0x47691, size: 0x8, addend: 0x0, symName: _glad_glVertexAttrib4sv, symObjAddr: 0x2AF38, symBinAddr: 0x1001560C8, symSize: 0x0 }
  - { offsetInCU: 0x7A5D, offset: 0x476B4, size: 0x8, addend: 0x0, symName: _glad_glWindowPos3dv, symObjAddr: 0x2AF40, symBinAddr: 0x1001560D0, symSize: 0x0 }
  - { offsetInCU: 0x7A80, offset: 0x476D7, size: 0x8, addend: 0x0, symName: _glad_glTexImage2D, symObjAddr: 0x2AF48, symBinAddr: 0x1001560D8, symSize: 0x0 }
  - { offsetInCU: 0x7AD7, offset: 0x4772E, size: 0x8, addend: 0x0, symName: _glad_glStencilMask, symObjAddr: 0x2AF50, symBinAddr: 0x1001560E0, symSize: 0x0 }
  - { offsetInCU: 0x7AFA, offset: 0x47751, size: 0x8, addend: 0x0, symName: _glad_glDrawPixels, symObjAddr: 0x2AF58, symBinAddr: 0x1001560E8, symSize: 0x0 }
  - { offsetInCU: 0x7B3D, offset: 0x47794, size: 0x8, addend: 0x0, symName: _glad_glMultMatrixd, symObjAddr: 0x2AF60, symBinAddr: 0x1001560F0, symSize: 0x0 }
  - { offsetInCU: 0x7B60, offset: 0x477B7, size: 0x8, addend: 0x0, symName: _glad_glMultMatrixf, symObjAddr: 0x2AF68, symBinAddr: 0x1001560F8, symSize: 0x0 }
  - { offsetInCU: 0x7B83, offset: 0x477DA, size: 0x8, addend: 0x0, symName: _glad_glIsTexture, symObjAddr: 0x2AF70, symBinAddr: 0x100156100, symSize: 0x0 }
  - { offsetInCU: 0x7BA6, offset: 0x477FD, size: 0x8, addend: 0x0, symName: _glad_glGetMaterialiv, symObjAddr: 0x2AF78, symBinAddr: 0x100156108, symSize: 0x0 }
  - { offsetInCU: 0x7BC9, offset: 0x47820, size: 0x8, addend: 0x0, symName: _glad_glUniform1fv, symObjAddr: 0x2AF80, symBinAddr: 0x100156110, symSize: 0x0 }
  - { offsetInCU: 0x7BEC, offset: 0x47843, size: 0x8, addend: 0x0, symName: _glad_glLoadMatrixf, symObjAddr: 0x2AF88, symBinAddr: 0x100156118, symSize: 0x0 }
  - { offsetInCU: 0x7C0F, offset: 0x47866, size: 0x8, addend: 0x0, symName: _glad_glLoadMatrixd, symObjAddr: 0x2AF90, symBinAddr: 0x100156120, symSize: 0x0 }
  - { offsetInCU: 0x7C32, offset: 0x47889, size: 0x8, addend: 0x0, symName: _glad_glTexParameterfv, symObjAddr: 0x2AF98, symBinAddr: 0x100156128, symSize: 0x0 }
  - { offsetInCU: 0x7C55, offset: 0x478AC, size: 0x8, addend: 0x0, symName: _glad_glUniformMatrix3fv, symObjAddr: 0x2AFA0, symBinAddr: 0x100156130, symSize: 0x0 }
  - { offsetInCU: 0x7C78, offset: 0x478CF, size: 0x8, addend: 0x0, symName: _glad_glVertex4f, symObjAddr: 0x2AFA8, symBinAddr: 0x100156138, symSize: 0x0 }
  - { offsetInCU: 0x7C9B, offset: 0x478F2, size: 0x8, addend: 0x0, symName: _glad_glRectsv, symObjAddr: 0x2AFB0, symBinAddr: 0x100156140, symSize: 0x0 }
  - { offsetInCU: 0x7CCF, offset: 0x47926, size: 0x8, addend: 0x0, symName: _glad_glColor4usv, symObjAddr: 0x2AFB8, symBinAddr: 0x100156148, symSize: 0x0 }
  - { offsetInCU: 0x7CF2, offset: 0x47949, size: 0x8, addend: 0x0, symName: _glad_glPolygonStipple, symObjAddr: 0x2AFC0, symBinAddr: 0x100156150, symSize: 0x0 }
  - { offsetInCU: 0x7D15, offset: 0x4796C, size: 0x8, addend: 0x0, symName: _glad_glInterleavedArrays, symObjAddr: 0x2AFC8, symBinAddr: 0x100156158, symSize: 0x0 }
  - { offsetInCU: 0x7D38, offset: 0x4798F, size: 0x8, addend: 0x0, symName: _glad_glNormal3i, symObjAddr: 0x2AFD0, symBinAddr: 0x100156160, symSize: 0x0 }
  - { offsetInCU: 0x7D5B, offset: 0x479B2, size: 0x8, addend: 0x0, symName: _glad_glNormal3f, symObjAddr: 0x2AFD8, symBinAddr: 0x100156168, symSize: 0x0 }
  - { offsetInCU: 0x7D7E, offset: 0x479D5, size: 0x8, addend: 0x0, symName: _glad_glNormal3d, symObjAddr: 0x2AFE0, symBinAddr: 0x100156170, symSize: 0x0 }
  - { offsetInCU: 0x7DA1, offset: 0x479F8, size: 0x8, addend: 0x0, symName: _glad_glNormal3b, symObjAddr: 0x2AFE8, symBinAddr: 0x100156178, symSize: 0x0 }
  - { offsetInCU: 0x7DC4, offset: 0x47A1B, size: 0x8, addend: 0x0, symName: _glad_glPixelMapusv, symObjAddr: 0x2AFF0, symBinAddr: 0x100156180, symSize: 0x0 }
  - { offsetInCU: 0x7DFD, offset: 0x47A54, size: 0x8, addend: 0x0, symName: _glad_glGetTexGeniv, symObjAddr: 0x2AFF8, symBinAddr: 0x100156188, symSize: 0x0 }
  - { offsetInCU: 0x7E20, offset: 0x47A77, size: 0x8, addend: 0x0, symName: _glad_glArrayElement, symObjAddr: 0x2B000, symBinAddr: 0x100156190, symSize: 0x0 }
  - { offsetInCU: 0x7E43, offset: 0x47A9A, size: 0x8, addend: 0x0, symName: _glad_glCopyBufferSubData, symObjAddr: 0x2B008, symBinAddr: 0x100156198, symSize: 0x0 }
  - { offsetInCU: 0x7E86, offset: 0x47ADD, size: 0x8, addend: 0x0, symName: _glad_glVertexAttribI1uiv, symObjAddr: 0x2B010, symBinAddr: 0x1001561A0, symSize: 0x0 }
  - { offsetInCU: 0x7EA9, offset: 0x47B00, size: 0x8, addend: 0x0, symName: _glad_glVertexAttrib2d, symObjAddr: 0x2B018, symBinAddr: 0x1001561A8, symSize: 0x0 }
  - { offsetInCU: 0x7EE2, offset: 0x47B39, size: 0x8, addend: 0x0, symName: _glad_glVertexAttrib2f, symObjAddr: 0x2B020, symBinAddr: 0x1001561B0, symSize: 0x0 }
  - { offsetInCU: 0x7F1B, offset: 0x47B72, size: 0x8, addend: 0x0, symName: _glad_glVertexAttrib3dv, symObjAddr: 0x2B028, symBinAddr: 0x1001561B8, symSize: 0x0 }
  - { offsetInCU: 0x7F3E, offset: 0x47B95, size: 0x8, addend: 0x0, symName: _glad_glGetQueryObjectui64v, symObjAddr: 0x2B030, symBinAddr: 0x1001561C0, symSize: 0x0 }
  - { offsetInCU: 0x7F7C, offset: 0x47BD3, size: 0x8, addend: 0x0, symName: _glad_glDepthMask, symObjAddr: 0x2B038, symBinAddr: 0x1001561C8, symSize: 0x0 }
  - { offsetInCU: 0x7F9F, offset: 0x47BF6, size: 0x8, addend: 0x0, symName: _glad_glVertexAttrib2s, symObjAddr: 0x2B040, symBinAddr: 0x1001561D0, symSize: 0x0 }
  - { offsetInCU: 0x7FD8, offset: 0x47C2F, size: 0x8, addend: 0x0, symName: _glad_glColor3fv, symObjAddr: 0x2B048, symBinAddr: 0x1001561D8, symSize: 0x0 }
  - { offsetInCU: 0x7FFB, offset: 0x47C52, size: 0x8, addend: 0x0, symName: _glad_glTexImage3DMultisample, symObjAddr: 0x2B050, symBinAddr: 0x1001561E0, symSize: 0x0 }
  - { offsetInCU: 0x8048, offset: 0x47C9F, size: 0x8, addend: 0x0, symName: _glad_glUniformMatrix4fv, symObjAddr: 0x2B058, symBinAddr: 0x1001561E8, symSize: 0x0 }
  - { offsetInCU: 0x806B, offset: 0x47CC2, size: 0x8, addend: 0x0, symName: _glad_glUniform4fv, symObjAddr: 0x2B060, symBinAddr: 0x1001561F0, symSize: 0x0 }
  - { offsetInCU: 0x808E, offset: 0x47CE5, size: 0x8, addend: 0x0, symName: _glad_glGetActiveUniform, symObjAddr: 0x2B068, symBinAddr: 0x1001561F8, symSize: 0x0 }
  - { offsetInCU: 0x80B1, offset: 0x47D08, size: 0x8, addend: 0x0, symName: _glad_glColorPointer, symObjAddr: 0x2B070, symBinAddr: 0x100156200, symSize: 0x0 }
  - { offsetInCU: 0x80D4, offset: 0x47D2B, size: 0x8, addend: 0x0, symName: _glad_glFrontFace, symObjAddr: 0x2B078, symBinAddr: 0x100156208, symSize: 0x0 }
  - { offsetInCU: 0x80F7, offset: 0x47D4E, size: 0x8, addend: 0x0, symName: _glad_glGetBooleani_v, symObjAddr: 0x2B080, symBinAddr: 0x100156210, symSize: 0x0 }
  - { offsetInCU: 0x8130, offset: 0x47D87, size: 0x8, addend: 0x0, symName: _glad_glClearBufferuiv, symObjAddr: 0x2B088, symBinAddr: 0x100156218, symSize: 0x0 }
  - { offsetInCU: 0x8168, offset: 0x47DBF, size: 0x8, addend: 0x0, symName: __ZL7open_glv, symObjAddr: 0x4C, symBinAddr: 0x100014444, symSize: 0x9C }
  - { offsetInCU: 0x8192, offset: 0x47DE9, size: 0x8, addend: 0x0, symName: __ZZL7open_glvE5NAMES, symObjAddr: 0x81C8, symBinAddr: 0x100150000, symSize: 0x0 }
  - { offsetInCU: 0x81C8, offset: 0x47E1F, size: 0x8, addend: 0x0, symName: __ZL5libGL, symObjAddr: 0x2B090, symBinAddr: 0x100156420, symSize: 0x0 }
  - { offsetInCU: 0x81E2, offset: 0x47E39, size: 0x8, addend: 0x0, symName: __ZL16max_loaded_major, symObjAddr: 0x2B098, symBinAddr: 0x100156428, symSize: 0x0 }
  - { offsetInCU: 0x81FC, offset: 0x47E53, size: 0x8, addend: 0x0, symName: __ZL16max_loaded_minor, symObjAddr: 0x2B09C, symBinAddr: 0x10015642C, symSize: 0x0 }
  - { offsetInCU: 0x8216, offset: 0x47E6D, size: 0x8, addend: 0x0, symName: __ZL4exts, symObjAddr: 0x2B0A0, symBinAddr: 0x100156430, symSize: 0x0 }
  - { offsetInCU: 0x8230, offset: 0x47E87, size: 0x8, addend: 0x0, symName: __ZL10num_exts_i, symObjAddr: 0x2B0A8, symBinAddr: 0x100156438, symSize: 0x0 }
  - { offsetInCU: 0x824A, offset: 0x47EA1, size: 0x8, addend: 0x0, symName: __ZL6exts_i, symObjAddr: 0x2B0B0, symBinAddr: 0x100156440, symSize: 0x0 }
  - { offsetInCU: 0x8269, offset: 0x47EC0, size: 0x8, addend: 0x0, symName: _gladLoadGL, symObjAddr: 0x0, symBinAddr: 0x1000143F8, symSize: 0x4C }
  - { offsetInCU: 0x8292, offset: 0x47EE9, size: 0x8, addend: 0x0, symName: _gladLoadGLLoader, symObjAddr: 0xE8, symBinAddr: 0x1000144E0, symSize: 0x15C }
  - { offsetInCU: 0x82BD, offset: 0x47F14, size: 0x8, addend: 0x0, symName: __ZL8get_procPKc, symObjAddr: 0x244, symBinAddr: 0x10001463C, symSize: 0x7C }
  - { offsetInCU: 0x82F8, offset: 0x47F4F, size: 0x8, addend: 0x0, symName: __ZL8close_glv, symObjAddr: 0x2C0, symBinAddr: 0x1000146B8, symSize: 0x4C }
  - { offsetInCU: 0x8312, offset: 0x47F69, size: 0x8, addend: 0x0, symName: __ZL11find_coreGLv, symObjAddr: 0x30C, symBinAddr: 0x100014704, symSize: 0x5CC }
  - { offsetInCU: 0x8398, offset: 0x47FEF, size: 0x8, addend: 0x0, symName: __ZL19load_GL_VERSION_1_0PFPvPKcE, symObjAddr: 0x8D8, symBinAddr: 0x100014CD0, symSize: 0x1CEC }
  - { offsetInCU: 0x83C3, offset: 0x4801A, size: 0x8, addend: 0x0, symName: __ZL19load_GL_VERSION_1_1PFPvPKcE, symObjAddr: 0x25C4, symBinAddr: 0x1000169BC, symSize: 0x30C }
  - { offsetInCU: 0x83EE, offset: 0x48045, size: 0x8, addend: 0x0, symName: __ZL19load_GL_VERSION_1_2PFPvPKcE, symObjAddr: 0x28D0, symBinAddr: 0x100016CC8, symSize: 0x9C }
  - { offsetInCU: 0x8419, offset: 0x48070, size: 0x8, addend: 0x0, symName: __ZL19load_GL_VERSION_1_3PFPvPKcE, symObjAddr: 0x296C, symBinAddr: 0x100016D64, symSize: 0x48C }
  - { offsetInCU: 0x8444, offset: 0x4809B, size: 0x8, addend: 0x0, symName: __ZL19load_GL_VERSION_1_4PFPvPKcE, symObjAddr: 0x2DF8, symBinAddr: 0x1000171F0, symSize: 0x4A4 }
  - { offsetInCU: 0x846F, offset: 0x480C6, size: 0x8, addend: 0x0, symName: __ZL19load_GL_VERSION_1_5PFPvPKcE, symObjAddr: 0x329C, symBinAddr: 0x100017694, symSize: 0x204 }
  - { offsetInCU: 0x849A, offset: 0x480F1, size: 0x8, addend: 0x0, symName: __ZL19load_GL_VERSION_2_0PFPvPKcE, symObjAddr: 0x34A0, symBinAddr: 0x100017898, symSize: 0x8F4 }
  - { offsetInCU: 0x84C5, offset: 0x4811C, size: 0x8, addend: 0x0, symName: __ZL19load_GL_VERSION_2_1PFPvPKcE, symObjAddr: 0x3D94, symBinAddr: 0x10001818C, symSize: 0xCC }
  - { offsetInCU: 0x84F0, offset: 0x48147, size: 0x8, addend: 0x0, symName: __ZL19load_GL_VERSION_3_0PFPvPKcE, symObjAddr: 0x3E60, symBinAddr: 0x100018258, symSize: 0x81C }
  - { offsetInCU: 0x851B, offset: 0x48172, size: 0x8, addend: 0x0, symName: __ZL19load_GL_VERSION_3_1PFPvPKcE, symObjAddr: 0x467C, symBinAddr: 0x100018A74, symSize: 0x1A4 }
  - { offsetInCU: 0x8546, offset: 0x4819D, size: 0x8, addend: 0x0, symName: __ZL19load_GL_VERSION_3_2PFPvPKcE, symObjAddr: 0x4820, symBinAddr: 0x100018C18, symSize: 0x204 }
  - { offsetInCU: 0x8571, offset: 0x481C8, size: 0x8, addend: 0x0, symName: __ZL19load_GL_VERSION_3_3PFPvPKcE, symObjAddr: 0x4A24, symBinAddr: 0x100018E1C, symSize: 0x5AC }
  - { offsetInCU: 0x859C, offset: 0x481F3, size: 0x8, addend: 0x0, symName: __ZL17find_extensionsGLv, symObjAddr: 0x4FD0, symBinAddr: 0x1000193C8, symSize: 0x48 }
  - { offsetInCU: 0x85BB, offset: 0x48212, size: 0x8, addend: 0x0, symName: __ZL8get_extsv, symObjAddr: 0x5018, symBinAddr: 0x100019410, symSize: 0x194 }
  - { offsetInCU: 0x862E, offset: 0x48285, size: 0x8, addend: 0x0, symName: __ZL7has_extPKc, symObjAddr: 0x51AC, symBinAddr: 0x1000195A4, symSize: 0x1F4 }
  - { offsetInCU: 0x86CB, offset: 0x48322, size: 0x8, addend: 0x0, symName: __ZL9free_extsv, symObjAddr: 0x53A0, symBinAddr: 0x100019798, symSize: 0x98 }
  - { offsetInCU: 0x8702, offset: 0x48359, size: 0x8, addend: 0x0, symName: __Z6strstrB7v160006Ua9enable_ifIXLb1EEEPKcS0_, symObjAddr: 0x5438, symBinAddr: 0x100019830, symSize: 0x2C }
  - { offsetInCU: 0x2C5D, offset: 0x4B011, size: 0x8, addend: 0x0, symName: __ZN8LightingC2Ev, symObjAddr: 0x0, symBinAddr: 0x10001985C, symSize: 0x200 }
  - { offsetInCU: 0x2C8E, offset: 0x4B042, size: 0x8, addend: 0x0, symName: __ZN8Lighting10PointLightC1Ev, symObjAddr: 0x200, symBinAddr: 0x100019A5C, symSize: 0x2C }
  - { offsetInCU: 0x2CBF, offset: 0x4B073, size: 0x8, addend: 0x0, symName: __ZN8Lighting16DirectionalLightC1Ev, symObjAddr: 0x22C, symBinAddr: 0x100019A88, symSize: 0x2C }
  - { offsetInCU: 0x2CF0, offset: 0x4B0A4, size: 0x8, addend: 0x0, symName: __ZN8Lighting9SpotLightC1Ev, symObjAddr: 0x258, symBinAddr: 0x100019AB4, symSize: 0x2C }
  - { offsetInCU: 0x2D27, offset: 0x4B0DB, size: 0x8, addend: 0x0, symName: __ZN8Lighting10PointLightaSEOS0_, symObjAddr: 0x2C8, symBinAddr: 0x100019AE0, symSize: 0x6C }
  - { offsetInCU: 0x2D63, offset: 0x4B117, size: 0x8, addend: 0x0, symName: __ZN8Lighting16DirectionalLightaSEOS0_, symObjAddr: 0x334, symBinAddr: 0x100019B4C, symSize: 0x60 }
  - { offsetInCU: 0x2D94, offset: 0x4B148, size: 0x8, addend: 0x0, symName: __ZN3glm5tvec3IfLNS_9precisionE0EEC1ERKf, symObjAddr: 0x394, symBinAddr: 0x100019BAC, symSize: 0x34 }
  - { offsetInCU: 0x2DD9, offset: 0x4B18D, size: 0x8, addend: 0x0, symName: __ZN8Lighting9SpotLightaSEOS0_, symObjAddr: 0x3C8, symBinAddr: 0x100019BE0, symSize: 0x80 }
  - { offsetInCU: 0x2E0A, offset: 0x4B1BE, size: 0x8, addend: 0x0, symName: __ZN8LightingC1Ev, symObjAddr: 0x448, symBinAddr: 0x100019C60, symSize: 0x2C }
  - { offsetInCU: 0x2E36, offset: 0x4B1EA, size: 0x8, addend: 0x0, symName: __ZN8Lighting11ApplyLightsEjRKN3glm5tvec3IfLNS0_9precisionE0EEE, symObjAddr: 0x474, symBinAddr: 0x100019C8C, symSize: 0x518 }
  - { offsetInCU: 0x2F8C, offset: 0x4B340, size: 0x8, addend: 0x0, symName: '__ZZN8Lighting11ApplyLightsEjRKN3glm5tvec3IfLNS0_9precisionE0EEEENK3$_0clEiPKc', symObjAddr: 0x98C, symBinAddr: 0x10001A1A4, symSize: 0x64 }
  - { offsetInCU: 0x2FD1, offset: 0x4B385, size: 0x8, addend: 0x0, symName: __ZN3glm5tvec3IfLNS_9precisionE0EEixEi, symObjAddr: 0x9F0, symBinAddr: 0x10001A208, symSize: 0xA4 }
  - { offsetInCU: 0x3007, offset: 0x4B3BB, size: 0x8, addend: 0x0, symName: __ZN8Lighting8RenderUIEv, symObjAddr: 0xB80, symBinAddr: 0x10001A2AC, symSize: 0xC8 }
  - { offsetInCU: 0x302F, offset: 0x4B3E3, size: 0x8, addend: 0x0, symName: __ZN8Lighting12PointLightUIEv, symObjAddr: 0xC48, symBinAddr: 0x10001A374, symSize: 0xA4 }
  - { offsetInCU: 0x3057, offset: 0x4B40B, size: 0x8, addend: 0x0, symName: __ZN8Lighting18DirectionalLightUIEv, symObjAddr: 0xCEC, symBinAddr: 0x10001A418, symSize: 0x7C }
  - { offsetInCU: 0x307F, offset: 0x4B433, size: 0x8, addend: 0x0, symName: __ZN8Lighting11SpotLightUIEv, symObjAddr: 0xD68, symBinAddr: 0x10001A494, symSize: 0x104 }
  - { offsetInCU: 0x30A7, offset: 0x4B45B, size: 0x8, addend: 0x0, symName: __ZN8Lighting10PointLightC2Ev, symObjAddr: 0xE6C, symBinAddr: 0x10001A598, symSize: 0x3C }
  - { offsetInCU: 0x30D3, offset: 0x4B487, size: 0x8, addend: 0x0, symName: __ZN8Lighting16DirectionalLightC2Ev, symObjAddr: 0xEF8, symBinAddr: 0x10001A5D4, symSize: 0x3C }
  - { offsetInCU: 0x30FF, offset: 0x4B4B3, size: 0x8, addend: 0x0, symName: __ZN8Lighting9SpotLightC2Ev, symObjAddr: 0xF34, symBinAddr: 0x10001A610, symSize: 0x48 }
  - { offsetInCU: 0x312C, offset: 0x4B4E0, size: 0x8, addend: 0x0, symName: __ZN3glm5tvec3IfLNS_9precisionE0EEC2ERKf, symObjAddr: 0x1C04, symBinAddr: 0x10001A658, symSize: 0x3C }
  - { offsetInCU: 0x49, offset: 0x4B580, size: 0x8, addend: 0x0, symName: __ZNSt3__1L19piecewise_constructE, symObjAddr: 0x2368, symBinAddr: 0x1001433BC, symSize: 0x0 }
  - { offsetInCU: 0x2002, offset: 0x4D539, size: 0x8, addend: 0x0, symName: '__ZNSt3__110__function10__not_nullB7v160006IZ4mainE3$_0EEbRKT_', symObjAddr: 0x4B0, symBinAddr: 0x10001AABC, symSize: 0x18 }
  - { offsetInCU: 0x36FB, offset: 0x4EC32, size: 0x8, addend: 0x0, symName: '__ZNSt3__116forward_as_tupleB7v160006IJZ4mainE3$_0EEENS_5tupleIJDpOT_EEES5_', symObjAddr: 0xA30, symBinAddr: 0x10001B03C, symSize: 0x2C }
  - { offsetInCU: 0x3735, offset: 0x4EC6C, size: 0x8, addend: 0x0, symName: '__ZNSt3__116forward_as_tupleB7v160006IJNS_9allocatorIZ4mainE3$_0EEEEENS_5tupleIJDpOT_EEES7_', symObjAddr: 0xA5C, symBinAddr: 0x10001B068, symSize: 0x2C }
  - { offsetInCU: 0x37B4, offset: 0x4ECEB, size: 0x8, addend: 0x0, symName: '__ZNSt3__13getB7v160006ILm0EJOZ4mainE3$_0EEERNS_13tuple_elementIXT_ENS_5tupleIJDpT0_EEEE4typeERS7_', symObjAddr: 0xD74, symBinAddr: 0x10001B380, symSize: 0x24 }
  - { offsetInCU: 0x37F7, offset: 0x4ED2E, size: 0x8, addend: 0x0, symName: '__ZNSt3__13getB7v160006ILm0EJONS_9allocatorIZ4mainE3$_0EEEEERNS_13tuple_elementIXT_ENS_5tupleIJDpT0_EEEE4typeERS9_', symObjAddr: 0xDB0, symBinAddr: 0x10001B3BC, symSize: 0x24 }
  - { offsetInCU: 0x3D43, offset: 0x4F27A, size: 0x8, addend: 0x0, symName: '__ZNSt3__116forward_as_tupleB7v160006IJRKZ4mainE3$_0EEENS_5tupleIJDpOT_EEES7_', symObjAddr: 0x145C, symBinAddr: 0x10001B958, symSize: 0x2C }
  - { offsetInCU: 0x3D92, offset: 0x4F2C9, size: 0x8, addend: 0x0, symName: '__ZNSt3__13getB7v160006ILm0EJRKZ4mainE3$_0EEERNS_13tuple_elementIXT_ENS_5tupleIJDpT0_EEEE4typeERS8_', symObjAddr: 0x164C, symBinAddr: 0x10001BB48, symSize: 0x24 }
  - { offsetInCU: 0x3DD5, offset: 0x4F30C, size: 0x8, addend: 0x0, symName: '__ZNSt3__116forward_as_tupleB7v160006IJRKNS_9allocatorIZ4mainE3$_0EEEEENS_5tupleIJDpOT_EEES9_', symObjAddr: 0x1AB4, symBinAddr: 0x10001BEA8, symSize: 0x2C }
  - { offsetInCU: 0x3E24, offset: 0x4F35B, size: 0x8, addend: 0x0, symName: '__ZNSt3__13getB7v160006ILm0EJRKNS_9allocatorIZ4mainE3$_0EEEEERNS_13tuple_elementIXT_ENS_5tupleIJDpT0_EEEE4typeERSA_', symObjAddr: 0x1C98, symBinAddr: 0x10001C08C, symSize: 0x24 }
  - { offsetInCU: 0x3EA5, offset: 0x4F3DC, size: 0x8, addend: 0x0, symName: '__ZNSt3__18__invokeB7v160006IRZ4mainE3$_0JR6CameraEEEDTclclsr3stdE7declvalIT_EEspclsr3stdE7declvalIT0_EEEEOS5_DpOS6_', symObjAddr: 0x1D64, symBinAddr: 0x10001C158, symSize: 0x2C }
  - { offsetInCU: 0x3FF9, offset: 0x4F530, size: 0x8, addend: 0x0, symName: _main, symObjAddr: 0x0, symBinAddr: 0x10001A694, symSize: 0x17C }
  - { offsetInCU: 0x64EF, offset: 0x51A26, size: 0x8, addend: 0x0, symName: '__ZNSt3__18functionIFvR6CameraEEC1IZ4mainE3$_0vEET_', symObjAddr: 0x1C0, symBinAddr: 0x10001A810, symSize: 0x3C }
  - { offsetInCU: 0x6534, offset: 0x51A6B, size: 0x8, addend: 0x0, symName: __ZNSt3__18functionIFvR6CameraEED1Ev, symObjAddr: 0x1FC, symBinAddr: 0x10001A84C, symSize: 0x2C }
  - { offsetInCU: 0x6560, offset: 0x51A97, size: 0x8, addend: 0x0, symName: __ZN6RenderD1Ev, symObjAddr: 0x228, symBinAddr: 0x10001A878, symSize: 0x2C }
  - { offsetInCU: 0x658C, offset: 0x51AC3, size: 0x8, addend: 0x0, symName: __ZN6RenderD2Ev, symObjAddr: 0x254, symBinAddr: 0x10001A8A4, symSize: 0x50 }
  - { offsetInCU: 0x65B8, offset: 0x51AEF, size: 0x8, addend: 0x0, symName: '__ZNSt3__18functionIFvR6CameraEEC2IZ4mainE3$_0vEET_', symObjAddr: 0x2E8, symBinAddr: 0x10001A8F4, symSize: 0x3C }
  - { offsetInCU: 0x65FD, offset: 0x51B34, size: 0x8, addend: 0x0, symName: '__ZNSt3__110__function12__value_funcIFvR6CameraEEC1B7v160006IZ4mainE3$_0vEEOT_', symObjAddr: 0x324, symBinAddr: 0x10001A930, symSize: 0x50 }
  - { offsetInCU: 0x6640, offset: 0x51B77, size: 0x8, addend: 0x0, symName: '__ZNSt3__19allocatorIZ4mainE3$_0EC1B7v160006Ev', symObjAddr: 0x374, symBinAddr: 0x10001A980, symSize: 0x2C }
  - { offsetInCU: 0x666A, offset: 0x51BA1, size: 0x8, addend: 0x0, symName: '__ZNSt3__110__function12__value_funcIFvR6CameraEEC1B7v160006IZ4mainE3$_0NS_9allocatorIS7_EEEEOT_RKT0_', symObjAddr: 0x3A0, symBinAddr: 0x10001A9AC, symSize: 0x3C }
  - { offsetInCU: 0x66C4, offset: 0x51BFB, size: 0x8, addend: 0x0, symName: '__ZNSt3__19allocatorIZ4mainE3$_0EC2B7v160006Ev', symObjAddr: 0x3DC, symBinAddr: 0x10001A9E8, symSize: 0x2C }
  - { offsetInCU: 0x66EE, offset: 0x51C25, size: 0x8, addend: 0x0, symName: '__ZNSt3__116__non_trivial_ifILb1ENS_9allocatorIZ4mainE3$_0EEEC2B7v160006Ev', symObjAddr: 0x408, symBinAddr: 0x10001AA14, symSize: 0x14 }
  - { offsetInCU: 0x6718, offset: 0x51C4F, size: 0x8, addend: 0x0, symName: '__ZNSt3__110__function12__value_funcIFvR6CameraEEC2B7v160006IZ4mainE3$_0NS_9allocatorIS7_EEEEOT_RKT0_', symObjAddr: 0x41C, symBinAddr: 0x10001AA28, symSize: 0x94 }
  - { offsetInCU: 0x67BE, offset: 0x51CF5, size: 0x8, addend: 0x0, symName: '__ZNSt3__19allocatorINS_10__function6__funcIZ4mainE3$_0NS0_IS3_EEFvR6CameraEEEEC1B7v160006IS3_EERKNS0_IT_EE', symObjAddr: 0x4C8, symBinAddr: 0x10001AAD4, symSize: 0x34 }
  - { offsetInCU: 0x6800, offset: 0x51D37, size: 0x8, addend: 0x0, symName: '__ZNSt3__19allocatorIZ4mainE3$_0EC1B7v160006INS_10__function6__funcIS1_S2_FvR6CameraEEEEERKNS0_IT_EE', symObjAddr: 0x4FC, symBinAddr: 0x10001AB08, symSize: 0x34 }
  - { offsetInCU: 0x683D, offset: 0x51D74, size: 0x8, addend: 0x0, symName: '__ZNSt3__110__function6__funcIZ4mainE3$_0NS_9allocatorIS2_EEFvR6CameraEEC1B7v160006EOS2_OS4_', symObjAddr: 0x530, symBinAddr: 0x10001AB3C, symSize: 0x3C }
  - { offsetInCU: 0x6885, offset: 0x51DBC, size: 0x8, addend: 0x0, symName: '__ZNSt3__19allocatorINS_10__function6__funcIZ4mainE3$_0NS0_IS3_EEFvR6CameraEEEEC2B7v160006IS3_EERKNS0_IT_EE', symObjAddr: 0x56C, symBinAddr: 0x10001AB78, symSize: 0x30 }
  - { offsetInCU: 0x68C2, offset: 0x51DF9, size: 0x8, addend: 0x0, symName: '__ZNSt3__116__non_trivial_ifILb1ENS_9allocatorINS_10__function6__funcIZ4mainE3$_0NS1_IS4_EEFvR6CameraEEEEEEC2B7v160006Ev', symObjAddr: 0x59C, symBinAddr: 0x10001ABA8, symSize: 0x14 }
  - { offsetInCU: 0x68EC, offset: 0x51E23, size: 0x8, addend: 0x0, symName: '__ZNSt3__19allocatorIZ4mainE3$_0EC2B7v160006INS_10__function6__funcIS1_S2_FvR6CameraEEEEERKNS0_IT_EE', symObjAddr: 0x5B0, symBinAddr: 0x10001ABBC, symSize: 0x30 }
  - { offsetInCU: 0x6929, offset: 0x51E60, size: 0x8, addend: 0x0, symName: '__ZNSt3__110__function6__funcIZ4mainE3$_0NS_9allocatorIS2_EEFvR6CameraEEC2B7v160006EOS2_OS4_', symObjAddr: 0x5E0, symBinAddr: 0x10001ABEC, symSize: 0x88 }
  - { offsetInCU: 0x6971, offset: 0x51EA8, size: 0x8, addend: 0x0, symName: __ZNSt3__110__function6__baseIFvR6CameraEEC2B7v160006Ev, symObjAddr: 0x668, symBinAddr: 0x10001AC74, symSize: 0x24 }
  - { offsetInCU: 0x699B, offset: 0x51ED2, size: 0x8, addend: 0x0, symName: '__ZNSt3__110__function12__alloc_funcIZ4mainE3$_0NS_9allocatorIS2_EEFvR6CameraEEC1B7v160006EOS2_OS4_', symObjAddr: 0x68C, symBinAddr: 0x10001AC98, symSize: 0x3C }
  - { offsetInCU: 0x69E1, offset: 0x51F18, size: 0x8, addend: 0x0, symName: __ZNSt3__110__function6__baseIFvR6CameraEED2Ev, symObjAddr: 0x6C8, symBinAddr: 0x10001ACD4, symSize: 0x14 }
  - { offsetInCU: 0x6A0B, offset: 0x51F42, size: 0x8, addend: 0x0, symName: '__ZNSt3__110__function6__funcIZ4mainE3$_0NS_9allocatorIS2_EEFvR6CameraEED1Ev', symObjAddr: 0x6DC, symBinAddr: 0x10001ACE8, symSize: 0x2C }
  - { offsetInCU: 0x6A38, offset: 0x51F6F, size: 0x8, addend: 0x0, symName: '__ZNSt3__110__function6__funcIZ4mainE3$_0NS_9allocatorIS2_EEFvR6CameraEED0Ev', symObjAddr: 0x708, symBinAddr: 0x10001AD14, symSize: 0x30 }
  - { offsetInCU: 0x6A65, offset: 0x51F9C, size: 0x8, addend: 0x0, symName: '__ZNKSt3__110__function6__funcIZ4mainE3$_0NS_9allocatorIS2_EEFvR6CameraEE7__cloneEv', symObjAddr: 0x738, symBinAddr: 0x10001AD44, symSize: 0xFC }
  - { offsetInCU: 0x6AB7, offset: 0x51FEE, size: 0x8, addend: 0x0, symName: '__ZNKSt3__110__function6__funcIZ4mainE3$_0NS_9allocatorIS2_EEFvR6CameraEE7__cloneEPNS0_6__baseIS7_EE', symObjAddr: 0x834, symBinAddr: 0x10001AE40, symSize: 0x58 }
  - { offsetInCU: 0x6AEE, offset: 0x52025, size: 0x8, addend: 0x0, symName: '__ZNSt3__110__function6__funcIZ4mainE3$_0NS_9allocatorIS2_EEFvR6CameraEE7destroyEv', symObjAddr: 0x88C, symBinAddr: 0x10001AE98, symSize: 0x28 }
  - { offsetInCU: 0x6B16, offset: 0x5204D, size: 0x8, addend: 0x0, symName: '__ZNSt3__110__function6__funcIZ4mainE3$_0NS_9allocatorIS2_EEFvR6CameraEE18destroy_deallocateEv', symObjAddr: 0x8B4, symBinAddr: 0x10001AEC0, symSize: 0x58 }
  - { offsetInCU: 0x6B59, offset: 0x52090, size: 0x8, addend: 0x0, symName: '__ZNSt3__110__function6__funcIZ4mainE3$_0NS_9allocatorIS2_EEFvR6CameraEEclES6_', symObjAddr: 0x90C, symBinAddr: 0x10001AF18, symSize: 0x30 }
  - { offsetInCU: 0x6B90, offset: 0x520C7, size: 0x8, addend: 0x0, symName: '__ZNKSt3__110__function6__funcIZ4mainE3$_0NS_9allocatorIS2_EEFvR6CameraEE6targetERKSt9type_info', symObjAddr: 0x93C, symBinAddr: 0x10001AF48, symSize: 0x60 }
  - { offsetInCU: 0x6BC7, offset: 0x520FE, size: 0x8, addend: 0x0, symName: '__ZNKSt3__110__function6__funcIZ4mainE3$_0NS_9allocatorIS2_EEFvR6CameraEE11target_typeEv', symObjAddr: 0x99C, symBinAddr: 0x10001AFA8, symSize: 0x18 }
  - { offsetInCU: 0x6BEF, offset: 0x52126, size: 0x8, addend: 0x0, symName: __ZNSt3__110__function6__baseIFvR6CameraEED1Ev, symObjAddr: 0x9B4, symBinAddr: 0x10001AFC0, symSize: 0x14 }
  - { offsetInCU: 0x6C19, offset: 0x52150, size: 0x8, addend: 0x0, symName: __ZNSt3__110__function6__baseIFvR6CameraEED0Ev, symObjAddr: 0x9C8, symBinAddr: 0x10001AFD4, symSize: 0xC }
  - { offsetInCU: 0x6C43, offset: 0x5217A, size: 0x8, addend: 0x0, symName: '__ZNSt3__110__function12__alloc_funcIZ4mainE3$_0NS_9allocatorIS2_EEFvR6CameraEEC2B7v160006EOS2_OS4_', symObjAddr: 0x9D4, symBinAddr: 0x10001AFE0, symSize: 0x5C }
  - { offsetInCU: 0x6C89, offset: 0x521C0, size: 0x8, addend: 0x0, symName: '__ZNSt3__117__compressed_pairIZ4mainE3$_0NS_9allocatorIS1_EEEC1B7v160006IJOS1_EJOS3_EEENS_21piecewise_construct_tENS_5tupleIJDpT_EEENS9_IJDpT0_EEE', symObjAddr: 0xA88, symBinAddr: 0x10001B094, symSize: 0x3C }
  - { offsetInCU: 0x6CF3, offset: 0x5222A, size: 0x8, addend: 0x0, symName: '__ZNSt3__15tupleIJOZ4mainE3$_0EEC1B7v160006IJS1_ELi0EEEDpOT_', symObjAddr: 0xAC4, symBinAddr: 0x10001B0D0, symSize: 0x34 }
  - { offsetInCU: 0x6D3D, offset: 0x52274, size: 0x8, addend: 0x0, symName: '__ZNSt3__15tupleIJOZ4mainE3$_0EEC2B7v160006IJS1_ELi0EEEDpOT_', symObjAddr: 0xAF8, symBinAddr: 0x10001B104, symSize: 0x34 }
  - { offsetInCU: 0x6D87, offset: 0x522BE, size: 0x8, addend: 0x0, symName: '__ZNSt3__112__tuple_implINS_15__tuple_indicesIJLm0EEEEJOZ4mainE3$_0EEC1B7v160006IJLm0EEJS4_EJEJEJS3_EEENS1_IJXspT_EEEENS_13__tuple_typesIJDpT0_EEENS1_IJXspT1_EEEENS8_IJDpT2_EEEDpOT3_', symObjAddr: 0xB2C, symBinAddr: 0x10001B138, symSize: 0x34 }
  - { offsetInCU: 0x6E18, offset: 0x5234F, size: 0x8, addend: 0x0, symName: '__ZNSt3__112__tuple_implINS_15__tuple_indicesIJLm0EEEEJOZ4mainE3$_0EEC2B7v160006IJLm0EEJS4_EJEJEJS3_EEENS1_IJXspT_EEEENS_13__tuple_typesIJDpT0_EEENS1_IJXspT1_EEEENS8_IJDpT2_EEEDpOT3_', symObjAddr: 0xB60, symBinAddr: 0x10001B16C, symSize: 0x34 }
  - { offsetInCU: 0x6EA9, offset: 0x523E0, size: 0x8, addend: 0x0, symName: '__ZNSt3__112__tuple_leafILm0EOZ4mainE3$_0Lb0EEC2B7v160006IS1_vEEOT_', symObjAddr: 0xB94, symBinAddr: 0x10001B1A0, symSize: 0x20 }
  - { offsetInCU: 0x6EEC, offset: 0x52423, size: 0x8, addend: 0x0, symName: '__ZNSt3__15tupleIJONS_9allocatorIZ4mainE3$_0EEEEC1B7v160006IJS3_ELi0EEEDpOT_', symObjAddr: 0xBB4, symBinAddr: 0x10001B1C0, symSize: 0x34 }
  - { offsetInCU: 0x6F36, offset: 0x5246D, size: 0x8, addend: 0x0, symName: '__ZNSt3__15tupleIJONS_9allocatorIZ4mainE3$_0EEEEC2B7v160006IJS3_ELi0EEEDpOT_', symObjAddr: 0xBE8, symBinAddr: 0x10001B1F4, symSize: 0x34 }
  - { offsetInCU: 0x6F80, offset: 0x524B7, size: 0x8, addend: 0x0, symName: '__ZNSt3__112__tuple_implINS_15__tuple_indicesIJLm0EEEEJONS_9allocatorIZ4mainE3$_0EEEEC1B7v160006IJLm0EEJS6_EJEJEJS5_EEENS1_IJXspT_EEEENS_13__tuple_typesIJDpT0_EEENS1_IJXspT1_EEEENSA_IJDpT2_EEEDpOT3_', symObjAddr: 0xC1C, symBinAddr: 0x10001B228, symSize: 0x34 }
  - { offsetInCU: 0x7011, offset: 0x52548, size: 0x8, addend: 0x0, symName: '__ZNSt3__112__tuple_implINS_15__tuple_indicesIJLm0EEEEJONS_9allocatorIZ4mainE3$_0EEEEC2B7v160006IJLm0EEJS6_EJEJEJS5_EEENS1_IJXspT_EEEENS_13__tuple_typesIJDpT0_EEENS1_IJXspT1_EEEENSA_IJDpT2_EEEDpOT3_', symObjAddr: 0xC50, symBinAddr: 0x10001B25C, symSize: 0x34 }
  - { offsetInCU: 0x70A2, offset: 0x525D9, size: 0x8, addend: 0x0, symName: '__ZNSt3__112__tuple_leafILm0EONS_9allocatorIZ4mainE3$_0EELb0EEC2B7v160006IS3_vEEOT_', symObjAddr: 0xC84, symBinAddr: 0x10001B290, symSize: 0x20 }
  - { offsetInCU: 0x70E5, offset: 0x5261C, size: 0x8, addend: 0x0, symName: '__ZNSt3__117__compressed_pairIZ4mainE3$_0NS_9allocatorIS1_EEEC2B7v160006IJOS1_EJOS3_EEENS_21piecewise_construct_tENS_5tupleIJDpT_EEENS9_IJDpT0_EEE', symObjAddr: 0xCA4, symBinAddr: 0x10001B2B0, symSize: 0x54 }
  - { offsetInCU: 0x714F, offset: 0x52686, size: 0x8, addend: 0x0, symName: '__ZNSt3__122__compressed_pair_elemIZ4mainE3$_0Li0ELb0EEC2B7v160006IJOS1_EJLm0EEEENS_21piecewise_construct_tENS_5tupleIJDpT_EEENS_15__tuple_indicesIJXspT0_EEEE', symObjAddr: 0xCF8, symBinAddr: 0x10001B304, symSize: 0x44 }
  - { offsetInCU: 0x71B2, offset: 0x526E9, size: 0x8, addend: 0x0, symName: '__ZNSt3__122__compressed_pair_elemINS_9allocatorIZ4mainE3$_0EELi1ELb1EEC2B7v160006IJOS3_EJLm0EEEENS_21piecewise_construct_tENS_5tupleIJDpT_EEENS_15__tuple_indicesIJXspT0_EEEE', symObjAddr: 0xD3C, symBinAddr: 0x10001B348, symSize: 0x38 }
  - { offsetInCU: 0x7215, offset: 0x5274C, size: 0x8, addend: 0x0, symName: '__ZNSt3__112__tuple_leafILm0EOZ4mainE3$_0Lb0EE3getB7v160006Ev', symObjAddr: 0xD98, symBinAddr: 0x10001B3A4, symSize: 0x18 }
  - { offsetInCU: 0x723B, offset: 0x52772, size: 0x8, addend: 0x0, symName: '__ZNSt3__112__tuple_leafILm0EONS_9allocatorIZ4mainE3$_0EELb0EE3getB7v160006Ev', symObjAddr: 0xDD4, symBinAddr: 0x10001B3E0, symSize: 0x18 }
  - { offsetInCU: 0x7261, offset: 0x52798, size: 0x8, addend: 0x0, symName: '__ZNSt3__110__function6__funcIZ4mainE3$_0NS_9allocatorIS2_EEFvR6CameraEED2Ev', symObjAddr: 0xDEC, symBinAddr: 0x10001B3F8, symSize: 0x2C }
  - { offsetInCU: 0x728E, offset: 0x527C5, size: 0x8, addend: 0x0, symName: '__ZNKSt3__110__function12__alloc_funcIZ4mainE3$_0NS_9allocatorIS2_EEFvR6CameraEE15__get_allocatorB7v160006Ev', symObjAddr: 0xE18, symBinAddr: 0x10001B424, symSize: 0x24 }
  - { offsetInCU: 0x72B4, offset: 0x527EB, size: 0x8, addend: 0x0, symName: '__ZNSt3__19allocatorINS_10__function6__funcIZ4mainE3$_0NS0_IS3_EEFvR6CameraEEEE8allocateB7v160006Em', symObjAddr: 0xE3C, symBinAddr: 0x10001B448, symSize: 0x5C }
  - { offsetInCU: 0x72F7, offset: 0x5282E, size: 0x8, addend: 0x0, symName: '__ZNSt3__122__allocator_destructorINS_9allocatorINS_10__function6__funcIZ4mainE3$_0NS1_IS4_EEFvR6CameraEEEEEEC1B7v160006ERSA_m', symObjAddr: 0xE98, symBinAddr: 0x10001B4A4, symSize: 0x3C }
  - { offsetInCU: 0x73CB, offset: 0x52902, size: 0x8, addend: 0x0, symName: '__ZNSt3__110unique_ptrINS_10__function6__funcIZ4mainE3$_0NS_9allocatorIS3_EEFvR6CameraEEENS_22__allocator_destructorINS4_IS9_EEEEEC1B7v160006ILb1EvEEPS9_NS_16__dependent_typeINS_27__unique_ptr_deleter_sfinaeISC_EEXT_EE20__good_rval_ref_typeE', symObjAddr: 0xED4, symBinAddr: 0x10001B4E0, symSize: 0x3C }
  - { offsetInCU: 0x741C, offset: 0x52953, size: 0x8, addend: 0x0, symName: '__ZNKSt3__110unique_ptrINS_10__function6__funcIZ4mainE3$_0NS_9allocatorIS3_EEFvR6CameraEEENS_22__allocator_destructorINS4_IS9_EEEEE3getB7v160006Ev', symObjAddr: 0xF10, symBinAddr: 0x10001B51C, symSize: 0x28 }
  - { offsetInCU: 0x7442, offset: 0x52979, size: 0x8, addend: 0x0, symName: '__ZNKSt3__110__function12__alloc_funcIZ4mainE3$_0NS_9allocatorIS2_EEFvR6CameraEE8__targetB7v160006Ev', symObjAddr: 0xF38, symBinAddr: 0x10001B544, symSize: 0x24 }
  - { offsetInCU: 0x7468, offset: 0x5299F, size: 0x8, addend: 0x0, symName: '__ZNSt3__110__function6__funcIZ4mainE3$_0NS_9allocatorIS2_EEFvR6CameraEEC1B7v160006ERKS2_OS4_', symObjAddr: 0xF5C, symBinAddr: 0x10001B568, symSize: 0x3C }
  - { offsetInCU: 0x74B0, offset: 0x529E7, size: 0x8, addend: 0x0, symName: '__ZNSt3__110unique_ptrINS_10__function6__funcIZ4mainE3$_0NS_9allocatorIS3_EEFvR6CameraEEENS_22__allocator_destructorINS4_IS9_EEEEE7releaseB7v160006Ev', symObjAddr: 0xF98, symBinAddr: 0x10001B5A4, symSize: 0x44 }
  - { offsetInCU: 0x74E5, offset: 0x52A1C, size: 0x8, addend: 0x0, symName: '__ZNSt3__110unique_ptrINS_10__function6__funcIZ4mainE3$_0NS_9allocatorIS3_EEFvR6CameraEEENS_22__allocator_destructorINS4_IS9_EEEEED1B7v160006Ev', symObjAddr: 0xFDC, symBinAddr: 0x10001B5E8, symSize: 0x2C }
  - { offsetInCU: 0x750F, offset: 0x52A46, size: 0x8, addend: 0x0, symName: '__ZNKSt3__117__compressed_pairIZ4mainE3$_0NS_9allocatorIS1_EEE6secondB7v160006Ev', symObjAddr: 0x1008, symBinAddr: 0x10001B614, symSize: 0x24 }
  - { offsetInCU: 0x7535, offset: 0x52A6C, size: 0x8, addend: 0x0, symName: '__ZNKSt3__122__compressed_pair_elemINS_9allocatorIZ4mainE3$_0EELi1ELb1EE5__getB7v160006Ev', symObjAddr: 0x102C, symBinAddr: 0x10001B638, symSize: 0x14 }
  - { offsetInCU: 0x7565, offset: 0x52A9C, size: 0x8, addend: 0x0, symName: '__ZNSt3__116allocator_traitsINS_9allocatorINS_10__function6__funcIZ4mainE3$_0NS1_IS4_EEFvR6CameraEEEEEE8max_sizeB7v160006ISA_vEEmRKSA_', symObjAddr: 0x1040, symBinAddr: 0x10001B64C, symSize: 0x24 }
  - { offsetInCU: 0x7593, offset: 0x52ACA, size: 0x8, addend: 0x0, symName: '__ZNKSt3__19allocatorINS_10__function6__funcIZ4mainE3$_0NS0_IS3_EEFvR6CameraEEEE8max_sizeB7v160006Ev', symObjAddr: 0x10F8, symBinAddr: 0x10001B670, symSize: 0x18 }
  - { offsetInCU: 0x75B9, offset: 0x52AF0, size: 0x8, addend: 0x0, symName: '__ZNSt3__122__allocator_destructorINS_9allocatorINS_10__function6__funcIZ4mainE3$_0NS1_IS4_EEFvR6CameraEEEEEEC2B7v160006ERSA_m', symObjAddr: 0x1180, symBinAddr: 0x10001B688, symSize: 0x2C }
  - { offsetInCU: 0x75FF, offset: 0x52B36, size: 0x8, addend: 0x0, symName: '__ZNSt3__110unique_ptrINS_10__function6__funcIZ4mainE3$_0NS_9allocatorIS3_EEFvR6CameraEEENS_22__allocator_destructorINS4_IS9_EEEEEC2B7v160006ILb1EvEEPS9_NS_16__dependent_typeINS_27__unique_ptr_deleter_sfinaeISC_EEXT_EE20__good_rval_ref_typeE', symObjAddr: 0x11AC, symBinAddr: 0x10001B6B4, symSize: 0x48 }
  - { offsetInCU: 0x7650, offset: 0x52B87, size: 0x8, addend: 0x0, symName: '__ZNSt3__117__compressed_pairIPNS_10__function6__funcIZ4mainE3$_0NS_9allocatorIS3_EEFvR6CameraEEENS_22__allocator_destructorINS4_IS9_EEEEEC1B7v160006IRSA_SD_EEOT_OT0_', symObjAddr: 0x11F4, symBinAddr: 0x10001B6FC, symSize: 0x3C }
  - { offsetInCU: 0x76A8, offset: 0x52BDF, size: 0x8, addend: 0x0, symName: '__ZNSt3__117__compressed_pairIPNS_10__function6__funcIZ4mainE3$_0NS_9allocatorIS3_EEFvR6CameraEEENS_22__allocator_destructorINS4_IS9_EEEEEC2B7v160006IRSA_SD_EEOT_OT0_', symObjAddr: 0x123C, symBinAddr: 0x10001B738, symSize: 0x48 }
  - { offsetInCU: 0x7700, offset: 0x52C37, size: 0x8, addend: 0x0, symName: '__ZNSt3__122__compressed_pair_elemIPNS_10__function6__funcIZ4mainE3$_0NS_9allocatorIS3_EEFvR6CameraEEELi0ELb0EEC2B7v160006IRSA_vEEOT_', symObjAddr: 0x1284, symBinAddr: 0x10001B780, symSize: 0x24 }
  - { offsetInCU: 0x7742, offset: 0x52C79, size: 0x8, addend: 0x0, symName: '__ZNSt3__122__compressed_pair_elemINS_22__allocator_destructorINS_9allocatorINS_10__function6__funcIZ4mainE3$_0NS2_IS5_EEFvR6CameraEEEEEEELi1ELb0EEC2B7v160006ISC_vEEOT_', symObjAddr: 0x12A8, symBinAddr: 0x10001B7A4, symSize: 0x24 }
  - { offsetInCU: 0x7784, offset: 0x52CBB, size: 0x8, addend: 0x0, symName: '__ZNKSt3__117__compressed_pairIPNS_10__function6__funcIZ4mainE3$_0NS_9allocatorIS3_EEFvR6CameraEEENS_22__allocator_destructorINS4_IS9_EEEEE5firstB7v160006Ev', symObjAddr: 0x12CC, symBinAddr: 0x10001B7C8, symSize: 0x24 }
  - { offsetInCU: 0x77AA, offset: 0x52CE1, size: 0x8, addend: 0x0, symName: '__ZNKSt3__122__compressed_pair_elemIPNS_10__function6__funcIZ4mainE3$_0NS_9allocatorIS3_EEFvR6CameraEEELi0ELb0EE5__getB7v160006Ev', symObjAddr: 0x12F0, symBinAddr: 0x10001B7EC, symSize: 0x14 }
  - { offsetInCU: 0x77D0, offset: 0x52D07, size: 0x8, addend: 0x0, symName: '__ZNKSt3__117__compressed_pairIZ4mainE3$_0NS_9allocatorIS1_EEE5firstB7v160006Ev', symObjAddr: 0x1304, symBinAddr: 0x10001B800, symSize: 0x24 }
  - { offsetInCU: 0x77F6, offset: 0x52D2D, size: 0x8, addend: 0x0, symName: '__ZNKSt3__122__compressed_pair_elemIZ4mainE3$_0Li0ELb0EE5__getB7v160006Ev', symObjAddr: 0x1328, symBinAddr: 0x10001B824, symSize: 0x14 }
  - { offsetInCU: 0x781C, offset: 0x52D53, size: 0x8, addend: 0x0, symName: '__ZNSt3__110__function6__funcIZ4mainE3$_0NS_9allocatorIS2_EEFvR6CameraEEC2B7v160006ERKS2_OS4_', symObjAddr: 0x133C, symBinAddr: 0x10001B838, symSize: 0x88 }
  - { offsetInCU: 0x7864, offset: 0x52D9B, size: 0x8, addend: 0x0, symName: '__ZNSt3__110__function12__alloc_funcIZ4mainE3$_0NS_9allocatorIS2_EEFvR6CameraEEC1B7v160006ERKS2_OS4_', symObjAddr: 0x13C4, symBinAddr: 0x10001B8C0, symSize: 0x3C }
  - { offsetInCU: 0x78AA, offset: 0x52DE1, size: 0x8, addend: 0x0, symName: '__ZNSt3__110__function12__alloc_funcIZ4mainE3$_0NS_9allocatorIS2_EEFvR6CameraEEC2B7v160006ERKS2_OS4_', symObjAddr: 0x1400, symBinAddr: 0x10001B8FC, symSize: 0x5C }
  - { offsetInCU: 0x78F0, offset: 0x52E27, size: 0x8, addend: 0x0, symName: '__ZNSt3__117__compressed_pairIZ4mainE3$_0NS_9allocatorIS1_EEEC1B7v160006IJRKS1_EJOS3_EEENS_21piecewise_construct_tENS_5tupleIJDpT_EEENSA_IJDpT0_EEE', symObjAddr: 0x1488, symBinAddr: 0x10001B984, symSize: 0x3C }
  - { offsetInCU: 0x795A, offset: 0x52E91, size: 0x8, addend: 0x0, symName: '__ZNSt3__15tupleIJRKZ4mainE3$_0EEC1B7v160006INS_4_AndELi0EEES3_', symObjAddr: 0x14C4, symBinAddr: 0x10001B9C0, symSize: 0x34 }
  - { offsetInCU: 0x79A2, offset: 0x52ED9, size: 0x8, addend: 0x0, symName: '__ZNSt3__15tupleIJRKZ4mainE3$_0EEC2B7v160006INS_4_AndELi0EEES3_', symObjAddr: 0x14F8, symBinAddr: 0x10001B9F4, symSize: 0x34 }
  - { offsetInCU: 0x79EA, offset: 0x52F21, size: 0x8, addend: 0x0, symName: '__ZNSt3__112__tuple_implINS_15__tuple_indicesIJLm0EEEEJRKZ4mainE3$_0EEC1B7v160006IJLm0EEJS5_EJEJEJS5_EEENS1_IJXspT_EEEENS_13__tuple_typesIJDpT0_EEENS1_IJXspT1_EEEENS9_IJDpT2_EEEDpOT3_', symObjAddr: 0x152C, symBinAddr: 0x10001BA28, symSize: 0x34 }
  - { offsetInCU: 0x7A7B, offset: 0x52FB2, size: 0x8, addend: 0x0, symName: '__ZNSt3__112__tuple_implINS_15__tuple_indicesIJLm0EEEEJRKZ4mainE3$_0EEC2B7v160006IJLm0EEJS5_EJEJEJS5_EEENS1_IJXspT_EEEENS_13__tuple_typesIJDpT0_EEENS1_IJXspT1_EEEENS9_IJDpT2_EEEDpOT3_', symObjAddr: 0x1560, symBinAddr: 0x10001BA5C, symSize: 0x34 }
  - { offsetInCU: 0x7B0C, offset: 0x53043, size: 0x8, addend: 0x0, symName: '__ZNSt3__112__tuple_leafILm0ERKZ4mainE3$_0Lb0EEC2B7v160006IS3_vEEOT_', symObjAddr: 0x1594, symBinAddr: 0x10001BA90, symSize: 0x20 }
  - { offsetInCU: 0x7B4F, offset: 0x53086, size: 0x8, addend: 0x0, symName: '__ZNSt3__117__compressed_pairIZ4mainE3$_0NS_9allocatorIS1_EEEC2B7v160006IJRKS1_EJOS3_EEENS_21piecewise_construct_tENS_5tupleIJDpT_EEENSA_IJDpT0_EEE', symObjAddr: 0x15B4, symBinAddr: 0x10001BAB0, symSize: 0x54 }
  - { offsetInCU: 0x7BB9, offset: 0x530F0, size: 0x8, addend: 0x0, symName: '__ZNSt3__122__compressed_pair_elemIZ4mainE3$_0Li0ELb0EEC2B7v160006IJRKS1_EJLm0EEEENS_21piecewise_construct_tENS_5tupleIJDpT_EEENS_15__tuple_indicesIJXspT0_EEEE', symObjAddr: 0x1608, symBinAddr: 0x10001BB04, symSize: 0x44 }
  - { offsetInCU: 0x7C1C, offset: 0x53153, size: 0x8, addend: 0x0, symName: '__ZNSt3__112__tuple_leafILm0ERKZ4mainE3$_0Lb0EE3getB7v160006Ev', symObjAddr: 0x1670, symBinAddr: 0x10001BB6C, symSize: 0x18 }
  - { offsetInCU: 0x7C42, offset: 0x53179, size: 0x8, addend: 0x0, symName: '__ZNSt3__117__compressed_pairIPNS_10__function6__funcIZ4mainE3$_0NS_9allocatorIS3_EEFvR6CameraEEENS_22__allocator_destructorINS4_IS9_EEEEE5firstB7v160006Ev', symObjAddr: 0x1688, symBinAddr: 0x10001BB84, symSize: 0x24 }
  - { offsetInCU: 0x7C68, offset: 0x5319F, size: 0x8, addend: 0x0, symName: '__ZNSt3__122__compressed_pair_elemIPNS_10__function6__funcIZ4mainE3$_0NS_9allocatorIS3_EEFvR6CameraEEELi0ELb0EE5__getB7v160006Ev', symObjAddr: 0x16AC, symBinAddr: 0x10001BBA8, symSize: 0x14 }
  - { offsetInCU: 0x7C8E, offset: 0x531C5, size: 0x8, addend: 0x0, symName: '__ZNSt3__110unique_ptrINS_10__function6__funcIZ4mainE3$_0NS_9allocatorIS3_EEFvR6CameraEEENS_22__allocator_destructorINS4_IS9_EEEEED2B7v160006Ev', symObjAddr: 0x16C0, symBinAddr: 0x10001BBBC, symSize: 0x30 }
  - { offsetInCU: 0x7CB8, offset: 0x531EF, size: 0x8, addend: 0x0, symName: '__ZNSt3__110unique_ptrINS_10__function6__funcIZ4mainE3$_0NS_9allocatorIS3_EEFvR6CameraEEENS_22__allocator_destructorINS4_IS9_EEEEE5resetB7v160006EPS9_', symObjAddr: 0x16F0, symBinAddr: 0x10001BBEC, symSize: 0x78 }
  - { offsetInCU: 0x7CFC, offset: 0x53233, size: 0x8, addend: 0x0, symName: '__ZNSt3__117__compressed_pairIPNS_10__function6__funcIZ4mainE3$_0NS_9allocatorIS3_EEFvR6CameraEEENS_22__allocator_destructorINS4_IS9_EEEEE6secondB7v160006Ev', symObjAddr: 0x1768, symBinAddr: 0x10001BC64, symSize: 0x28 }
  - { offsetInCU: 0x7D22, offset: 0x53259, size: 0x8, addend: 0x0, symName: '__ZNSt3__122__allocator_destructorINS_9allocatorINS_10__function6__funcIZ4mainE3$_0NS1_IS4_EEFvR6CameraEEEEEEclB7v160006EPS9_', symObjAddr: 0x1790, symBinAddr: 0x10001BC8C, symSize: 0x34 }
  - { offsetInCU: 0x7D56, offset: 0x5328D, size: 0x8, addend: 0x0, symName: '__ZNSt3__122__compressed_pair_elemINS_22__allocator_destructorINS_9allocatorINS_10__function6__funcIZ4mainE3$_0NS2_IS5_EEFvR6CameraEEEEEEELi1ELb0EE5__getB7v160006Ev', symObjAddr: 0x17C4, symBinAddr: 0x10001BCC0, symSize: 0x14 }
  - { offsetInCU: 0x7D7C, offset: 0x532B3, size: 0x8, addend: 0x0, symName: '__ZNSt3__116allocator_traitsINS_9allocatorINS_10__function6__funcIZ4mainE3$_0NS1_IS4_EEFvR6CameraEEEEEE10deallocateB7v160006ERSA_PS9_m', symObjAddr: 0x17D8, symBinAddr: 0x10001BCD4, symSize: 0x34 }
  - { offsetInCU: 0x7DBE, offset: 0x532F5, size: 0x8, addend: 0x0, symName: '__ZNSt3__19allocatorINS_10__function6__funcIZ4mainE3$_0NS0_IS3_EEFvR6CameraEEEE10deallocateB7v160006EPS8_m', symObjAddr: 0x180C, symBinAddr: 0x10001BD08, symSize: 0x44 }
  - { offsetInCU: 0x7E00, offset: 0x53337, size: 0x8, addend: 0x0, symName: '__ZNSt3__110__function6__funcIZ4mainE3$_0NS_9allocatorIS2_EEFvR6CameraEEC1B7v160006ERKS2_RKS4_', symObjAddr: 0x1958, symBinAddr: 0x10001BD4C, symSize: 0x3C }
  - { offsetInCU: 0x7E48, offset: 0x5337F, size: 0x8, addend: 0x0, symName: '__ZNSt3__110__function6__funcIZ4mainE3$_0NS_9allocatorIS2_EEFvR6CameraEEC2B7v160006ERKS2_RKS4_', symObjAddr: 0x1994, symBinAddr: 0x10001BD88, symSize: 0x88 }
  - { offsetInCU: 0x7E90, offset: 0x533C7, size: 0x8, addend: 0x0, symName: '__ZNSt3__110__function12__alloc_funcIZ4mainE3$_0NS_9allocatorIS2_EEFvR6CameraEEC1B7v160006ERKS2_RKS4_', symObjAddr: 0x1A1C, symBinAddr: 0x10001BE10, symSize: 0x3C }
  - { offsetInCU: 0x7ED6, offset: 0x5340D, size: 0x8, addend: 0x0, symName: '__ZNSt3__110__function12__alloc_funcIZ4mainE3$_0NS_9allocatorIS2_EEFvR6CameraEEC2B7v160006ERKS2_RKS4_', symObjAddr: 0x1A58, symBinAddr: 0x10001BE4C, symSize: 0x5C }
  - { offsetInCU: 0x7F1C, offset: 0x53453, size: 0x8, addend: 0x0, symName: '__ZNSt3__117__compressed_pairIZ4mainE3$_0NS_9allocatorIS1_EEEC1B7v160006IJRKS1_EJRKS3_EEENS_21piecewise_construct_tENS_5tupleIJDpT_EEENSB_IJDpT0_EEE', symObjAddr: 0x1AE0, symBinAddr: 0x10001BED4, symSize: 0x3C }
  - { offsetInCU: 0x7F86, offset: 0x534BD, size: 0x8, addend: 0x0, symName: '__ZNSt3__15tupleIJRKNS_9allocatorIZ4mainE3$_0EEEEC1B7v160006INS_4_AndELi0EEES5_', symObjAddr: 0x1B1C, symBinAddr: 0x10001BF10, symSize: 0x34 }
  - { offsetInCU: 0x7FCE, offset: 0x53505, size: 0x8, addend: 0x0, symName: '__ZNSt3__15tupleIJRKNS_9allocatorIZ4mainE3$_0EEEEC2B7v160006INS_4_AndELi0EEES5_', symObjAddr: 0x1B50, symBinAddr: 0x10001BF44, symSize: 0x34 }
  - { offsetInCU: 0x8016, offset: 0x5354D, size: 0x8, addend: 0x0, symName: '__ZNSt3__112__tuple_implINS_15__tuple_indicesIJLm0EEEEJRKNS_9allocatorIZ4mainE3$_0EEEEC1B7v160006IJLm0EEJS7_EJEJEJS7_EEENS1_IJXspT_EEEENS_13__tuple_typesIJDpT0_EEENS1_IJXspT1_EEEENSB_IJDpT2_EEEDpOT3_', symObjAddr: 0x1B84, symBinAddr: 0x10001BF78, symSize: 0x34 }
  - { offsetInCU: 0x80A7, offset: 0x535DE, size: 0x8, addend: 0x0, symName: '__ZNSt3__112__tuple_implINS_15__tuple_indicesIJLm0EEEEJRKNS_9allocatorIZ4mainE3$_0EEEEC2B7v160006IJLm0EEJS7_EJEJEJS7_EEENS1_IJXspT_EEEENS_13__tuple_typesIJDpT0_EEENS1_IJXspT1_EEEENSB_IJDpT2_EEEDpOT3_', symObjAddr: 0x1BB8, symBinAddr: 0x10001BFAC, symSize: 0x34 }
  - { offsetInCU: 0x8138, offset: 0x5366F, size: 0x8, addend: 0x0, symName: '__ZNSt3__112__tuple_leafILm0ERKNS_9allocatorIZ4mainE3$_0EELb0EEC2B7v160006IS5_vEEOT_', symObjAddr: 0x1BEC, symBinAddr: 0x10001BFE0, symSize: 0x20 }
  - { offsetInCU: 0x817B, offset: 0x536B2, size: 0x8, addend: 0x0, symName: '__ZNSt3__117__compressed_pairIZ4mainE3$_0NS_9allocatorIS1_EEEC2B7v160006IJRKS1_EJRKS3_EEENS_21piecewise_construct_tENS_5tupleIJDpT_EEENSB_IJDpT0_EEE', symObjAddr: 0x1C0C, symBinAddr: 0x10001C000, symSize: 0x54 }
  - { offsetInCU: 0x81E5, offset: 0x5371C, size: 0x8, addend: 0x0, symName: '__ZNSt3__122__compressed_pair_elemINS_9allocatorIZ4mainE3$_0EELi1ELb1EEC2B7v160006IJRKS3_EJLm0EEEENS_21piecewise_construct_tENS_5tupleIJDpT_EEENS_15__tuple_indicesIJXspT0_EEEE', symObjAddr: 0x1C60, symBinAddr: 0x10001C054, symSize: 0x38 }
  - { offsetInCU: 0x8248, offset: 0x5377F, size: 0x8, addend: 0x0, symName: '__ZNSt3__112__tuple_leafILm0ERKNS_9allocatorIZ4mainE3$_0EELb0EE3getB7v160006Ev', symObjAddr: 0x1CBC, symBinAddr: 0x10001C0B0, symSize: 0x18 }
  - { offsetInCU: 0x826E, offset: 0x537A5, size: 0x8, addend: 0x0, symName: '__ZNSt3__110__function12__alloc_funcIZ4mainE3$_0NS_9allocatorIS2_EEFvR6CameraEE7destroyB7v160006Ev', symObjAddr: 0x1CD4, symBinAddr: 0x10001C0C8, symSize: 0x10 }
  - { offsetInCU: 0x8294, offset: 0x537CB, size: 0x8, addend: 0x0, symName: '__ZNSt3__110__function12__alloc_funcIZ4mainE3$_0NS_9allocatorIS2_EEFvR6CameraEEclB7v160006ES6_', symObjAddr: 0x1CE4, symBinAddr: 0x10001C0D8, symSize: 0x30 }
  - { offsetInCU: 0x82C8, offset: 0x537FF, size: 0x8, addend: 0x0, symName: '__ZNSt3__128__invoke_void_return_wrapperIvLb1EE6__callIJRZ4mainE3$_0R6CameraEEEvDpOT_', symObjAddr: 0x1D14, symBinAddr: 0x10001C108, symSize: 0x2C }
  - { offsetInCU: 0x830B, offset: 0x53842, size: 0x8, addend: 0x0, symName: '__ZNSt3__117__compressed_pairIZ4mainE3$_0NS_9allocatorIS1_EEE5firstB7v160006Ev', symObjAddr: 0x1D40, symBinAddr: 0x10001C134, symSize: 0x24 }
  - { offsetInCU: 0x8336, offset: 0x5386D, size: 0x8, addend: 0x0, symName: '__ZZ4mainENK3$_0clER6Camera', symObjAddr: 0x1D90, symBinAddr: 0x10001C184, symSize: 0x124 }
  - { offsetInCU: 0x838B, offset: 0x538C2, size: 0x8, addend: 0x0, symName: '__ZNSt3__122__compressed_pair_elemIZ4mainE3$_0Li0ELb0EE5__getB7v160006Ev', symObjAddr: 0x1F84, symBinAddr: 0x10001C2A8, symSize: 0x14 }
  - { offsetInCU: 0x83E7, offset: 0x5391E, size: 0x8, addend: 0x0, symName: __ZNKSt9type_infoeqB7v160006ERKS_, symObjAddr: 0x1F98, symBinAddr: 0x10001C2BC, symSize: 0xDC }
  - { offsetInCU: 0x8485, offset: 0x539BC, size: 0x8, addend: 0x0, symName: __ZNSt27__type_info_implementations30__non_unique_arm_rtti_bit_impl21__is_type_name_uniqueB7v160006Em, symObjAddr: 0x2074, symBinAddr: 0x10001C398, symSize: 0x20 }
  - { offsetInCU: 0x84A9, offset: 0x539E0, size: 0x8, addend: 0x0, symName: __ZNSt3__18functionIFvR6CameraEED2Ev, symObjAddr: 0x2094, symBinAddr: 0x10001C3B8, symSize: 0x2C }
  - { offsetInCU: 0x84D5, offset: 0x53A0C, size: 0x8, addend: 0x0, symName: __ZNSt3__110__function12__value_funcIFvR6CameraEED1B7v160006Ev, symObjAddr: 0x20C0, symBinAddr: 0x10001C3E4, symSize: 0x2C }
  - { offsetInCU: 0x84FF, offset: 0x53A36, size: 0x8, addend: 0x0, symName: __ZNSt3__110__function12__value_funcIFvR6CameraEED2B7v160006Ev, symObjAddr: 0x20EC, symBinAddr: 0x10001C410, symSize: 0x90 }
  - { offsetInCU: 0x40, offset: 0x53C14, size: 0x8, addend: 0x0, symName: _GImGui, symObjAddr: 0x10EF20, symBinAddr: 0x100156220, symSize: 0x0 }
  - { offsetInCU: 0x11586, offset: 0x6515A, size: 0x8, addend: 0x0, symName: __Z18ImTextCharFromUtf8PjPKcS1_, symObjAddr: 0x1130, symBinAddr: 0x10001D5D0, symSize: 0x36C }
  - { offsetInCU: 0x115B1, offset: 0x65185, size: 0x8, addend: 0x0, symName: __ZZ18ImTextCharFromUtf8PjPKcS1_E7lengths, symObjAddr: 0x5B0B4, symBinAddr: 0x1001437E8, symSize: 0x0 }
  - { offsetInCU: 0x115C8, offset: 0x6519C, size: 0x8, addend: 0x0, symName: __ZZ18ImTextCharFromUtf8PjPKcS1_E5masks, symObjAddr: 0x5B0D4, symBinAddr: 0x100143808, symSize: 0x0 }
  - { offsetInCU: 0x115DF, offset: 0x651B3, size: 0x8, addend: 0x0, symName: __ZZ18ImTextCharFromUtf8PjPKcS1_E4mins, symObjAddr: 0x5B0E8, symBinAddr: 0x10014381C, symSize: 0x0 }
  - { offsetInCU: 0x115F6, offset: 0x651CA, size: 0x8, addend: 0x0, symName: __ZZ18ImTextCharFromUtf8PjPKcS1_E6shiftc, symObjAddr: 0x5B0FC, symBinAddr: 0x100143830, symSize: 0x0 }
  - { offsetInCU: 0x1160D, offset: 0x651E1, size: 0x8, addend: 0x0, symName: __ZZ18ImTextCharFromUtf8PjPKcS1_E6shifte, symObjAddr: 0x5B110, symBinAddr: 0x100143844, symSize: 0x0 }
  - { offsetInCU: 0x116A4, offset: 0x65278, size: 0x8, addend: 0x0, symName: __ZN15ImGuiTextBuffer11EmptyStringE, symObjAddr: 0x10EF28, symBinAddr: 0x100156228, symSize: 0x0 }
  - { offsetInCU: 0x116C9, offset: 0x6529D, size: 0x8, addend: 0x0, symName: __ZN5ImGui17ShowMetricsWindowEPb, symObjAddr: 0x3C448, symBinAddr: 0x1000588B0, symSize: 0x3644 }
  - { offsetInCU: 0x116F0, offset: 0x652C4, size: 0x8, addend: 0x0, symName: __ZZN5ImGui17ShowMetricsWindowEPbE3buf, symObjAddr: 0x10EF38, symBinAddr: 0x100156450, symSize: 0x0 }
  - { offsetInCU: 0x12108, offset: 0x65CDC, size: 0x8, addend: 0x0, symName: __ZN5ImGui10IsMouseKeyE8ImGuiKey, symObjAddr: 0x1638, symBinAddr: 0x10001DAD8, symSize: 0x48 }
  - { offsetInCU: 0x12136, offset: 0x65D0A, size: 0x8, addend: 0x0, symName: __ZN5ImGui15IsNamedKeyOrModE8ImGuiKey, symObjAddr: 0x1B8C, symBinAddr: 0x10001E02C, symSize: 0xB0 }
  - { offsetInCU: 0x12164, offset: 0x65D38, size: 0x8, addend: 0x0, symName: __ZN5ImGui10IsAliasKeyE8ImGuiKey, symObjAddr: 0x1C3C, symBinAddr: 0x10001E0DC, symSize: 0x48 }
  - { offsetInCU: 0x12192, offset: 0x65D66, size: 0x8, addend: 0x0, symName: __ZN5ImGui10GetKeyDataEP12ImGuiContext8ImGuiKey, symObjAddr: 0x1DA0, symBinAddr: 0x10001E240, symSize: 0xB4 }
  - { offsetInCU: 0x121DE, offset: 0x65DB2, size: 0x8, addend: 0x0, symName: __ZN5ImGui12IsGamepadKeyE8ImGuiKey, symObjAddr: 0x1E54, symBinAddr: 0x10001E2F4, symSize: 0x48 }
  - { offsetInCU: 0x1220C, offset: 0x65DE0, size: 0x8, addend: 0x0, symName: __ZN5ImGui10IsNamedKeyE8ImGuiKey, symObjAddr: 0x1FE4, symBinAddr: 0x10001E484, symSize: 0x48 }
  - { offsetInCU: 0x1223A, offset: 0x65E0E, size: 0x8, addend: 0x0, symName: __ZN5ImGui11IsLegacyKeyE8ImGuiKey, symObjAddr: 0x202C, symBinAddr: 0x10001E4CC, symSize: 0x48 }
  - { offsetInCU: 0x12268, offset: 0x65E3C, size: 0x8, addend: 0x0, symName: __ZN5ImGui8DebugLogEPKcz, symObjAddr: 0x260C, symBinAddr: 0x10001EAAC, symSize: 0x34 }
  - { offsetInCU: 0x122A3, offset: 0x65E77, size: 0x8, addend: 0x0, symName: __ZN5ImGui8MemAllocEm, symObjAddr: 0x394C, symBinAddr: 0x10001FDEC, symSize: 0x80 }
  - { offsetInCU: 0x122F5, offset: 0x65EC9, size: 0x8, addend: 0x0, symName: __ZN5ImGui7MemFreeEPv, symObjAddr: 0x3AAC, symBinAddr: 0x10001FF4C, symSize: 0x90 }
  - { offsetInCU: 0x12334, offset: 0x65F08, size: 0x8, addend: 0x0, symName: __ZN5ImGui23ColorConvertU32ToFloat4Ej, symObjAddr: 0x543C, symBinAddr: 0x1000218DC, symSize: 0xA4 }
  - { offsetInCU: 0x12371, offset: 0x65F45, size: 0x8, addend: 0x0, symName: __ZN5ImGui23ColorConvertFloat4ToU32ERK6ImVec4, symObjAddr: 0x552C, symBinAddr: 0x1000219CC, symSize: 0xC8 }
  - { offsetInCU: 0x123AE, offset: 0x65F82, size: 0x8, addend: 0x0, symName: __ZN5ImGui20ColorConvertRGBtoHSVEfffRfS0_S0_, symObjAddr: 0x5664, symBinAddr: 0x100021B04, symSize: 0x150 }
  - { offsetInCU: 0x12441, offset: 0x66015, size: 0x8, addend: 0x0, symName: __ZN5ImGui20ColorConvertHSVtoRGBEfffRfS0_S0_, symObjAddr: 0x57F0, symBinAddr: 0x100021C90, symSize: 0x21C }
  - { offsetInCU: 0x12501, offset: 0x660D5, size: 0x8, addend: 0x0, symName: __ZN5ImGui16SetNextItemWidthEf, symObjAddr: 0x6A5C, symBinAddr: 0x100022EFC, symSize: 0x38 }
  - { offsetInCU: 0x1253B, offset: 0x6610F, size: 0x8, addend: 0x0, symName: __ZN5ImGui17GetCurrentContextEv, symObjAddr: 0x7B88, symBinAddr: 0x10002401C, symSize: 0xC }
  - { offsetInCU: 0x1255A, offset: 0x6612E, size: 0x8, addend: 0x0, symName: __ZN5ImGui8GetStyleEv, symObjAddr: 0x9084, symBinAddr: 0x100025518, symSize: 0x80 }
  - { offsetInCU: 0x12579, offset: 0x6614D, size: 0x8, addend: 0x0, symName: __ZN5ImGui11GetColorU32Eif, symObjAddr: 0x9104, symBinAddr: 0x100025598, symSize: 0x68 }
  - { offsetInCU: 0x125D4, offset: 0x661A8, size: 0x8, addend: 0x0, symName: __ZN5ImGui11GetColorU32ERK6ImVec4, symObjAddr: 0x916C, symBinAddr: 0x100025600, symSize: 0x54 }
  - { offsetInCU: 0x12620, offset: 0x661F4, size: 0x8, addend: 0x0, symName: __ZN5ImGui17GetStyleColorVec4Ei, symObjAddr: 0x91C0, symBinAddr: 0x100025654, symSize: 0x30 }
  - { offsetInCU: 0x1265D, offset: 0x66231, size: 0x8, addend: 0x0, symName: __ZN5ImGui11GetColorU32Ejf, symObjAddr: 0x91F0, symBinAddr: 0x100025684, symSize: 0x9C }
  - { offsetInCU: 0x126B8, offset: 0x6628C, size: 0x8, addend: 0x0, symName: __ZN5ImGui14PushStyleColorEij, symObjAddr: 0x928C, symBinAddr: 0x100025720, symSize: 0xB4 }
  - { offsetInCU: 0x1270F, offset: 0x662E3, size: 0x8, addend: 0x0, symName: __ZN5ImGui14PushStyleColorEiRK6ImVec4, symObjAddr: 0x9404, symBinAddr: 0x100025898, symSize: 0xA0 }
  - { offsetInCU: 0x12766, offset: 0x6633A, size: 0x8, addend: 0x0, symName: __ZN5ImGui13PopStyleColorEi, symObjAddr: 0x94A4, symBinAddr: 0x100025938, symSize: 0xFC }
  - { offsetInCU: 0x127BC, offset: 0x66390, size: 0x8, addend: 0x0, symName: __ZN5ImGui8ErrorLogEPKc, symObjAddr: 0x95A0, symBinAddr: 0x100025A34, symSize: 0x330 }
  - { offsetInCU: 0x12808, offset: 0x663DC, size: 0x8, addend: 0x0, symName: __ZN5ImGui15GetStyleVarInfoEi, symObjAddr: 0x99B0, symBinAddr: 0x100025E44, symSize: 0x8C }
  - { offsetInCU: 0x12836, offset: 0x6640A, size: 0x8, addend: 0x0, symName: __ZN5ImGui12PushStyleVarEif, symObjAddr: 0x9A3C, symBinAddr: 0x100025ED0, symSize: 0x108 }
  - { offsetInCU: 0x1289C, offset: 0x66470, size: 0x8, addend: 0x0, symName: __ZN5ImGui13PushStyleVarXEif, symObjAddr: 0x9C40, symBinAddr: 0x1000260D4, symSize: 0x114 }
  - { offsetInCU: 0x12902, offset: 0x664D6, size: 0x8, addend: 0x0, symName: __ZN5ImGui13PushStyleVarYEif, symObjAddr: 0x9D98, symBinAddr: 0x10002622C, symSize: 0x114 }
  - { offsetInCU: 0x12968, offset: 0x6653C, size: 0x8, addend: 0x0, symName: __ZN5ImGui12PushStyleVarEiRK6ImVec2, symObjAddr: 0x9EAC, symBinAddr: 0x100026340, symSize: 0x118 }
  - { offsetInCU: 0x129CE, offset: 0x665A2, size: 0x8, addend: 0x0, symName: __ZN5ImGui11PopStyleVarEi, symObjAddr: 0x9FC4, symBinAddr: 0x100026458, symSize: 0x1AC }
  - { offsetInCU: 0x12A42, offset: 0x66616, size: 0x8, addend: 0x0, symName: __ZN5ImGui17GetStyleColorNameEi, symObjAddr: 0xA250, symBinAddr: 0x1000266E4, symSize: 0x3F4 }
  - { offsetInCU: 0x12A70, offset: 0x66644, size: 0x8, addend: 0x0, symName: __ZN5ImGui19FindRenderedTextEndEPKcS1_, symObjAddr: 0xA724, symBinAddr: 0x100026BB8, symSize: 0xE4 }
  - { offsetInCU: 0x12ABC, offset: 0x66690, size: 0x8, addend: 0x0, symName: __ZN5ImGui10RenderTextE6ImVec2PKcS2_b, symObjAddr: 0xA808, symBinAddr: 0x100026C9C, symSize: 0x14C }
  - { offsetInCU: 0x12B40, offset: 0x66714, size: 0x8, addend: 0x0, symName: __ZN5ImGui15LogRenderedTextEPK6ImVec2PKcS4_, symObjAddr: 0xA954, symBinAddr: 0x100026DE8, symSize: 0x38C }
  - { offsetInCU: 0x12C5E, offset: 0x66832, size: 0x8, addend: 0x0, symName: __ZN5ImGui17RenderTextWrappedE6ImVec2PKcS2_f, symObjAddr: 0xACE0, symBinAddr: 0x100027174, symSize: 0x118 }
  - { offsetInCU: 0x12CD3, offset: 0x668A7, size: 0x8, addend: 0x0, symName: __ZN5ImGui19RenderTextClippedExEP10ImDrawListRK6ImVec2S4_PKcS6_PS3_S4_PK6ImRect, symObjAddr: 0xADF8, symBinAddr: 0x10002728C, symSize: 0x330 }
  - { offsetInCU: 0x12DD3, offset: 0x669A7, size: 0x8, addend: 0x0, symName: __ZN5ImGui12CalcTextSizeEPKcS1_bf, symObjAddr: 0xB128, symBinAddr: 0x1000275BC, symSize: 0x104 }
  - { offsetInCU: 0x12E79, offset: 0x66A4D, size: 0x8, addend: 0x0, symName: __ZN5ImGui17RenderTextClippedERK6ImVec2S2_PKcS4_PS1_S2_PK6ImRect, symObjAddr: 0xB274, symBinAddr: 0x100027708, symSize: 0xD8 }
  - { offsetInCU: 0x12F39, offset: 0x66B0D, size: 0x8, addend: 0x0, symName: __ZN5ImGui18RenderTextEllipsisEP10ImDrawListRK6ImVec2S4_ffPKcS6_PS3_, symObjAddr: 0xB34C, symBinAddr: 0x1000277E0, symSize: 0x4B0 }
  - { offsetInCU: 0x13099, offset: 0x66C6D, size: 0x8, addend: 0x0, symName: __ZN5ImGui11RenderFrameE6ImVec2S0_jbf, symObjAddr: 0xB7FC, symBinAddr: 0x100027C90, symSize: 0x194 }
  - { offsetInCU: 0x1312C, offset: 0x66D00, size: 0x8, addend: 0x0, symName: __ZN5ImGui17RenderFrameBorderE6ImVec2S0_f, symObjAddr: 0xB990, symBinAddr: 0x100027E24, symSize: 0x154 }
  - { offsetInCU: 0x131A1, offset: 0x66D75, size: 0x8, addend: 0x0, symName: __ZN5ImGui15RenderNavCursorERK6ImRectji, symObjAddr: 0xBAE4, symBinAddr: 0x100027F78, symSize: 0x26C }
  - { offsetInCU: 0x13263, offset: 0x66E37, size: 0x8, addend: 0x0, symName: __ZN5ImGui17RenderMouseCursorE6ImVec2fijjj, symObjAddr: 0xBED8, symBinAddr: 0x10002836C, symSize: 0x5DC }
  - { offsetInCU: 0x133FE, offset: 0x66FD2, size: 0x8, addend: 0x0, symName: __ZN5ImGui21GetForegroundDrawListEP13ImGuiViewport, symObjAddr: 0xC638, symBinAddr: 0x100028ACC, symSize: 0x30 }
  - { offsetInCU: 0x1342C, offset: 0x67000, size: 0x8, addend: 0x0, symName: __ZN5ImGui17SetCurrentContextEP12ImGuiContext, symObjAddr: 0xC6B8, symBinAddr: 0x100028B4C, symSize: 0x1C }
  - { offsetInCU: 0x13457, offset: 0x6702B, size: 0x8, addend: 0x0, symName: __ZN5ImGui21SetAllocatorFunctionsEPFPvmS0_EPFvS0_S0_ES0_, symObjAddr: 0xC6D4, symBinAddr: 0x100028B68, symSize: 0x3C }
  - { offsetInCU: 0x134A0, offset: 0x67074, size: 0x8, addend: 0x0, symName: __ZN5ImGui21GetAllocatorFunctionsEPPFPvmS0_EPPFvS0_S0_EPS0_, symObjAddr: 0xC710, symBinAddr: 0x100028BA4, symSize: 0x48 }
  - { offsetInCU: 0x134E9, offset: 0x670BD, size: 0x8, addend: 0x0, symName: __ZN5ImGui13CreateContextEP11ImFontAtlas, symObjAddr: 0xC758, symBinAddr: 0x100028BEC, symSize: 0xB0 }
  - { offsetInCU: 0x13535, offset: 0x67109, size: 0x8, addend: 0x0, symName: __ZN5ImGui10InitializeEv, symObjAddr: 0xC868, symBinAddr: 0x100028CFC, symSize: 0x41C }
  - { offsetInCU: 0x135A2, offset: 0x67176, size: 0x8, addend: 0x0, symName: __ZN5ImGui14DestroyContextEP12ImGuiContext, symObjAddr: 0xCC84, symBinAddr: 0x100029118, symSize: 0x90 }
  - { offsetInCU: 0x135DB, offset: 0x671AF, size: 0x8, addend: 0x0, symName: __ZN5ImGui8ShutdownEv, symObjAddr: 0xCD14, symBinAddr: 0x1000291A8, symSize: 0x48C }
  - { offsetInCU: 0x13605, offset: 0x671D9, size: 0x8, addend: 0x0, symName: __ZN5ImGui18AddSettingsHandlerEPK20ImGuiSettingsHandler, symObjAddr: 0xFCE4, symBinAddr: 0x10002C178, symSize: 0x7C }
  - { offsetInCU: 0x1363E, offset: 0x67212, size: 0x8, addend: 0x0, symName: __ZN5ImGui23LocalizeRegisterEntriesEPK13ImGuiLocEntryi, symObjAddr: 0xFD60, symBinAddr: 0x10002C1F4, symSize: 0x84 }
  - { offsetInCU: 0x136A4, offset: 0x67278, size: 0x8, addend: 0x0, symName: __ZN5ImGui21SaveIniSettingsToDiskEPKc, symObjAddr: 0x10304, symBinAddr: 0x10002C798, symSize: 0xA8 }
  - { offsetInCU: 0x1370A, offset: 0x672DE, size: 0x8, addend: 0x0, symName: __ZN5ImGui16CallContextHooksEP12ImGuiContext20ImGuiContextHookType, symObjAddr: 0x103AC, symBinAddr: 0x10002C840, symSize: 0xBC }
  - { offsetInCU: 0x137A4, offset: 0x67378, size: 0x8, addend: 0x0, symName: __ZN5ImGui14AddContextHookEP12ImGuiContextPK16ImGuiContextHook, symObjAddr: 0x10F00, symBinAddr: 0x10002D394, symSize: 0xFC }
  - { offsetInCU: 0x137F0, offset: 0x673C4, size: 0x8, addend: 0x0, symName: __ZN5ImGui17RemoveContextHookEP12ImGuiContextj, symObjAddr: 0x11104, symBinAddr: 0x10002D598, symSize: 0xEC }
  - { offsetInCU: 0x1388A, offset: 0x6745E, size: 0x8, addend: 0x0, symName: __ZN5ImGui29GcCompactTransientMiscBuffersEv, symObjAddr: 0x11B28, symBinAddr: 0x10002DFBC, symSize: 0x60 }
  - { offsetInCU: 0x138B4, offset: 0x67488, size: 0x8, addend: 0x0, symName: __ZN5ImGui31GcCompactTransientWindowBuffersEP11ImGuiWindow, symObjAddr: 0x11C38, symBinAddr: 0x10002E0CC, symSize: 0x8C }
  - { offsetInCU: 0x138DE, offset: 0x674B2, size: 0x8, addend: 0x0, symName: __ZN5ImGui29GcAwakeTransientWindowBuffersEP11ImGuiWindow, symObjAddr: 0x11D1C, symBinAddr: 0x10002E1B0, symSize: 0x64 }
  - { offsetInCU: 0x13908, offset: 0x674DC, size: 0x8, addend: 0x0, symName: __ZN5ImGui11SetActiveIDEjP11ImGuiWindow, symObjAddr: 0x11EE0, symBinAddr: 0x10002E374, symSize: 0x46C }
  - { offsetInCU: 0x1396D, offset: 0x67541, size: 0x8, addend: 0x0, symName: __ZN5ImGui13ClearActiveIDEv, symObjAddr: 0x1234C, symBinAddr: 0x10002E7E0, symSize: 0x1C }
  - { offsetInCU: 0x13988, offset: 0x6755C, size: 0x8, addend: 0x0, symName: __ZN5ImGui12SetHoveredIDEj, symObjAddr: 0x12368, symBinAddr: 0x10002E7FC, symSize: 0x80 }
  - { offsetInCU: 0x139C2, offset: 0x67596, size: 0x8, addend: 0x0, symName: __ZN5ImGui12GetHoveredIDEv, symObjAddr: 0x123E8, symBinAddr: 0x10002E87C, symSize: 0x54 }
  - { offsetInCU: 0x139F0, offset: 0x675C4, size: 0x8, addend: 0x0, symName: __ZN5ImGui14MarkItemEditedEj, symObjAddr: 0x1243C, symBinAddr: 0x10002E8D0, symSize: 0x1E4 }
  - { offsetInCU: 0x13A29, offset: 0x675FD, size: 0x8, addend: 0x0, symName: __ZN5ImGui24IsWindowContentHoverableEP11ImGuiWindowi, symObjAddr: 0x12620, symBinAddr: 0x10002EAB4, symSize: 0x15C }
  - { offsetInCU: 0x13AA7, offset: 0x6767B, size: 0x8, addend: 0x0, symName: __ZN5ImGui26IsWindowWithinBeginStackOfEP11ImGuiWindowS1_, symObjAddr: 0x1277C, symBinAddr: 0x10002EC10, symSize: 0xB4 }
  - { offsetInCU: 0x13AE4, offset: 0x676B8, size: 0x8, addend: 0x0, symName: __ZN5ImGui13IsItemHoveredEi, symObjAddr: 0x12830, symBinAddr: 0x10002ECC4, symSize: 0x5A8 }
  - { offsetInCU: 0x13B88, offset: 0x6775C, size: 0x8, addend: 0x0, symName: __ZN5ImGui13IsItemFocusedEv, symObjAddr: 0x12DD8, symBinAddr: 0x10002F26C, symSize: 0x60 }
  - { offsetInCU: 0x13BB6, offset: 0x6778A, size: 0x8, addend: 0x0, symName: __ZN5ImGui13ItemHoverableERK6ImRectji, symObjAddr: 0x12F58, symBinAddr: 0x10002F3EC, symSize: 0x5B8 }
  - { offsetInCU: 0x13C20, offset: 0x677F4, size: 0x8, addend: 0x0, symName: __ZN5ImGui19IsMouseHoveringRectERK6ImVec2S2_b, symObjAddr: 0x13510, symBinAddr: 0x10002F9A4, symSize: 0xBC }
  - { offsetInCU: 0x13C8A, offset: 0x6785E, size: 0x8, addend: 0x0, symName: __ZN5ImGui10SetTooltipEPKcz, symObjAddr: 0x135CC, symBinAddr: 0x10002FA60, symSize: 0x34 }
  - { offsetInCU: 0x13CC5, offset: 0x67899, size: 0x8, addend: 0x0, symName: __ZN5ImGui15GetKeyChordNameEi, symObjAddr: 0x13600, symBinAddr: 0x10002FA94, symSize: 0x208 }
  - { offsetInCU: 0x13D20, offset: 0x678F4, size: 0x8, addend: 0x0, symName: __ZN5ImGui21GetForegroundDrawListEv, symObjAddr: 0x13808, symBinAddr: 0x10002FC9C, symSize: 0x40 }
  - { offsetInCU: 0x13D4E, offset: 0x67922, size: 0x8, addend: 0x0, symName: __ZN5ImGui11IsClippedExERK6ImRectj, symObjAddr: 0x13848, symBinAddr: 0x10002FCDC, symSize: 0x124 }
  - { offsetInCU: 0x13DA9, offset: 0x6797D, size: 0x8, addend: 0x0, symName: __ZN5ImGui15SetLastItemDataEjiiRK6ImRect, symObjAddr: 0x1396C, symBinAddr: 0x10002FE00, symSize: 0x74 }
  - { offsetInCU: 0x13E10, offset: 0x679E4, size: 0x8, addend: 0x0, symName: __ZN5ImGui19CalcWrapWidthForPosERK6ImVec2f, symObjAddr: 0x139E0, symBinAddr: 0x10002FE74, symSize: 0xDC }
  - { offsetInCU: 0x13E6B, offset: 0x67A3F, size: 0x8, addend: 0x0, symName: __ZN5ImGui14DebugAllocHookEP19ImGuiDebugAllocInfoiPvm, symObjAddr: 0x13ABC, symBinAddr: 0x10002FF50, symSize: 0x108 }
  - { offsetInCU: 0x13ED2, offset: 0x67AA6, size: 0x8, addend: 0x0, symName: __ZN5ImGui16GetClipboardTextEv, symObjAddr: 0x13BC4, symBinAddr: 0x100030058, symSize: 0x68 }
  - { offsetInCU: 0x13F00, offset: 0x67AD4, size: 0x8, addend: 0x0, symName: __ZN5ImGui16SetClipboardTextEPKc, symObjAddr: 0x13C2C, symBinAddr: 0x1000300C0, symSize: 0x58 }
  - { offsetInCU: 0x13F39, offset: 0x67B0D, size: 0x8, addend: 0x0, symName: __ZN5ImGui10GetVersionEv, symObjAddr: 0x13C84, symBinAddr: 0x100030118, symSize: 0xC }
  - { offsetInCU: 0x13F58, offset: 0x67B2C, size: 0x8, addend: 0x0, symName: __ZN5ImGui5GetIOEv, symObjAddr: 0x13C90, symBinAddr: 0x100030124, symSize: 0x80 }
  - { offsetInCU: 0x13F77, offset: 0x67B4B, size: 0x8, addend: 0x0, symName: __ZN5ImGui5GetIOEP12ImGuiContext, symObjAddr: 0x13D10, symBinAddr: 0x1000301A4, symSize: 0x5C }
  - { offsetInCU: 0x13FA5, offset: 0x67B79, size: 0x8, addend: 0x0, symName: __ZN5ImGui13GetPlatformIOEv, symObjAddr: 0x13D6C, symBinAddr: 0x100030200, symSize: 0x80 }
  - { offsetInCU: 0x13FC4, offset: 0x67B98, size: 0x8, addend: 0x0, symName: __ZN5ImGui13GetPlatformIOEP12ImGuiContext, symObjAddr: 0x13DEC, symBinAddr: 0x100030280, symSize: 0x5C }
  - { offsetInCU: 0x13FF2, offset: 0x67BC6, size: 0x8, addend: 0x0, symName: __ZN5ImGui11GetDrawDataEv, symObjAddr: 0x13E48, symBinAddr: 0x1000302DC, symSize: 0x70 }
  - { offsetInCU: 0x1402F, offset: 0x67C03, size: 0x8, addend: 0x0, symName: __ZN5ImGui7GetTimeEv, symObjAddr: 0x13F58, symBinAddr: 0x1000303EC, symSize: 0x10 }
  - { offsetInCU: 0x1404E, offset: 0x67C22, size: 0x8, addend: 0x0, symName: __ZN5ImGui13GetFrameCountEv, symObjAddr: 0x13F68, symBinAddr: 0x1000303FC, symSize: 0x10 }
  - { offsetInCU: 0x1406D, offset: 0x67C41, size: 0x8, addend: 0x0, symName: __ZN5ImGui21GetBackgroundDrawListEP13ImGuiViewport, symObjAddr: 0x13F78, symBinAddr: 0x10003040C, symSize: 0x30 }
  - { offsetInCU: 0x1409B, offset: 0x67C6F, size: 0x8, addend: 0x0, symName: __ZN5ImGui21GetBackgroundDrawListEv, symObjAddr: 0x1416C, symBinAddr: 0x100030600, symSize: 0x40 }
  - { offsetInCU: 0x140C9, offset: 0x67C9D, size: 0x8, addend: 0x0, symName: __ZN5ImGui21GetDrawListSharedDataEv, symObjAddr: 0x141AC, symBinAddr: 0x100030640, symSize: 0x14 }
  - { offsetInCU: 0x140E8, offset: 0x67CBC, size: 0x8, addend: 0x0, symName: __ZN5ImGui22StartMouseMovingWindowEP11ImGuiWindow, symObjAddr: 0x141C0, symBinAddr: 0x100030654, symSize: 0x110 }
  - { offsetInCU: 0x14130, offset: 0x67D04, size: 0x8, addend: 0x0, symName: __ZN5ImGui11FocusWindowEP11ImGuiWindowi, symObjAddr: 0x142D0, symBinAddr: 0x100030764, symSize: 0x44C }
  - { offsetInCU: 0x141AB, offset: 0x67D7F, size: 0x8, addend: 0x0, symName: __ZN5ImGui31SetActiveIdUsingAllKeyboardKeysEv, symObjAddr: 0x1471C, symBinAddr: 0x100030BB0, symSize: 0x84 }
  - { offsetInCU: 0x141D5, offset: 0x67DA9, size: 0x8, addend: 0x0, symName: __ZN5ImGui31UpdateMouseMovingWindowNewFrameEv, symObjAddr: 0x147A0, symBinAddr: 0x100030C34, symSize: 0x1A8 }
  - { offsetInCU: 0x14239, offset: 0x67E0D, size: 0x8, addend: 0x0, symName: __ZN5ImGui11KeepAliveIDEj, symObjAddr: 0x14948, symBinAddr: 0x100030DDC, symSize: 0x7C }
  - { offsetInCU: 0x14273, offset: 0x67E47, size: 0x8, addend: 0x0, symName: __ZN5ImGui15IsMousePosValidEPK6ImVec2, symObjAddr: 0x149C4, symBinAddr: 0x100030E58, symSize: 0xEC }
  - { offsetInCU: 0x142BF, offset: 0x67E93, size: 0x8, addend: 0x0, symName: __ZN5ImGui12SetWindowPosEP11ImGuiWindowRK6ImVec2i, symObjAddr: 0x14AB0, symBinAddr: 0x100030F44, symSize: 0x1C8 }
  - { offsetInCU: 0x14325, offset: 0x67EF9, size: 0x8, addend: 0x0, symName: __ZN5ImGui31UpdateMouseMovingWindowEndFrameEv, symObjAddr: 0x14C78, symBinAddr: 0x10003110C, symSize: 0x338 }
  - { offsetInCU: 0x143A7, offset: 0x67F7B, size: 0x8, addend: 0x0, symName: __ZN5ImGui11IsPopupOpenEji, symObjAddr: 0x14FB0, symBinAddr: 0x100031444, symSize: 0x1E8 }
  - { offsetInCU: 0x14410, offset: 0x67FE4, size: 0x8, addend: 0x0, symName: __ZN5ImGui20GetTopMostPopupModalEv, symObjAddr: 0x152BC, symBinAddr: 0x100031750, symSize: 0xBC }
  - { offsetInCU: 0x14470, offset: 0x68044, size: 0x8, addend: 0x0, symName: __ZN5ImGui13IsWindowAboveEP11ImGuiWindowS1_, symObjAddr: 0x15378, symBinAddr: 0x10003180C, symSize: 0x14C }
  - { offsetInCU: 0x14505, offset: 0x680D9, size: 0x8, addend: 0x0, symName: __ZN5ImGui21ClosePopupsOverWindowEP11ImGuiWindowb, symObjAddr: 0x154C4, symBinAddr: 0x100031958, symSize: 0x258 }
  - { offsetInCU: 0x145BA, offset: 0x6818E, size: 0x8, addend: 0x0, symName: __ZN5ImGui34UpdateHoveredWindowAndCaptureFlagsEv, symObjAddr: 0x1571C, symBinAddr: 0x100031BB0, symSize: 0x648 }
  - { offsetInCU: 0x14697, offset: 0x6826B, size: 0x8, addend: 0x0, symName: __ZN5ImGui19FindHoveredWindowExERK6ImVec2bPP11ImGuiWindowS5_, symObjAddr: 0x15D64, symBinAddr: 0x1000321F8, symSize: 0x39C }
  - { offsetInCU: 0x147B4, offset: 0x68388, size: 0x8, addend: 0x0, symName: __ZN5ImGui8NewFrameEv, symObjAddr: 0x16100, symBinAddr: 0x100032594, symSize: 0x1234 }
  - { offsetInCU: 0x14925, offset: 0x684F9, size: 0x8, addend: 0x0, symName: __ZN5ImGuiL30ErrorCheckNewFrameSanityChecksEv, symObjAddr: 0x174DC, symBinAddr: 0x100033970, symSize: 0x6FC }
  - { offsetInCU: 0x149D6, offset: 0x685AA, size: 0x8, addend: 0x0, symName: __ZN5ImGuiL14UpdateSettingsEv, symObjAddr: 0x17BD8, symBinAddr: 0x10003406C, symSize: 0x14C }
  - { offsetInCU: 0x14A01, offset: 0x685D5, size: 0x8, addend: 0x0, symName: __ZN5ImGui17UpdateInputEventsEb, symObjAddr: 0x17DF4, symBinAddr: 0x100034288, symSize: 0x84C }
  - { offsetInCU: 0x14BEE, offset: 0x687C2, size: 0x8, addend: 0x0, symName: __ZN5ImGuiL23UpdateViewportsNewFrameEv, symObjAddr: 0x18640, symBinAddr: 0x100034AD4, symSize: 0x16C }
  - { offsetInCU: 0x14C7A, offset: 0x6884E, size: 0x8, addend: 0x0, symName: __ZN5ImGui14SetCurrentFontEP6ImFont, symObjAddr: 0x1898C, symBinAddr: 0x100034E20, symSize: 0x1C8 }
  - { offsetInCU: 0x14CC2, offset: 0x68896, size: 0x8, addend: 0x0, symName: __ZN5ImGui14GetDefaultFontEv, symObjAddr: 0x18B54, symBinAddr: 0x100034FE8, symSize: 0x70 }
  - { offsetInCU: 0x14CF0, offset: 0x688C4, size: 0x8, addend: 0x0, symName: __ZN5ImGuiL20UpdateKeyboardInputsEv, symObjAddr: 0x18BE8, symBinAddr: 0x10003507C, symSize: 0x510 }
  - { offsetInCU: 0x14DF6, offset: 0x689CA, size: 0x8, addend: 0x0, symName: __ZN5ImGuiL9NavUpdateEv, symObjAddr: 0x190F8, symBinAddr: 0x10003558C, symSize: 0xF80 }
  - { offsetInCU: 0x14FE7, offset: 0x68BBB, size: 0x8, addend: 0x0, symName: __ZN5ImGuiL17UpdateMouseInputsEv, symObjAddr: 0x1A078, symBinAddr: 0x10003650C, symSize: 0x6A0 }
  - { offsetInCU: 0x150B3, offset: 0x68C87, size: 0x8, addend: 0x0, symName: __ZN5ImGuiL16UpdateMouseWheelEv, symObjAddr: 0x1A750, symBinAddr: 0x100036BE4, symSize: 0x7A4 }
  - { offsetInCU: 0x151E5, offset: 0x68DB9, size: 0x8, addend: 0x0, symName: __ZN5ImGui26FocusTopMostWindowUnderOneEP11ImGuiWindowS1_P13ImGuiViewporti, symObjAddr: 0x1B000, symBinAddr: 0x100037494, symSize: 0x168 }
  - { offsetInCU: 0x152B1, offset: 0x68E85, size: 0x8, addend: 0x0, symName: __ZN5ImGuiL25UpdateDebugToolItemPickerEv, symObjAddr: 0x1B378, symBinAddr: 0x10003780C, symSize: 0x270 }
  - { offsetInCU: 0x15326, offset: 0x68EFA, size: 0x8, addend: 0x0, symName: __ZN5ImGuiL27UpdateDebugToolStackQueriesEv, symObjAddr: 0x1B5E8, symBinAddr: 0x100037A7C, symSize: 0x234 }
  - { offsetInCU: 0x1537E, offset: 0x68F52, size: 0x8, addend: 0x0, symName: __ZN5ImGuiL30UpdateDebugToolFlashStyleColorEv, symObjAddr: 0x1B81C, symBinAddr: 0x100037CB0, symSize: 0xF4 }
  - { offsetInCU: 0x153A9, offset: 0x68F7D, size: 0x8, addend: 0x0, symName: __ZN5ImGui17SetNextWindowSizeERK6ImVec2i, symObjAddr: 0x1B910, symBinAddr: 0x100037DA4, symSize: 0xE0 }
  - { offsetInCU: 0x153F1, offset: 0x68FC5, size: 0x8, addend: 0x0, symName: __ZN5ImGui5BeginEPKcPbi, symObjAddr: 0x1B9F0, symBinAddr: 0x100037E84, symSize: 0x3D10 }
  - { offsetInCU: 0x158AF, offset: 0x69483, size: 0x8, addend: 0x0, symName: __ZN5ImGui23ErrorRecoveryStoreStateEP23ImGuiErrorRecoveryState, symObjAddr: 0x1F700, symBinAddr: 0x10003BB94, symSize: 0xDC }
  - { offsetInCU: 0x158E9, offset: 0x694BD, size: 0x8, addend: 0x0, symName: __ZN5ImGui12PushClipRectERK6ImVec2S2_b, symObjAddr: 0x1F7DC, symBinAddr: 0x10003BC70, symSize: 0x7C }
  - { offsetInCU: 0x15940, offset: 0x69514, size: 0x8, addend: 0x0, symName: __ZN5ImGui16GetCurrentWindowEv, symObjAddr: 0x1F858, symBinAddr: 0x10003BCEC, symSize: 0x30 }
  - { offsetInCU: 0x1596E, offset: 0x69542, size: 0x8, addend: 0x0, symName: __ZN5ImGui11PopClipRectEv, symObjAddr: 0x1F92C, symBinAddr: 0x10003BDC0, symSize: 0x58 }
  - { offsetInCU: 0x15998, offset: 0x6956C, size: 0x8, addend: 0x0, symName: __ZN5ImGui43FindBottomMostVisibleWindowWithinBeginStackEP11ImGuiWindow, symObjAddr: 0x1F984, symBinAddr: 0x10003BE18, symSize: 0x104 }
  - { offsetInCU: 0x15A1E, offset: 0x695F2, size: 0x8, addend: 0x0, symName: __ZN5ImGui22FindWindowDisplayIndexEP11ImGuiWindow, symObjAddr: 0x1FA88, symBinAddr: 0x10003BF1C, symSize: 0x5C }
  - { offsetInCU: 0x15A5B, offset: 0x6962F, size: 0x8, addend: 0x0, symName: __ZN5ImGui8EndFrameEv, symObjAddr: 0x1FBF8, symBinAddr: 0x10003C08C, symSize: 0x588 }
  - { offsetInCU: 0x15B30, offset: 0x69704, size: 0x8, addend: 0x0, symName: __ZN5ImGui30ErrorRecoveryTryToRecoverStateEPK23ImGuiErrorRecoveryState, symObjAddr: 0x20180, symBinAddr: 0x10003C614, symSize: 0x1AC }
  - { offsetInCU: 0x15B86, offset: 0x6975A, size: 0x8, addend: 0x0, symName: __ZN5ImGuiL30ErrorCheckEndFrameSanityChecksEv, symObjAddr: 0x2032C, symBinAddr: 0x10003C7C0, symSize: 0x124 }
  - { offsetInCU: 0x15BC0, offset: 0x69794, size: 0x8, addend: 0x0, symName: __ZN5ImGui38ErrorCheckEndFrameFinalizeErrorTooltipEv, symObjAddr: 0x20450, symBinAddr: 0x10003C8E4, symSize: 0x25C }
  - { offsetInCU: 0x15BEA, offset: 0x697BE, size: 0x8, addend: 0x0, symName: __ZN5ImGui15GetMainViewportEv, symObjAddr: 0x206AC, symBinAddr: 0x10003CB40, symSize: 0x3C }
  - { offsetInCU: 0x15C18, offset: 0x697EC, size: 0x8, addend: 0x0, symName: __ZN5ImGui3EndEv, symObjAddr: 0x206E8, symBinAddr: 0x10003CB7C, symSize: 0x3C8 }
  - { offsetInCU: 0x15C60, offset: 0x69834, size: 0x8, addend: 0x0, symName: __ZN5ImGuiL11NavEndFrameEv, symObjAddr: 0x20AB0, symBinAddr: 0x10003CF44, symSize: 0xA0 }
  - { offsetInCU: 0x15C8B, offset: 0x6985F, size: 0x8, addend: 0x0, symName: __ZN5ImGui11IsMouseDownEi, symObjAddr: 0x20B50, symBinAddr: 0x10003CFE4, symSize: 0xCC }
  - { offsetInCU: 0x15CC8, offset: 0x6989C, size: 0x8, addend: 0x0, symName: __ZN5ImGui13ClearDragDropEv, symObjAddr: 0x20C1C, symBinAddr: 0x10003D0B0, symSize: 0xE0 }
  - { offsetInCU: 0x15CF2, offset: 0x698C6, size: 0x8, addend: 0x0, symName: __ZN5ImGui6RenderEv, symObjAddr: 0x20F60, symBinAddr: 0x10003D3F4, symSize: 0x5BC }
  - { offsetInCU: 0x15EBC, offset: 0x69A90, size: 0x8, addend: 0x0, symName: __ZN5ImGuiL23RenderDimmedBackgroundsEv, symObjAddr: 0x215F0, symBinAddr: 0x10003DA84, symSize: 0x2D0 }
  - { offsetInCU: 0x15F7C, offset: 0x69B50, size: 0x8, addend: 0x0, symName: __ZN5ImGui12IsItemActiveEv, symObjAddr: 0x21C14, symBinAddr: 0x10003E0A8, symSize: 0x74 }
  - { offsetInCU: 0x15FAA, offset: 0x69B7E, size: 0x8, addend: 0x0, symName: __ZN5ImGui15IsItemActivatedEv, symObjAddr: 0x21C88, symBinAddr: 0x10003E11C, symSize: 0xA4 }
  - { offsetInCU: 0x15FD8, offset: 0x69BAC, size: 0x8, addend: 0x0, symName: __ZN5ImGui17IsItemDeactivatedEv, symObjAddr: 0x21D2C, symBinAddr: 0x10003E1C0, symSize: 0xD4 }
  - { offsetInCU: 0x16006, offset: 0x69BDA, size: 0x8, addend: 0x0, symName: __ZN5ImGui26IsItemDeactivatedAfterEditEv, symObjAddr: 0x21E00, symBinAddr: 0x10003E294, symSize: 0x58 }
  - { offsetInCU: 0x16034, offset: 0x69C08, size: 0x8, addend: 0x0, symName: __ZN5ImGui13IsItemClickedEi, symObjAddr: 0x21E58, symBinAddr: 0x10003E2EC, symSize: 0x54 }
  - { offsetInCU: 0x16062, offset: 0x69C36, size: 0x8, addend: 0x0, symName: __ZN5ImGui14IsMouseClickedEib, symObjAddr: 0x21EAC, symBinAddr: 0x10003E340, symSize: 0x48 }
  - { offsetInCU: 0x1609F, offset: 0x69C73, size: 0x8, addend: 0x0, symName: __ZN5ImGui17IsItemToggledOpenEv, symObjAddr: 0x21EF4, symBinAddr: 0x10003E388, symSize: 0x3C }
  - { offsetInCU: 0x160CD, offset: 0x69CA1, size: 0x8, addend: 0x0, symName: __ZN5ImGui22IsItemToggledSelectionEv, symObjAddr: 0x21F30, symBinAddr: 0x10003E3C4, symSize: 0x84 }
  - { offsetInCU: 0x160FB, offset: 0x69CCF, size: 0x8, addend: 0x0, symName: __ZN5ImGui16IsAnyItemHoveredEv, symObjAddr: 0x21FB4, symBinAddr: 0x10003E448, symSize: 0x58 }
  - { offsetInCU: 0x16129, offset: 0x69CFD, size: 0x8, addend: 0x0, symName: __ZN5ImGui15IsAnyItemActiveEv, symObjAddr: 0x2200C, symBinAddr: 0x10003E4A0, symSize: 0x2C }
  - { offsetInCU: 0x16157, offset: 0x69D2B, size: 0x8, addend: 0x0, symName: __ZN5ImGui16IsAnyItemFocusedEv, symObjAddr: 0x22038, symBinAddr: 0x10003E4CC, symSize: 0x58 }
  - { offsetInCU: 0x16185, offset: 0x69D59, size: 0x8, addend: 0x0, symName: __ZN5ImGui13IsItemVisibleEv, symObjAddr: 0x22090, symBinAddr: 0x10003E524, symSize: 0x2C }
  - { offsetInCU: 0x161B3, offset: 0x69D87, size: 0x8, addend: 0x0, symName: __ZN5ImGui12IsItemEditedEv, symObjAddr: 0x220BC, symBinAddr: 0x10003E550, symSize: 0x2C }
  - { offsetInCU: 0x161E1, offset: 0x69DB5, size: 0x8, addend: 0x0, symName: __ZN5ImGui23SetNextItemAllowOverlapEv, symObjAddr: 0x220E8, symBinAddr: 0x10003E57C, symSize: 0x28 }
  - { offsetInCU: 0x1620C, offset: 0x69DE0, size: 0x8, addend: 0x0, symName: __ZN5ImGui19SetItemAllowOverlapEv, symObjAddr: 0x22110, symBinAddr: 0x10003E5A4, symSize: 0x8C }
  - { offsetInCU: 0x16246, offset: 0x69E1A, size: 0x8, addend: 0x0, symName: __ZN5ImGui20NavMoveRequestCancelEv, symObjAddr: 0x2219C, symBinAddr: 0x10003E630, symSize: 0x48 }
  - { offsetInCU: 0x16270, offset: 0x69E44, size: 0x8, addend: 0x0, symName: __ZN5ImGui9GetItemIDEv, symObjAddr: 0x221E4, symBinAddr: 0x10003E678, symSize: 0x20 }
  - { offsetInCU: 0x1629E, offset: 0x69E72, size: 0x8, addend: 0x0, symName: __ZN5ImGui14GetItemRectMinEv, symObjAddr: 0x22204, symBinAddr: 0x10003E698, symSize: 0x30 }
  - { offsetInCU: 0x162CC, offset: 0x69EA0, size: 0x8, addend: 0x0, symName: __ZN5ImGui14GetItemRectMaxEv, symObjAddr: 0x22234, symBinAddr: 0x10003E6C8, symSize: 0x30 }
  - { offsetInCU: 0x162FA, offset: 0x69ECE, size: 0x8, addend: 0x0, symName: __ZN5ImGui15GetItemRectSizeEv, symObjAddr: 0x22264, symBinAddr: 0x10003E6F8, symSize: 0x44 }
  - { offsetInCU: 0x16328, offset: 0x69EFC, size: 0x8, addend: 0x0, symName: __ZN5ImGui10BeginChildEPKcRK6ImVec2ii, symObjAddr: 0x222F0, symBinAddr: 0x10003E784, symSize: 0x58 }
  - { offsetInCU: 0x16392, offset: 0x69F66, size: 0x8, addend: 0x0, symName: __ZN5ImGui12BeginChildExEPKcjRK6ImVec2ii, symObjAddr: 0x22348, symBinAddr: 0x10003E7DC, symSize: 0x734 }
  - { offsetInCU: 0x164A7, offset: 0x6A07B, size: 0x8, addend: 0x0, symName: __ZN5ImGui10BeginChildEjRK6ImVec2ii, symObjAddr: 0x22A7C, symBinAddr: 0x10003EF10, symSize: 0x44 }
  - { offsetInCU: 0x16502, offset: 0x6A0D6, size: 0x8, addend: 0x0, symName: __ZN5ImGui21GetContentRegionAvailEv, symObjAddr: 0x22AC0, symBinAddr: 0x10003EF54, symSize: 0xAC }
  - { offsetInCU: 0x1654E, offset: 0x6A122, size: 0x8, addend: 0x0, symName: __ZN5ImGui12CalcItemSizeE6ImVec2ff, symObjAddr: 0x22B6C, symBinAddr: 0x10003F000, symSize: 0x128 }
  - { offsetInCU: 0x165A9, offset: 0x6A17D, size: 0x8, addend: 0x0, symName: __ZN5ImGui13NavInitWindowEP11ImGuiWindowb, symObjAddr: 0x22C94, symBinAddr: 0x10003F128, symSize: 0x200 }
  - { offsetInCU: 0x16600, offset: 0x6A1D4, size: 0x8, addend: 0x0, symName: __ZN5ImGui8EndChildEv, symObjAddr: 0x22E94, symBinAddr: 0x10003F328, symSize: 0x338 }
  - { offsetInCU: 0x16694, offset: 0x6A268, size: 0x8, addend: 0x0, symName: __ZN5ImGui8ItemSizeERK6ImVec2f, symObjAddr: 0x231CC, symBinAddr: 0x10003F660, symSize: 0x240 }
  - { offsetInCU: 0x16718, offset: 0x6A2EC, size: 0x8, addend: 0x0, symName: __ZN5ImGui7ItemAddERK6ImRectjPS1_i, symObjAddr: 0x2340C, symBinAddr: 0x10003F8A0, symSize: 0x438 }
  - { offsetInCU: 0x167A0, offset: 0x6A374, size: 0x8, addend: 0x0, symName: __ZN5ImGuiL33SetLastItemDataForChildWindowItemEP11ImGuiWindowRK6ImRect, symObjAddr: 0x23844, symBinAddr: 0x10003FCD8, symSize: 0x4C }
  - { offsetInCU: 0x167E9, offset: 0x6A3BD, size: 0x8, addend: 0x0, symName: __ZN5ImGui14FindWindowByIDEj, symObjAddr: 0x238E8, symBinAddr: 0x10003FD7C, symSize: 0x3C }
  - { offsetInCU: 0x16826, offset: 0x6A3FA, size: 0x8, addend: 0x0, symName: __ZN5ImGui16FindWindowByNameEPKc, symObjAddr: 0x23924, symBinAddr: 0x10003FDB8, symSize: 0x38 }
  - { offsetInCU: 0x16863, offset: 0x6A437, size: 0x8, addend: 0x0, symName: __ZN5ImGui25CalcWindowNextAutoFitSizeEP11ImGuiWindow, symObjAddr: 0x2395C, symBinAddr: 0x10003FDF0, symSize: 0x74 }
  - { offsetInCU: 0x168CD, offset: 0x6A4A1, size: 0x8, addend: 0x0, symName: __ZN5ImGui23GetWindowResizeCornerIDEP11ImGuiWindowi, symObjAddr: 0x241A4, symBinAddr: 0x100040638, symSize: 0xBC }
  - { offsetInCU: 0x16919, offset: 0x6A4ED, size: 0x8, addend: 0x0, symName: __ZN5ImGui23GetWindowResizeBorderIDEP11ImGuiWindow8ImGuiDir, symObjAddr: 0x24260, symBinAddr: 0x1000406F4, symSize: 0xD4 }
  - { offsetInCU: 0x16974, offset: 0x6A548, size: 0x8, addend: 0x0, symName: __ZN5ImGui30UpdateWindowParentAndRootLinksEP11ImGuiWindowiS1_, symObjAddr: 0x24334, symBinAddr: 0x1000407C8, symSize: 0x1AC }
  - { offsetInCU: 0x169BC, offset: 0x6A590, size: 0x8, addend: 0x0, symName: __ZN5ImGui23UpdateWindowSkipRefreshEP11ImGuiWindow, symObjAddr: 0x244E0, symBinAddr: 0x100040974, symSize: 0x194 }
  - { offsetInCU: 0x169F5, offset: 0x6A5C9, size: 0x8, addend: 0x0, symName: __ZN5ImGuiL28UpdateWindowInFocusOrderListEP11ImGuiWindowbi, symObjAddr: 0x249CC, symBinAddr: 0x100040E60, symSize: 0x280 }
  - { offsetInCU: 0x16A88, offset: 0x6A65C, size: 0x8, addend: 0x0, symName: __ZN5ImGui14PushFocusScopeEj, symObjAddr: 0x24CE4, symBinAddr: 0x100041178, symSize: 0x60 }
  - { offsetInCU: 0x16AD0, offset: 0x6A6A4, size: 0x8, addend: 0x0, symName: __ZN5ImGui13SetWindowSizeEP11ImGuiWindowRK6ImVec2i, symObjAddr: 0x24DD8, symBinAddr: 0x10004126C, symSize: 0x294 }
  - { offsetInCU: 0x16B27, offset: 0x6A6FB, size: 0x8, addend: 0x0, symName: __ZN5ImGui18SetWindowCollapsedEP11ImGuiWindowbi, symObjAddr: 0x2506C, symBinAddr: 0x100041500, symSize: 0x98 }
  - { offsetInCU: 0x16B70, offset: 0x6A744, size: 0x8, addend: 0x0, symName: __ZN5ImGui29BeginDisabledOverrideReenableEv, symObjAddr: 0x25104, symBinAddr: 0x100041598, symSize: 0xD8 }
  - { offsetInCU: 0x16B9A, offset: 0x6A76E, size: 0x8, addend: 0x0, symName: __ZN5ImGui17SetWindowViewportEP11ImGuiWindowP14ImGuiViewportP, symObjAddr: 0x251DC, symBinAddr: 0x100041670, symSize: 0x20 }
  - { offsetInCU: 0x16BD4, offset: 0x6A7A8, size: 0x8, addend: 0x0, symName: __ZN5ImGui11GetKeyOwnerE8ImGuiKey, symObjAddr: 0x25348, symBinAddr: 0x1000417DC, symSize: 0xF0 }
  - { offsetInCU: 0x16C2F, offset: 0x6A803, size: 0x8, addend: 0x0, symName: __ZN5ImGui20MarkIniSettingsDirtyEP11ImGuiWindow, symObjAddr: 0x25438, symBinAddr: 0x1000418CC, symSize: 0x64 }
  - { offsetInCU: 0x16C69, offset: 0x6A83D, size: 0x8, addend: 0x0, symName: __ZN5ImGui25FindBestWindowPosForPopupEP11ImGuiWindow, symObjAddr: 0x255EC, symBinAddr: 0x100041A80, symSize: 0x4C8 }
  - { offsetInCU: 0x16D5D, offset: 0x6A931, size: 0x8, addend: 0x0, symName: __ZN5ImGuiL24UpdateWindowManualResizeEP11ImGuiWindowRK6ImVec2PiS5_iPjRK6ImRect, symObjAddr: 0x25C04, symBinAddr: 0x100042098, symSize: 0x14D4 }
  - { offsetInCU: 0x17136, offset: 0x6AD0A, size: 0x8, addend: 0x0, symName: __ZN5ImGuiL23RenderWindowDecorationsEP11ImGuiWindowRK6ImRectbbiPKjf, symObjAddr: 0x2754C, symBinAddr: 0x1000439E0, symSize: 0x8A4 }
  - { offsetInCU: 0x1731E, offset: 0x6AEF2, size: 0x8, addend: 0x0, symName: __ZN5ImGui8ShortcutEii, symObjAddr: 0x27E58, symBinAddr: 0x1000442EC, symSize: 0x34 }
  - { offsetInCU: 0x1735B, offset: 0x6AF2F, size: 0x8, addend: 0x0, symName: __ZN5ImGui14LogToClipboardEi, symObjAddr: 0x27E8C, symBinAddr: 0x100044320, symSize: 0x54 }
  - { offsetInCU: 0x17394, offset: 0x6AF68, size: 0x8, addend: 0x0, symName: __ZN5ImGuiL28RenderWindowTitleBarContentsEP11ImGuiWindowRK6ImRectPKcPb, symObjAddr: 0x27EE0, symBinAddr: 0x100044374, symSize: 0x65C }
  - { offsetInCU: 0x17526, offset: 0x6B0FA, size: 0x8, addend: 0x0, symName: __ZN5ImGuiL24SetLastItemDataForWindowEP11ImGuiWindowRK6ImRect, symObjAddr: 0x28588, symBinAddr: 0x100044A1C, symSize: 0x4C }
  - { offsetInCU: 0x1756F, offset: 0x6B143, size: 0x8, addend: 0x0, symName: __ZN5ImGui34DebugLocateItemResolveWithLastItemEv, symObjAddr: 0x285D4, symBinAddr: 0x100044A68, symSize: 0x1B8 }
  - { offsetInCU: 0x175E7, offset: 0x6B1BB, size: 0x8, addend: 0x0, symName: __ZN5ImGui13PopFocusScopeEv, symObjAddr: 0x2885C, symBinAddr: 0x100044CF0, symSize: 0xE8 }
  - { offsetInCU: 0x17611, offset: 0x6B1E5, size: 0x8, addend: 0x0, symName: __ZN5ImGui27EndDisabledOverrideReenableEv, symObjAddr: 0x28944, symBinAddr: 0x100044DD8, symSize: 0xC8 }
  - { offsetInCU: 0x1763B, offset: 0x6B20F, size: 0x8, addend: 0x0, symName: __ZN5ImGui9LogFinishEv, symObjAddr: 0x28A0C, symBinAddr: 0x100044EA0, symSize: 0x144 }
  - { offsetInCU: 0x17665, offset: 0x6B239, size: 0x8, addend: 0x0, symName: __ZN5ImGui51ErrorCheckUsingSetCursorPosToExtendParentBoundariesEv, symObjAddr: 0x28B70, symBinAddr: 0x100045004, symSize: 0x94 }
  - { offsetInCU: 0x1769E, offset: 0x6B272, size: 0x8, addend: 0x0, symName: __ZN5ImGui36ErrorRecoveryTryToRecoverWindowStateEPK23ImGuiErrorRecoveryState, symObjAddr: 0x28C70, symBinAddr: 0x100045104, symSize: 0x6C4 }
  - { offsetInCU: 0x176E6, offset: 0x6B2BA, size: 0x8, addend: 0x0, symName: __ZN5ImGui8PushFontEP6ImFont, symObjAddr: 0x293D4, symBinAddr: 0x100045868, symSize: 0x80 }
  - { offsetInCU: 0x1771F, offset: 0x6B2F3, size: 0x8, addend: 0x0, symName: __ZN5ImGui7PopFontEv, symObjAddr: 0x294D8, symBinAddr: 0x10004596C, symSize: 0xFC }
  - { offsetInCU: 0x17758, offset: 0x6B32C, size: 0x8, addend: 0x0, symName: __ZN5ImGui12PushItemFlagEib, symObjAddr: 0x296B0, symBinAddr: 0x100045B44, symSize: 0xE8 }
  - { offsetInCU: 0x177AF, offset: 0x6B383, size: 0x8, addend: 0x0, symName: __ZN5ImGui11PopItemFlagEv, symObjAddr: 0x29798, symBinAddr: 0x100045C2C, symSize: 0xB0 }
  - { offsetInCU: 0x177D9, offset: 0x6B3AD, size: 0x8, addend: 0x0, symName: __ZN5ImGui13BeginDisabledEb, symObjAddr: 0x298B4, symBinAddr: 0x100045D48, symSize: 0xEC }
  - { offsetInCU: 0x17821, offset: 0x6B3F5, size: 0x8, addend: 0x0, symName: __ZN5ImGui11EndDisabledEv, symObjAddr: 0x299A0, symBinAddr: 0x100045E34, symSize: 0x120 }
  - { offsetInCU: 0x1785A, offset: 0x6B42E, size: 0x8, addend: 0x0, symName: __ZN5ImGui15PushTextWrapPosEf, symObjAddr: 0x29AC0, symBinAddr: 0x100045F54, symSize: 0x54 }
  - { offsetInCU: 0x178A2, offset: 0x6B476, size: 0x8, addend: 0x0, symName: __ZN5ImGui14PopTextWrapPosEv, symObjAddr: 0x29B98, symBinAddr: 0x10004602C, symSize: 0xB0 }
  - { offsetInCU: 0x178DB, offset: 0x6B4AF, size: 0x8, addend: 0x0, symName: __ZN5ImGui15IsWindowChildOfEP11ImGuiWindowS1_b, symObjAddr: 0x29D24, symBinAddr: 0x1000461B8, symSize: 0x108 }
  - { offsetInCU: 0x17936, offset: 0x6B50A, size: 0x8, addend: 0x0, symName: __ZN5ImGui15IsWindowHoveredEi, symObjAddr: 0x29E9C, symBinAddr: 0x100046330, symSize: 0x340 }
  - { offsetInCU: 0x179BD, offset: 0x6B591, size: 0x8, addend: 0x0, symName: __ZN5ImGui14GetWindowWidthEv, symObjAddr: 0x2A1DC, symBinAddr: 0x100046670, symSize: 0x24 }
  - { offsetInCU: 0x179EB, offset: 0x6B5BF, size: 0x8, addend: 0x0, symName: __ZN5ImGui15GetWindowHeightEv, symObjAddr: 0x2A200, symBinAddr: 0x100046694, symSize: 0x24 }
  - { offsetInCU: 0x17A19, offset: 0x6B5ED, size: 0x8, addend: 0x0, symName: __ZN5ImGui12GetWindowPosEv, symObjAddr: 0x2A224, symBinAddr: 0x1000466B8, symSize: 0x38 }
  - { offsetInCU: 0x17A56, offset: 0x6B62A, size: 0x8, addend: 0x0, symName: __ZN5ImGui12SetWindowPosERK6ImVec2i, symObjAddr: 0x2A2F4, symBinAddr: 0x100046788, symSize: 0x38 }
  - { offsetInCU: 0x17A9E, offset: 0x6B672, size: 0x8, addend: 0x0, symName: __ZN5ImGui20GetCurrentWindowReadEv, symObjAddr: 0x2A32C, symBinAddr: 0x1000467C0, symSize: 0x20 }
  - { offsetInCU: 0x17ACC, offset: 0x6B6A0, size: 0x8, addend: 0x0, symName: __ZN5ImGui12SetWindowPosEPKcRK6ImVec2i, symObjAddr: 0x2A34C, symBinAddr: 0x1000467E0, symSize: 0x58 }
  - { offsetInCU: 0x17B29, offset: 0x6B6FD, size: 0x8, addend: 0x0, symName: __ZN5ImGui13GetWindowSizeEv, symObjAddr: 0x2A3A4, symBinAddr: 0x100046838, symSize: 0x34 }
  - { offsetInCU: 0x17B57, offset: 0x6B72B, size: 0x8, addend: 0x0, symName: __ZN5ImGui13SetWindowSizeERK6ImVec2i, symObjAddr: 0x2A3D8, symBinAddr: 0x10004686C, symSize: 0x38 }
  - { offsetInCU: 0x17B90, offset: 0x6B764, size: 0x8, addend: 0x0, symName: __ZN5ImGui13SetWindowSizeEPKcRK6ImVec2i, symObjAddr: 0x2A410, symBinAddr: 0x1000468A4, symSize: 0x58 }
  - { offsetInCU: 0x17BED, offset: 0x6B7C1, size: 0x8, addend: 0x0, symName: __ZN5ImGui20SetWindowHitTestHoleEP11ImGuiWindowRK6ImVec2S4_, symObjAddr: 0x2A468, symBinAddr: 0x1000468FC, symSize: 0xA8 }
  - { offsetInCU: 0x17C35, offset: 0x6B809, size: 0x8, addend: 0x0, symName: __ZN5ImGui42SetWindowHiddenAndSkipItemsForCurrentFrameEP11ImGuiWindow, symObjAddr: 0x2A544, symBinAddr: 0x1000469D8, symSize: 0x2C }
  - { offsetInCU: 0x17C60, offset: 0x6B834, size: 0x8, addend: 0x0, symName: __ZN5ImGui18SetWindowCollapsedEbi, symObjAddr: 0x2A570, symBinAddr: 0x100046A04, symSize: 0x44 }
  - { offsetInCU: 0x17C99, offset: 0x6B86D, size: 0x8, addend: 0x0, symName: __ZN5ImGui17IsWindowCollapsedEv, symObjAddr: 0x2A5B4, symBinAddr: 0x100046A48, symSize: 0x2C }
  - { offsetInCU: 0x17CC7, offset: 0x6B89B, size: 0x8, addend: 0x0, symName: __ZN5ImGui17IsWindowAppearingEv, symObjAddr: 0x2A5E0, symBinAddr: 0x100046A74, symSize: 0x2C }
  - { offsetInCU: 0x17CF5, offset: 0x6B8C9, size: 0x8, addend: 0x0, symName: __ZN5ImGui18SetWindowCollapsedEPKcbi, symObjAddr: 0x2A60C, symBinAddr: 0x100046AA0, symSize: 0x64 }
  - { offsetInCU: 0x17D52, offset: 0x6B926, size: 0x8, addend: 0x0, symName: __ZN5ImGui16SetNextWindowPosERK6ImVec2iS2_, symObjAddr: 0x2A670, symBinAddr: 0x100046B04, symSize: 0xF4 }
  - { offsetInCU: 0x17DA9, offset: 0x6B97D, size: 0x8, addend: 0x0, symName: __ZN5ImGui28SetNextWindowSizeConstraintsERK6ImVec2S2_PFvP21ImGuiSizeCallbackDataEPv, symObjAddr: 0x2A764, symBinAddr: 0x100046BF8, symSize: 0x7C }
  - { offsetInCU: 0x17E0F, offset: 0x6B9E3, size: 0x8, addend: 0x0, symName: __ZN5ImGui24SetNextWindowContentSizeERK6ImVec2, symObjAddr: 0x2A7E0, symBinAddr: 0x100046C74, symSize: 0x54 }
  - { offsetInCU: 0x17E48, offset: 0x6BA1C, size: 0x8, addend: 0x0, symName: __ZN5ImGui19SetNextWindowScrollERK6ImVec2, symObjAddr: 0x2A834, symBinAddr: 0x100046CC8, symSize: 0x3C }
  - { offsetInCU: 0x17E82, offset: 0x6BA56, size: 0x8, addend: 0x0, symName: __ZN5ImGui22SetNextWindowCollapsedEbi, symObjAddr: 0x2A870, symBinAddr: 0x100046D04, symSize: 0xF0 }
  - { offsetInCU: 0x17ECA, offset: 0x6BA9E, size: 0x8, addend: 0x0, symName: __ZN5ImGui20SetNextWindowBgAlphaEf, symObjAddr: 0x2A960, symBinAddr: 0x100046DF4, symSize: 0x38 }
  - { offsetInCU: 0x17F04, offset: 0x6BAD8, size: 0x8, addend: 0x0, symName: __ZN5ImGui26SetNextWindowRefreshPolicyEi, symObjAddr: 0x2A998, symBinAddr: 0x100046E2C, symSize: 0x38 }
  - { offsetInCU: 0x17F3E, offset: 0x6BB12, size: 0x8, addend: 0x0, symName: __ZN5ImGui17GetWindowDrawListEv, symObjAddr: 0x2A9D0, symBinAddr: 0x100046E64, symSize: 0x28 }
  - { offsetInCU: 0x17F6C, offset: 0x6BB40, size: 0x8, addend: 0x0, symName: __ZN5ImGui7GetFontEv, symObjAddr: 0x2A9F8, symBinAddr: 0x100046E8C, symSize: 0x10 }
  - { offsetInCU: 0x17F8B, offset: 0x6BB5F, size: 0x8, addend: 0x0, symName: __ZN5ImGui11GetFontSizeEv, symObjAddr: 0x2AA08, symBinAddr: 0x100046E9C, symSize: 0x10 }
  - { offsetInCU: 0x17FAA, offset: 0x6BB7E, size: 0x8, addend: 0x0, symName: __ZN5ImGui22GetFontTexUvWhitePixelEv, symObjAddr: 0x2AA18, symBinAddr: 0x100046EAC, symSize: 0x24 }
  - { offsetInCU: 0x17FC9, offset: 0x6BB9D, size: 0x8, addend: 0x0, symName: __ZN5ImGui18SetWindowFontScaleEf, symObjAddr: 0x2AA3C, symBinAddr: 0x100046ED0, symSize: 0xB4 }
  - { offsetInCU: 0x18011, offset: 0x6BBE5, size: 0x8, addend: 0x0, symName: __ZN5ImGui16SetNavFocusScopeEj, symObjAddr: 0x2AC50, symBinAddr: 0x1000470E4, symSize: 0x258 }
  - { offsetInCU: 0x18084, offset: 0x6BC58, size: 0x8, addend: 0x0, symName: __ZN5ImGui9FocusItemEv, symObjAddr: 0x2AF10, symBinAddr: 0x1000473A4, symSize: 0x13C }
  - { offsetInCU: 0x180DB, offset: 0x6BCAF, size: 0x8, addend: 0x0, symName: __ZN5ImGui12SetNavWindowEP11ImGuiWindow, symObjAddr: 0x2B04C, symBinAddr: 0x1000474E0, symSize: 0x104 }
  - { offsetInCU: 0x18114, offset: 0x6BCE8, size: 0x8, addend: 0x0, symName: __ZN5ImGui20NavMoveRequestSubmitE8ImGuiDirS0_ii, symObjAddr: 0x2B150, symBinAddr: 0x1000475E4, symSize: 0x18C }
  - { offsetInCU: 0x1817A, offset: 0x6BD4E, size: 0x8, addend: 0x0, symName: __ZN5ImGui33NavMoveRequestResolveWithLastItemEP16ImGuiNavItemData, symObjAddr: 0x2B2DC, symBinAddr: 0x100047770, symSize: 0x44 }
  - { offsetInCU: 0x181B3, offset: 0x6BD87, size: 0x8, addend: 0x0, symName: __ZN5ImGui16ActivateItemByIDEj, symObjAddr: 0x2B320, symBinAddr: 0x1000477B4, symSize: 0x30 }
  - { offsetInCU: 0x181ED, offset: 0x6BDC1, size: 0x8, addend: 0x0, symName: __ZN5ImGui20SetKeyboardFocusHereEi, symObjAddr: 0x2B350, symBinAddr: 0x1000477E4, symSize: 0x1C0 }
  - { offsetInCU: 0x18253, offset: 0x6BE27, size: 0x8, addend: 0x0, symName: __ZN5ImGui19SetItemDefaultFocusEv, symObjAddr: 0x2B510, symBinAddr: 0x1000479A4, symSize: 0x120 }
  - { offsetInCU: 0x1828C, offset: 0x6BE60, size: 0x8, addend: 0x0, symName: __ZN5ImGuiL20NavApplyItemToResultEP16ImGuiNavItemData, symObjAddr: 0x2B630, symBinAddr: 0x100047AC4, symSize: 0x108 }
  - { offsetInCU: 0x182D5, offset: 0x6BEA9, size: 0x8, addend: 0x0, symName: __ZN5ImGuiL23NavUpdateAnyRequestFlagEv, symObjAddr: 0x2B738, symBinAddr: 0x100047BCC, symSize: 0xDC }
  - { offsetInCU: 0x18300, offset: 0x6BED4, size: 0x8, addend: 0x0, symName: __ZN5ImGui14ScrollToRectExEP11ImGuiWindowRK6ImRecti, symObjAddr: 0x2B814, symBinAddr: 0x100047CA8, symSize: 0x84C }
  - { offsetInCU: 0x183DA, offset: 0x6BFAE, size: 0x8, addend: 0x0, symName: __ZN5ImGui15SetStateStorageEP12ImGuiStorage, symObjAddr: 0x2C060, symBinAddr: 0x1000484F4, symSize: 0x5C }
  - { offsetInCU: 0x18414, offset: 0x6BFE8, size: 0x8, addend: 0x0, symName: __ZN5ImGui15GetStateStorageEv, symObjAddr: 0x2C0BC, symBinAddr: 0x100048550, symSize: 0x24 }
  - { offsetInCU: 0x18442, offset: 0x6C016, size: 0x8, addend: 0x0, symName: __ZN5ImGui13IsRectVisibleERK6ImVec2, symObjAddr: 0x2C0E0, symBinAddr: 0x100048574, symSize: 0x80 }
  - { offsetInCU: 0x1847F, offset: 0x6C053, size: 0x8, addend: 0x0, symName: __ZN5ImGui13IsRectVisibleERK6ImVec2S2_, symObjAddr: 0x2C160, symBinAddr: 0x1000485F4, symSize: 0x60 }
  - { offsetInCU: 0x184CB, offset: 0x6C09F, size: 0x8, addend: 0x0, symName: __ZN5ImGui15DebugHookIdInfoEjiPKvS1_, symObjAddr: 0x2C230, symBinAddr: 0x1000486C4, symSize: 0x3EC }
  - { offsetInCU: 0x18584, offset: 0x6C158, size: 0x8, addend: 0x0, symName: __ZN5ImGui17WindowPosAbsToRelEP11ImGuiWindowRK6ImVec2, symObjAddr: 0x2C77C, symBinAddr: 0x100048C10, symSize: 0x5C }
  - { offsetInCU: 0x185D0, offset: 0x6C1A4, size: 0x8, addend: 0x0, symName: __ZN5ImGui18WindowRectAbsToRelEP11ImGuiWindowRK6ImRect, symObjAddr: 0x2C848, symBinAddr: 0x100048CDC, symSize: 0x84 }
  - { offsetInCU: 0x1861C, offset: 0x6C1F0, size: 0x8, addend: 0x0, symName: __ZN5ImGui6PushIDEPKc, symObjAddr: 0x2C8CC, symBinAddr: 0x100048D60, symSize: 0x58 }
  - { offsetInCU: 0x18673, offset: 0x6C247, size: 0x8, addend: 0x0, symName: __ZN5ImGui6PushIDEPKcS1_, symObjAddr: 0x2C924, symBinAddr: 0x100048DB8, symSize: 0x5C }
  - { offsetInCU: 0x186D9, offset: 0x6C2AD, size: 0x8, addend: 0x0, symName: __ZN5ImGui6PushIDEPKv, symObjAddr: 0x2C980, symBinAddr: 0x100048E14, symSize: 0x54 }
  - { offsetInCU: 0x18730, offset: 0x6C304, size: 0x8, addend: 0x0, symName: __ZN5ImGui6PushIDEi, symObjAddr: 0x2C9D4, symBinAddr: 0x100048E68, symSize: 0x54 }
  - { offsetInCU: 0x18787, offset: 0x6C35B, size: 0x8, addend: 0x0, symName: __ZN5ImGui14PushOverrideIDEj, symObjAddr: 0x2CA28, symBinAddr: 0x100048EBC, symSize: 0x78 }
  - { offsetInCU: 0x187CF, offset: 0x6C3A3, size: 0x8, addend: 0x0, symName: __ZN5ImGui13GetIDWithSeedEPKcS1_j, symObjAddr: 0x2CAA0, symBinAddr: 0x100048F34, symSize: 0xB8 }
  - { offsetInCU: 0x18839, offset: 0x6C40D, size: 0x8, addend: 0x0, symName: __ZN5ImGui13GetIDWithSeedEij, symObjAddr: 0x2CB58, symBinAddr: 0x100048FEC, symSize: 0x7C }
  - { offsetInCU: 0x18894, offset: 0x6C468, size: 0x8, addend: 0x0, symName: __ZN5ImGui5PopIDEv, symObjAddr: 0x2CBD4, symBinAddr: 0x100049068, symSize: 0x90 }
  - { offsetInCU: 0x188BE, offset: 0x6C492, size: 0x8, addend: 0x0, symName: __ZN5ImGui5GetIDEPKc, symObjAddr: 0x2CCD0, symBinAddr: 0x100049164, symSize: 0x3C }
  - { offsetInCU: 0x188FB, offset: 0x6C4CF, size: 0x8, addend: 0x0, symName: __ZN5ImGui5GetIDEPKcS1_, symObjAddr: 0x2CD0C, symBinAddr: 0x1000491A0, symSize: 0x40 }
  - { offsetInCU: 0x18947, offset: 0x6C51B, size: 0x8, addend: 0x0, symName: __ZN5ImGui5GetIDEPKv, symObjAddr: 0x2CD4C, symBinAddr: 0x1000491E0, symSize: 0x38 }
  - { offsetInCU: 0x18984, offset: 0x6C558, size: 0x8, addend: 0x0, symName: __ZN5ImGui5GetIDEi, symObjAddr: 0x2CD84, symBinAddr: 0x100049218, symSize: 0x38 }
  - { offsetInCU: 0x189C1, offset: 0x6C595, size: 0x8, addend: 0x0, symName: __ZN5ImGui13FixupKeyChordEi, symObjAddr: 0x2CDBC, symBinAddr: 0x100049250, symSize: 0x54 }
  - { offsetInCU: 0x189FE, offset: 0x6C5D2, size: 0x8, addend: 0x0, symName: __ZN5ImGui10IsLRModKeyE8ImGuiKey, symObjAddr: 0x2CE10, symBinAddr: 0x1000492A4, symSize: 0x48 }
  - { offsetInCU: 0x18A2C, offset: 0x6C600, size: 0x8, addend: 0x0, symName: __ZN5ImGui25ConvertSingleModFlagToKeyE8ImGuiKey, symObjAddr: 0x2CF44, symBinAddr: 0x1000493D8, symSize: 0xA0 }
  - { offsetInCU: 0x18A5A, offset: 0x6C62E, size: 0x8, addend: 0x0, symName: __ZN5ImGui10GetKeyNameE8ImGuiKey, symObjAddr: 0x2CFE4, symBinAddr: 0x100049478, symSize: 0xF8 }
  - { offsetInCU: 0x18A88, offset: 0x6C65C, size: 0x8, addend: 0x0, symName: __ZN5ImGui25CalcTypematicRepeatAmountEffff, symObjAddr: 0x2D0DC, symBinAddr: 0x100049570, symSize: 0x170 }
  - { offsetInCU: 0x18B10, offset: 0x6C6E4, size: 0x8, addend: 0x0, symName: __ZN5ImGui22GetTypematicRepeatRateEiPfS0_, symObjAddr: 0x2D24C, symBinAddr: 0x1000496E0, symSize: 0x124 }
  - { offsetInCU: 0x18B68, offset: 0x6C73C, size: 0x8, addend: 0x0, symName: __ZN5ImGui19GetKeyPressedAmountE8ImGuiKeyff, symObjAddr: 0x2D370, symBinAddr: 0x100049804, symSize: 0x8C }
  - { offsetInCU: 0x18BE1, offset: 0x6C7B5, size: 0x8, addend: 0x0, symName: __ZN5ImGui10GetKeyDataE8ImGuiKey, symObjAddr: 0x2D3FC, symBinAddr: 0x100049890, symSize: 0x34 }
  - { offsetInCU: 0x18C1E, offset: 0x6C7F2, size: 0x8, addend: 0x0, symName: __ZN5ImGui17GetKeyMagnitude2dE8ImGuiKeyS0_S0_S0_, symObjAddr: 0x2D430, symBinAddr: 0x1000498C4, symSize: 0x88 }
  - { offsetInCU: 0x18C79, offset: 0x6C84D, size: 0x8, addend: 0x0, symName: __ZN5ImGui22GetShortcutRoutingDataEi, symObjAddr: 0x2D4B8, symBinAddr: 0x10004994C, symSize: 0x1BC }
  - { offsetInCU: 0x18D1E, offset: 0x6C8F2, size: 0x8, addend: 0x0, symName: __ZN5ImGui18SetShortcutRoutingEiij, symObjAddr: 0x2D7C4, symBinAddr: 0x100049C58, symSize: 0x55C }
  - { offsetInCU: 0x18DC3, offset: 0x6C997, size: 0x8, addend: 0x0, symName: __ZN5ImGui19TestShortcutRoutingEij, symObjAddr: 0x2E04C, symBinAddr: 0x10004A4E0, symSize: 0x5C }
  - { offsetInCU: 0x18E1E, offset: 0x6C9F2, size: 0x8, addend: 0x0, symName: __ZN5ImGui9IsKeyDownE8ImGuiKey, symObjAddr: 0x2E10C, symBinAddr: 0x10004A5A0, symSize: 0x2C }
  - { offsetInCU: 0x18E4C, offset: 0x6CA20, size: 0x8, addend: 0x0, symName: __ZN5ImGui9IsKeyDownE8ImGuiKeyj, symObjAddr: 0x2E138, symBinAddr: 0x10004A5CC, symSize: 0x94 }
  - { offsetInCU: 0x18E98, offset: 0x6CA6C, size: 0x8, addend: 0x0, symName: __ZN5ImGui12TestKeyOwnerE8ImGuiKeyj, symObjAddr: 0x2E1CC, symBinAddr: 0x10004A660, symSize: 0x1A8 }
  - { offsetInCU: 0x18EF3, offset: 0x6CAC7, size: 0x8, addend: 0x0, symName: __ZN5ImGui12IsKeyPressedE8ImGuiKeyb, symObjAddr: 0x2E374, symBinAddr: 0x10004A808, symSize: 0x48 }
  - { offsetInCU: 0x18F30, offset: 0x6CB04, size: 0x8, addend: 0x0, symName: __ZN5ImGui12IsKeyPressedE8ImGuiKeyij, symObjAddr: 0x2E3BC, symBinAddr: 0x10004A850, symSize: 0x2E4 }
  - { offsetInCU: 0x19001, offset: 0x6CBD5, size: 0x8, addend: 0x0, symName: __ZN5ImGui13IsKeyReleasedE8ImGuiKey, symObjAddr: 0x2E6A0, symBinAddr: 0x10004AB34, symSize: 0x2C }
  - { offsetInCU: 0x1902F, offset: 0x6CC03, size: 0x8, addend: 0x0, symName: __ZN5ImGui13IsKeyReleasedE8ImGuiKeyj, symObjAddr: 0x2E6CC, symBinAddr: 0x10004AB60, symSize: 0xAC }
  - { offsetInCU: 0x1907B, offset: 0x6CC4F, size: 0x8, addend: 0x0, symName: __ZN5ImGui16MouseButtonToKeyEi, symObjAddr: 0x2E778, symBinAddr: 0x10004AC0C, symSize: 0x84 }
  - { offsetInCU: 0x190A9, offset: 0x6CC7D, size: 0x8, addend: 0x0, symName: __ZN5ImGui11IsMouseDownEij, symObjAddr: 0x2E7FC, symBinAddr: 0x10004AC90, symSize: 0xD0 }
  - { offsetInCU: 0x190F5, offset: 0x6CCC9, size: 0x8, addend: 0x0, symName: __ZN5ImGui14IsMouseClickedEiij, symObjAddr: 0x2E8CC, symBinAddr: 0x10004AD60, symSize: 0x260 }
  - { offsetInCU: 0x1917D, offset: 0x6CD51, size: 0x8, addend: 0x0, symName: __ZN5ImGui15IsMouseReleasedEi, symObjAddr: 0x2EB2C, symBinAddr: 0x10004AFC0, symSize: 0xCC }
  - { offsetInCU: 0x191BA, offset: 0x6CD8E, size: 0x8, addend: 0x0, symName: __ZN5ImGui15IsMouseReleasedEij, symObjAddr: 0x2EBF8, symBinAddr: 0x10004B08C, symSize: 0xD0 }
  - { offsetInCU: 0x19206, offset: 0x6CDDA, size: 0x8, addend: 0x0, symName: __ZN5ImGui24IsMouseReleasedWithDelayEif, symObjAddr: 0x2ECC8, symBinAddr: 0x10004B15C, symSize: 0x114 }
  - { offsetInCU: 0x19261, offset: 0x6CE35, size: 0x8, addend: 0x0, symName: __ZN5ImGui20IsMouseDoubleClickedEi, symObjAddr: 0x2EDDC, symBinAddr: 0x10004B270, symSize: 0xD0 }
  - { offsetInCU: 0x1929E, offset: 0x6CE72, size: 0x8, addend: 0x0, symName: __ZN5ImGui20IsMouseDoubleClickedEij, symObjAddr: 0x2EEAC, symBinAddr: 0x10004B340, symSize: 0xD4 }
  - { offsetInCU: 0x192EA, offset: 0x6CEBE, size: 0x8, addend: 0x0, symName: __ZN5ImGui20GetMouseClickedCountEi, symObjAddr: 0x2EF80, symBinAddr: 0x10004B414, symSize: 0x98 }
  - { offsetInCU: 0x19327, offset: 0x6CEFB, size: 0x8, addend: 0x0, symName: __ZN5ImGui24IsMouseDragPastThresholdEif, symObjAddr: 0x2F018, symBinAddr: 0x10004B4AC, symSize: 0xD8 }
  - { offsetInCU: 0x19373, offset: 0x6CF47, size: 0x8, addend: 0x0, symName: __ZN5ImGui15IsMouseDraggingEif, symObjAddr: 0x2F0F0, symBinAddr: 0x10004B584, symSize: 0xE0 }
  - { offsetInCU: 0x193BF, offset: 0x6CF93, size: 0x8, addend: 0x0, symName: __ZN5ImGui11GetMousePosEv, symObjAddr: 0x2F1D0, symBinAddr: 0x10004B664, symSize: 0x2C }
  - { offsetInCU: 0x193ED, offset: 0x6CFC1, size: 0x8, addend: 0x0, symName: __ZN5ImGui16TeleportMousePosERK6ImVec2, symObjAddr: 0x2F1FC, symBinAddr: 0x10004B690, symSize: 0x6C }
  - { offsetInCU: 0x19426, offset: 0x6CFFA, size: 0x8, addend: 0x0, symName: __ZN5ImGui32GetMousePosOnOpeningCurrentPopupEv, symObjAddr: 0x2F268, symBinAddr: 0x10004B6FC, symSize: 0x7C }
  - { offsetInCU: 0x19454, offset: 0x6D028, size: 0x8, addend: 0x0, symName: __ZN5ImGui14IsAnyMouseDownEv, symObjAddr: 0x2F2E4, symBinAddr: 0x10004B778, symSize: 0x94 }
  - { offsetInCU: 0x1949F, offset: 0x6D073, size: 0x8, addend: 0x0, symName: __ZN5ImGui17GetMouseDragDeltaEif, symObjAddr: 0x2F378, symBinAddr: 0x10004B80C, symSize: 0x190 }
  - { offsetInCU: 0x194EB, offset: 0x6D0BF, size: 0x8, addend: 0x0, symName: __ZN5ImGui19ResetMouseDragDeltaEi, symObjAddr: 0x2F508, symBinAddr: 0x10004B99C, symSize: 0xA0 }
  - { offsetInCU: 0x19524, offset: 0x6D0F8, size: 0x8, addend: 0x0, symName: __ZN5ImGui14GetMouseCursorEv, symObjAddr: 0x2F5A8, symBinAddr: 0x10004BA3C, symSize: 0x20 }
  - { offsetInCU: 0x19552, offset: 0x6D126, size: 0x8, addend: 0x0, symName: __ZN5ImGui14SetMouseCursorEi, symObjAddr: 0x2F5C8, symBinAddr: 0x10004BA5C, symSize: 0x28 }
  - { offsetInCU: 0x1958C, offset: 0x6D160, size: 0x8, addend: 0x0, symName: __ZN5ImGui31SetNextFrameWantCaptureKeyboardEb, symObjAddr: 0x2F5F0, symBinAddr: 0x10004BA84, symSize: 0x40 }
  - { offsetInCU: 0x195C6, offset: 0x6D19A, size: 0x8, addend: 0x0, symName: __ZN5ImGui28SetNextFrameWantCaptureMouseEb, symObjAddr: 0x2F630, symBinAddr: 0x10004BAC4, symSize: 0x40 }
  - { offsetInCU: 0x19600, offset: 0x6D1D4, size: 0x8, addend: 0x0, symName: __ZN5ImGui15GetKeyOwnerDataEP12ImGuiContext8ImGuiKey, symObjAddr: 0x2FF94, symBinAddr: 0x10004C428, symSize: 0x94 }
  - { offsetInCU: 0x1963D, offset: 0x6D211, size: 0x8, addend: 0x0, symName: __ZN5ImGui11SetKeyOwnerE8ImGuiKeyji, symObjAddr: 0x30028, symBinAddr: 0x10004C4BC, symSize: 0x16C }
  - { offsetInCU: 0x196A3, offset: 0x6D277, size: 0x8, addend: 0x0, symName: __ZN5ImGui23SetKeyOwnersForKeyChordEiji, symObjAddr: 0x30194, symBinAddr: 0x10004C628, symSize: 0xF4 }
  - { offsetInCU: 0x196EB, offset: 0x6D2BF, size: 0x8, addend: 0x0, symName: __ZN5ImGui15SetItemKeyOwnerE8ImGuiKeyi, symObjAddr: 0x30288, symBinAddr: 0x10004C71C, symSize: 0x160 }
  - { offsetInCU: 0x19742, offset: 0x6D316, size: 0x8, addend: 0x0, symName: __ZN5ImGui15SetItemKeyOwnerE8ImGuiKey, symObjAddr: 0x303E8, symBinAddr: 0x10004C87C, symSize: 0x28 }
  - { offsetInCU: 0x1976C, offset: 0x6D340, size: 0x8, addend: 0x0, symName: __ZN5ImGui17IsKeyChordPressedEi, symObjAddr: 0x30410, symBinAddr: 0x10004C8A4, symSize: 0x30 }
  - { offsetInCU: 0x1979A, offset: 0x6D36E, size: 0x8, addend: 0x0, symName: __ZN5ImGui17IsKeyChordPressedEiij, symObjAddr: 0x30440, symBinAddr: 0x10004C8D4, symSize: 0xF0 }
  - { offsetInCU: 0x19813, offset: 0x6D3E7, size: 0x8, addend: 0x0, symName: __ZN5ImGui19SetNextItemShortcutEii, symObjAddr: 0x30530, symBinAddr: 0x10004C9C4, symSize: 0x48 }
  - { offsetInCU: 0x1985C, offset: 0x6D430, size: 0x8, addend: 0x0, symName: __ZN5ImGui8ShortcutEiij, symObjAddr: 0x30578, symBinAddr: 0x10004CA0C, symSize: 0x1B8 }
  - { offsetInCU: 0x198B7, offset: 0x6D48B, size: 0x8, addend: 0x0, symName: __ZN5ImGui30DebugCheckVersionAndDataLayoutEPKcmmmmmm, symObjAddr: 0x30730, symBinAddr: 0x10004CBC4, symSize: 0x3A4 }
  - { offsetInCU: 0x1994E, offset: 0x6D522, size: 0x8, addend: 0x0, symName: __ZN5ImGui8EndGroupEv, symObjAddr: 0x30AD4, symBinAddr: 0x10004CF68, symSize: 0x4B4 }
  - { offsetInCU: 0x199D2, offset: 0x6D5A6, size: 0x8, addend: 0x0, symName: __ZN5ImGui17BeginErrorTooltipEv, symObjAddr: 0x30F88, symBinAddr: 0x10004D41C, symSize: 0x1DC }
  - { offsetInCU: 0x19A2D, offset: 0x6D601, size: 0x8, addend: 0x0, symName: __ZN5ImGui21GetForegroundDrawListEP11ImGuiWindow, symObjAddr: 0x31164, symBinAddr: 0x10004D5F8, symSize: 0x20 }
  - { offsetInCU: 0x19A5B, offset: 0x6D62F, size: 0x8, addend: 0x0, symName: __ZN5ImGui15EndErrorTooltipEv, symObjAddr: 0x31184, symBinAddr: 0x10004D618, symSize: 0x14 }
  - { offsetInCU: 0x19A76, offset: 0x6D64A, size: 0x8, addend: 0x0, symName: __ZN5ImGui8SameLineEff, symObjAddr: 0x31198, symBinAddr: 0x10004D62C, symSize: 0x14C }
  - { offsetInCU: 0x19ACE, offset: 0x6D6A2, size: 0x8, addend: 0x0, symName: __ZN5ImGui20DebugStartItemPickerEv, symObjAddr: 0x312E4, symBinAddr: 0x10004D778, symSize: 0x2C }
  - { offsetInCU: 0x19AF9, offset: 0x6D6CD, size: 0x8, addend: 0x0, symName: __ZN5ImGui25BringWindowToDisplayFrontEP11ImGuiWindow, symObjAddr: 0x313DC, symBinAddr: 0x10004D870, symSize: 0x170 }
  - { offsetInCU: 0x19B5E, offset: 0x6D732, size: 0x8, addend: 0x0, symName: __ZN5ImGui23BringWindowToFocusFrontEP11ImGuiWindow, symObjAddr: 0x3154C, symBinAddr: 0x10004D9E0, symSize: 0x228 }
  - { offsetInCU: 0x19BD2, offset: 0x6D7A6, size: 0x8, addend: 0x0, symName: __ZN5ImGuiL14NavProcessItemEv, symObjAddr: 0x31774, symBinAddr: 0x10004DC08, symSize: 0x4CC }
  - { offsetInCU: 0x19C9F, offset: 0x6D873, size: 0x8, addend: 0x0, symName: __ZN5ImGuiL18ItemHandleShortcutEj, symObjAddr: 0x31C40, symBinAddr: 0x10004E0D4, symSize: 0x144 }
  - { offsetInCU: 0x19CE8, offset: 0x6D8BC, size: 0x8, addend: 0x0, symName: __ZN5ImGui18GetCursorScreenPosEv, symObjAddr: 0x31D84, symBinAddr: 0x10004E218, symSize: 0x34 }
  - { offsetInCU: 0x19D16, offset: 0x6D8EA, size: 0x8, addend: 0x0, symName: __ZN5ImGui18SetCursorScreenPosERK6ImVec2, symObjAddr: 0x31DB8, symBinAddr: 0x10004E24C, symSize: 0x40 }
  - { offsetInCU: 0x19D4F, offset: 0x6D923, size: 0x8, addend: 0x0, symName: __ZN5ImGui12GetCursorPosEv, symObjAddr: 0x31DF8, symBinAddr: 0x10004E28C, symSize: 0x5C }
  - { offsetInCU: 0x19D7D, offset: 0x6D951, size: 0x8, addend: 0x0, symName: __ZN5ImGui13GetCursorPosXEv, symObjAddr: 0x31E54, symBinAddr: 0x10004E2E8, symSize: 0x40 }
  - { offsetInCU: 0x19DAB, offset: 0x6D97F, size: 0x8, addend: 0x0, symName: __ZN5ImGui13GetCursorPosYEv, symObjAddr: 0x31E94, symBinAddr: 0x10004E328, symSize: 0x40 }
  - { offsetInCU: 0x19DD9, offset: 0x6D9AD, size: 0x8, addend: 0x0, symName: __ZN5ImGui12SetCursorPosERK6ImVec2, symObjAddr: 0x31ED4, symBinAddr: 0x10004E368, symSize: 0x6C }
  - { offsetInCU: 0x19E12, offset: 0x6D9E6, size: 0x8, addend: 0x0, symName: __ZN5ImGui13SetCursorPosXEf, symObjAddr: 0x31F40, symBinAddr: 0x10004E3D4, symSize: 0x54 }
  - { offsetInCU: 0x19E4B, offset: 0x6DA1F, size: 0x8, addend: 0x0, symName: __ZN5ImGui13SetCursorPosYEf, symObjAddr: 0x31F94, symBinAddr: 0x10004E428, symSize: 0x54 }
  - { offsetInCU: 0x19E84, offset: 0x6DA58, size: 0x8, addend: 0x0, symName: __ZN5ImGui17GetCursorStartPosEv, symObjAddr: 0x31FE8, symBinAddr: 0x10004E47C, symSize: 0x44 }
  - { offsetInCU: 0x19EB2, offset: 0x6DA86, size: 0x8, addend: 0x0, symName: __ZN5ImGui6IndentEf, symObjAddr: 0x3202C, symBinAddr: 0x10004E4C0, symSize: 0x9C }
  - { offsetInCU: 0x19EFA, offset: 0x6DACE, size: 0x8, addend: 0x0, symName: __ZN5ImGui8UnindentEf, symObjAddr: 0x320C8, symBinAddr: 0x10004E55C, symSize: 0x9C }
  - { offsetInCU: 0x19F42, offset: 0x6DB16, size: 0x8, addend: 0x0, symName: __ZN5ImGui13PushItemWidthEf, symObjAddr: 0x32164, symBinAddr: 0x10004E5F8, symSize: 0x94 }
  - { offsetInCU: 0x19F8A, offset: 0x6DB5E, size: 0x8, addend: 0x0, symName: __ZN5ImGui20PushMultiItemsWidthsEif, symObjAddr: 0x321F8, symBinAddr: 0x10004E68C, symSize: 0x174 }
  - { offsetInCU: 0x1A048, offset: 0x6DC1C, size: 0x8, addend: 0x0, symName: __ZN5ImGui12PopItemWidthEv, symObjAddr: 0x3236C, symBinAddr: 0x10004E800, symSize: 0xB0 }
  - { offsetInCU: 0x1A081, offset: 0x6DC55, size: 0x8, addend: 0x0, symName: __ZN5ImGui13CalcItemWidthEv, symObjAddr: 0x3241C, symBinAddr: 0x10004E8B0, symSize: 0xC0 }
  - { offsetInCU: 0x1A0EA, offset: 0x6DCBE, size: 0x8, addend: 0x0, symName: __ZN5ImGui17GetTextLineHeightEv, symObjAddr: 0x324DC, symBinAddr: 0x10004E970, symSize: 0x20 }
  - { offsetInCU: 0x1A118, offset: 0x6DCEC, size: 0x8, addend: 0x0, symName: __ZN5ImGui28GetTextLineHeightWithSpacingEv, symObjAddr: 0x324FC, symBinAddr: 0x10004E990, symSize: 0x2C }
  - { offsetInCU: 0x1A146, offset: 0x6DD1A, size: 0x8, addend: 0x0, symName: __ZN5ImGui14GetFrameHeightEv, symObjAddr: 0x32528, symBinAddr: 0x10004E9BC, symSize: 0x30 }
  - { offsetInCU: 0x1A174, offset: 0x6DD48, size: 0x8, addend: 0x0, symName: __ZN5ImGui25GetFrameHeightWithSpacingEv, symObjAddr: 0x32558, symBinAddr: 0x10004E9EC, symSize: 0x3C }
  - { offsetInCU: 0x1A1A2, offset: 0x6DD76, size: 0x8, addend: 0x0, symName: __ZN5ImGui19GetContentRegionMaxEv, symObjAddr: 0x32594, symBinAddr: 0x10004EA28, symSize: 0x7C }
  - { offsetInCU: 0x1A1C1, offset: 0x6DD95, size: 0x8, addend: 0x0, symName: __ZN5ImGui25GetWindowContentRegionMinEv, symObjAddr: 0x32610, symBinAddr: 0x10004EAA4, symSize: 0x4C }
  - { offsetInCU: 0x1A1EF, offset: 0x6DDC3, size: 0x8, addend: 0x0, symName: __ZN5ImGui25GetWindowContentRegionMaxEv, symObjAddr: 0x3265C, symBinAddr: 0x10004EAF0, symSize: 0x4C }
  - { offsetInCU: 0x1A21D, offset: 0x6DDF1, size: 0x8, addend: 0x0, symName: __ZN5ImGui10BeginGroupEv, symObjAddr: 0x326A8, symBinAddr: 0x10004EB3C, symSize: 0x1E8 }
  - { offsetInCU: 0x1A265, offset: 0x6DE39, size: 0x8, addend: 0x0, symName: __ZN5ImGui12ScrollToItemEi, symObjAddr: 0x32970, symBinAddr: 0x10004EE04, symSize: 0x54 }
  - { offsetInCU: 0x1A2AD, offset: 0x6DE81, size: 0x8, addend: 0x0, symName: __ZN5ImGui12ScrollToRectEP11ImGuiWindowRK6ImRecti, symObjAddr: 0x329C4, symBinAddr: 0x10004EE58, symSize: 0x3C }
  - { offsetInCU: 0x1A2F5, offset: 0x6DEC9, size: 0x8, addend: 0x0, symName: __ZN5ImGui17SetScrollFromPosXEP11ImGuiWindowff, symObjAddr: 0x32A00, symBinAddr: 0x10004EE94, symSize: 0xD8 }
  - { offsetInCU: 0x1A33D, offset: 0x6DF11, size: 0x8, addend: 0x0, symName: __ZN5ImGui17SetScrollFromPosYEP11ImGuiWindowff, symObjAddr: 0x32AD8, symBinAddr: 0x10004EF6C, symSize: 0xD8 }
  - { offsetInCU: 0x1A385, offset: 0x6DF59, size: 0x8, addend: 0x0, symName: __ZN5ImGui10GetScrollXEv, symObjAddr: 0x32BB0, symBinAddr: 0x10004F044, symSize: 0x24 }
  - { offsetInCU: 0x1A3B3, offset: 0x6DF87, size: 0x8, addend: 0x0, symName: __ZN5ImGui10GetScrollYEv, symObjAddr: 0x32BD4, symBinAddr: 0x10004F068, symSize: 0x24 }
  - { offsetInCU: 0x1A3E1, offset: 0x6DFB5, size: 0x8, addend: 0x0, symName: __ZN5ImGui13GetScrollMaxXEv, symObjAddr: 0x32BF8, symBinAddr: 0x10004F08C, symSize: 0x24 }
  - { offsetInCU: 0x1A40F, offset: 0x6DFE3, size: 0x8, addend: 0x0, symName: __ZN5ImGui13GetScrollMaxYEv, symObjAddr: 0x32C1C, symBinAddr: 0x10004F0B0, symSize: 0x24 }
  - { offsetInCU: 0x1A43D, offset: 0x6E011, size: 0x8, addend: 0x0, symName: __ZN5ImGui10SetScrollXEP11ImGuiWindowf, symObjAddr: 0x32C40, symBinAddr: 0x10004F0D4, symSize: 0x34 }
  - { offsetInCU: 0x1A477, offset: 0x6E04B, size: 0x8, addend: 0x0, symName: __ZN5ImGui10SetScrollYEP11ImGuiWindowf, symObjAddr: 0x32C74, symBinAddr: 0x10004F108, symSize: 0x34 }
  - { offsetInCU: 0x1A4B1, offset: 0x6E085, size: 0x8, addend: 0x0, symName: __ZN5ImGui10SetScrollXEf, symObjAddr: 0x32CA8, symBinAddr: 0x10004F13C, symSize: 0x38 }
  - { offsetInCU: 0x1A4EA, offset: 0x6E0BE, size: 0x8, addend: 0x0, symName: __ZN5ImGui10SetScrollYEf, symObjAddr: 0x32CE0, symBinAddr: 0x10004F174, symSize: 0x38 }
  - { offsetInCU: 0x1A523, offset: 0x6E0F7, size: 0x8, addend: 0x0, symName: __ZN5ImGui17SetScrollFromPosXEff, symObjAddr: 0x32D18, symBinAddr: 0x10004F1AC, symSize: 0x40 }
  - { offsetInCU: 0x1A56B, offset: 0x6E13F, size: 0x8, addend: 0x0, symName: __ZN5ImGui17SetScrollFromPosYEff, symObjAddr: 0x32D58, symBinAddr: 0x10004F1EC, symSize: 0x40 }
  - { offsetInCU: 0x1A5B3, offset: 0x6E187, size: 0x8, addend: 0x0, symName: __ZN5ImGui14SetScrollHereXEf, symObjAddr: 0x32D98, symBinAddr: 0x10004F22C, symSize: 0xB4 }
  - { offsetInCU: 0x1A619, offset: 0x6E1ED, size: 0x8, addend: 0x0, symName: __ZN5ImGui14SetScrollHereYEf, symObjAddr: 0x32E7C, symBinAddr: 0x10004F310, symSize: 0xC0 }
  - { offsetInCU: 0x1A67F, offset: 0x6E253, size: 0x8, addend: 0x0, symName: __ZN5ImGui12BeginTooltipEv, symObjAddr: 0x32F3C, symBinAddr: 0x10004F3D0, symSize: 0x20 }
  - { offsetInCU: 0x1A69E, offset: 0x6E272, size: 0x8, addend: 0x0, symName: __ZN5ImGui14BeginTooltipExEii, symObjAddr: 0x32F5C, symBinAddr: 0x10004F3F0, symSize: 0x2E8 }
  - { offsetInCU: 0x1A770, offset: 0x6E344, size: 0x8, addend: 0x0, symName: __ZN5ImGui16BeginItemTooltipEv, symObjAddr: 0x33244, symBinAddr: 0x10004F6D8, symSize: 0x60 }
  - { offsetInCU: 0x1A78F, offset: 0x6E363, size: 0x8, addend: 0x0, symName: __ZN5ImGui10EndTooltipEv, symObjAddr: 0x332A4, symBinAddr: 0x10004F738, symSize: 0x50 }
  - { offsetInCU: 0x1A7AA, offset: 0x6E37E, size: 0x8, addend: 0x0, symName: __ZN5ImGui11SetTooltipVEPKcPc, symObjAddr: 0x332F4, symBinAddr: 0x10004F788, symSize: 0x4C }
  - { offsetInCU: 0x1A7E3, offset: 0x6E3B7, size: 0x8, addend: 0x0, symName: __ZN5ImGui14SetItemTooltipEPKcz, symObjAddr: 0x33340, symBinAddr: 0x10004F7D4, symSize: 0x48 }
  - { offsetInCU: 0x1A81E, offset: 0x6E3F2, size: 0x8, addend: 0x0, symName: __ZN5ImGui15SetItemTooltipVEPKcPc, symObjAddr: 0x33388, symBinAddr: 0x10004F81C, symSize: 0x40 }
  - { offsetInCU: 0x1A857, offset: 0x6E42B, size: 0x8, addend: 0x0, symName: __ZN5ImGui11IsPopupOpenEPKci, symObjAddr: 0x333C8, symBinAddr: 0x10004F85C, symSize: 0xC8 }
  - { offsetInCU: 0x1A8B2, offset: 0x6E486, size: 0x8, addend: 0x0, symName: __ZN5ImGui30GetTopMostAndVisiblePopupModalEv, symObjAddr: 0x33490, symBinAddr: 0x10004F924, symSize: 0xD8 }
  - { offsetInCU: 0x1A912, offset: 0x6E4E6, size: 0x8, addend: 0x0, symName: __ZN5ImGui17FindBlockingModalEP11ImGuiWindow, symObjAddr: 0x33568, symBinAddr: 0x10004F9FC, symSize: 0x154 }
  - { offsetInCU: 0x1A9BE, offset: 0x6E592, size: 0x8, addend: 0x0, symName: __ZN5ImGui9OpenPopupEPKci, symObjAddr: 0x336FC, symBinAddr: 0x10004FB90, symSize: 0x98 }
  - { offsetInCU: 0x1AA15, offset: 0x6E5E9, size: 0x8, addend: 0x0, symName: __ZN5ImGui11OpenPopupExEji, symObjAddr: 0x33794, symBinAddr: 0x10004FC28, symSize: 0x274 }
  - { offsetInCU: 0x1AAA7, offset: 0x6E67B, size: 0x8, addend: 0x0, symName: __ZN5ImGui9OpenPopupEji, symObjAddr: 0x33A08, symBinAddr: 0x10004FE9C, symSize: 0x2C }
  - { offsetInCU: 0x1AAE0, offset: 0x6E6B4, size: 0x8, addend: 0x0, symName: __ZN5ImGuiL22NavCalcPreferredRefPosEv, symObjAddr: 0x33A60, symBinAddr: 0x10004FEF4, symSize: 0x300 }
  - { offsetInCU: 0x1ABB4, offset: 0x6E788, size: 0x8, addend: 0x0, symName: __ZN5ImGui17ClosePopupToLevelEib, symObjAddr: 0x33D60, symBinAddr: 0x1000501F4, symSize: 0x30C }
  - { offsetInCU: 0x1AC57, offset: 0x6E82B, size: 0x8, addend: 0x0, symName: __ZN5ImGui23ClosePopupsExceptModalsEv, symObjAddr: 0x3406C, symBinAddr: 0x100050500, symSize: 0xDC }
  - { offsetInCU: 0x1ACAD, offset: 0x6E881, size: 0x8, addend: 0x0, symName: __ZN5ImGui17CloseCurrentPopupEv, symObjAddr: 0x34148, symBinAddr: 0x1000505DC, symSize: 0x228 }
  - { offsetInCU: 0x1AD36, offset: 0x6E90A, size: 0x8, addend: 0x0, symName: __ZN5ImGui12BeginPopupExEji, symObjAddr: 0x34370, symBinAddr: 0x100050804, symSize: 0x150 }
  - { offsetInCU: 0x1ADA0, offset: 0x6E974, size: 0x8, addend: 0x0, symName: __ZN5ImGui8EndPopupEv, symObjAddr: 0x344C0, symBinAddr: 0x100050954, symSize: 0x11C }
  - { offsetInCU: 0x1ADE8, offset: 0x6E9BC, size: 0x8, addend: 0x0, symName: __ZN5ImGui16BeginPopupMenuExEjPKci, symObjAddr: 0x345DC, symBinAddr: 0x100050A70, symSize: 0x160 }
  - { offsetInCU: 0x1AE63, offset: 0x6EA37, size: 0x8, addend: 0x0, symName: __ZN5ImGui10BeginPopupEPKci, symObjAddr: 0x3473C, symBinAddr: 0x100050BD0, symSize: 0xBC }
  - { offsetInCU: 0x1AEBE, offset: 0x6EA92, size: 0x8, addend: 0x0, symName: __ZN5ImGui15BeginPopupModalEPKcPbi, symObjAddr: 0x347F8, symBinAddr: 0x100050C8C, symSize: 0x1D0 }
  - { offsetInCU: 0x1AF63, offset: 0x6EB37, size: 0x8, addend: 0x0, symName: __ZN5ImGui25NavMoveRequestTryWrappingEP11ImGuiWindowi, symObjAddr: 0x34A14, symBinAddr: 0x100050EA8, symSize: 0xFC }
  - { offsetInCU: 0x1AFAB, offset: 0x6EB7F, size: 0x8, addend: 0x0, symName: __ZN5ImGui20OpenPopupOnItemClickEPKci, symObjAddr: 0x34B10, symBinAddr: 0x100050FA4, symSize: 0xF0 }
  - { offsetInCU: 0x1B02E, offset: 0x6EC02, size: 0x8, addend: 0x0, symName: __ZN5ImGui21BeginPopupContextItemEPKci, symObjAddr: 0x34C00, symBinAddr: 0x100051094, symSize: 0x138 }
  - { offsetInCU: 0x1B0A7, offset: 0x6EC7B, size: 0x8, addend: 0x0, symName: __ZN5ImGui23BeginPopupContextWindowEPKci, symObjAddr: 0x34D38, symBinAddr: 0x1000511CC, symSize: 0xE0 }
  - { offsetInCU: 0x1B120, offset: 0x6ECF4, size: 0x8, addend: 0x0, symName: __ZN5ImGui21BeginPopupContextVoidEPKci, symObjAddr: 0x34E18, symBinAddr: 0x1000512AC, symSize: 0xD4 }
  - { offsetInCU: 0x1B199, offset: 0x6ED6D, size: 0x8, addend: 0x0, symName: __ZN5ImGui27FindBestWindowPosForPopupExERK6ImVec2S2_P8ImGuiDirRK6ImRectS7_24ImGuiPopupPositionPolicy, symObjAddr: 0x34EEC, symBinAddr: 0x100051380, symSize: 0x7FC }
  - { offsetInCU: 0x1B32A, offset: 0x6EEFE, size: 0x8, addend: 0x0, symName: __ZN5ImGui25GetPopupAllowedExtentRectEP11ImGuiWindow, symObjAddr: 0x35824, symBinAddr: 0x100051CB8, symSize: 0x108 }
  - { offsetInCU: 0x1B385, offset: 0x6EF59, size: 0x8, addend: 0x0, symName: __ZN5ImGuiL28NavCalcPreferredRefPosSourceEv, symObjAddr: 0x359D4, symBinAddr: 0x100051E68, symSize: 0x100 }
  - { offsetInCU: 0x1B3D2, offset: 0x6EFA6, size: 0x8, addend: 0x0, symName: __ZN5ImGui14SetWindowFocusEv, symObjAddr: 0x35AD4, symBinAddr: 0x100051F68, symSize: 0x24 }
  - { offsetInCU: 0x1B3ED, offset: 0x6EFC1, size: 0x8, addend: 0x0, symName: __ZN5ImGui14SetWindowFocusEPKc, symObjAddr: 0x35AF8, symBinAddr: 0x100051F8C, symSize: 0x74 }
  - { offsetInCU: 0x1B42C, offset: 0x6F000, size: 0x8, addend: 0x0, symName: __ZN5ImGui18SetNextWindowFocusEv, symObjAddr: 0x35B6C, symBinAddr: 0x100052000, symSize: 0x28 }
  - { offsetInCU: 0x1B457, offset: 0x6F02B, size: 0x8, addend: 0x0, symName: __ZN5ImGui15IsWindowFocusedEi, symObjAddr: 0x35B94, symBinAddr: 0x100052028, symSize: 0x16C }
  - { offsetInCU: 0x1B4C1, offset: 0x6F095, size: 0x8, addend: 0x0, symName: __ZN5ImGui24BringWindowToDisplayBackEP11ImGuiWindow, symObjAddr: 0x35D70, symBinAddr: 0x100052204, symSize: 0x12C }
  - { offsetInCU: 0x1B517, offset: 0x6F0EB, size: 0x8, addend: 0x0, symName: __ZN5ImGui26BringWindowToDisplayBehindEP11ImGuiWindowS1_, symObjAddr: 0x35E9C, symBinAddr: 0x100052330, symSize: 0x1CC }
  - { offsetInCU: 0x1B5B7, offset: 0x6F18B, size: 0x8, addend: 0x0, symName: __ZN5ImGuiL28NavRestoreLastChildNavWindowEP11ImGuiWindow, symObjAddr: 0x361B0, symBinAddr: 0x100052644, symSize: 0x5C }
  - { offsetInCU: 0x1B5E6, offset: 0x6F1BA, size: 0x8, addend: 0x0, symName: __ZN5ImGuiL20FindWindowFocusIndexEP11ImGuiWindow, symObjAddr: 0x3620C, symBinAddr: 0x1000526A0, symSize: 0xC8 }
  - { offsetInCU: 0x1B633, offset: 0x6F207, size: 0x8, addend: 0x0, symName: __ZN5ImGui19SetNavCursorVisibleEb, symObjAddr: 0x362D4, symBinAddr: 0x100052768, symSize: 0x54 }
  - { offsetInCU: 0x1B66D, offset: 0x6F241, size: 0x8, addend: 0x0, symName: __ZN5ImGui28SetNavCursorVisibleAfterMoveEv, symObjAddr: 0x36328, symBinAddr: 0x1000527BC, symSize: 0x64 }
  - { offsetInCU: 0x1B698, offset: 0x6F26C, size: 0x8, addend: 0x0, symName: __ZN5ImGui21NavHighlightActivatedEj, symObjAddr: 0x3638C, symBinAddr: 0x100052820, symSize: 0x3C }
  - { offsetInCU: 0x1B6D2, offset: 0x6F2A6, size: 0x8, addend: 0x0, symName: __ZN5ImGui27NavClearPreferredPosForAxisE9ImGuiAxis, symObjAddr: 0x363C8, symBinAddr: 0x10005285C, symSize: 0x58 }
  - { offsetInCU: 0x1B70B, offset: 0x6F2DF, size: 0x8, addend: 0x0, symName: __ZN5ImGui8SetNavIDEj13ImGuiNavLayerjRK6ImRect, symObjAddr: 0x364B4, symBinAddr: 0x100052948, symSize: 0x134 }
  - { offsetInCU: 0x1B771, offset: 0x6F345, size: 0x8, addend: 0x0, symName: __ZN5ImGui10SetFocusIDEjP11ImGuiWindow, symObjAddr: 0x365E8, symBinAddr: 0x100052A7C, symSize: 0x1A8 }
  - { offsetInCU: 0x1B7C8, offset: 0x6F39C, size: 0x8, addend: 0x0, symName: __ZN5ImGui39NavUpdateCurrentWindowIsScrollPushableXEv, symObjAddr: 0x36790, symBinAddr: 0x100052C24, symSize: 0x6C }
  - { offsetInCU: 0x1B802, offset: 0x6F3D6, size: 0x8, addend: 0x0, symName: __ZN5ImGui28NavMoveRequestButNoResultYetEv, symObjAddr: 0x367FC, symBinAddr: 0x100052C90, symSize: 0x78 }
  - { offsetInCU: 0x1B830, offset: 0x6F404, size: 0x8, addend: 0x0, symName: __ZN5ImGui37NavMoveRequestResolveWithPastTreeNodeEP16ImGuiNavItemDataP22ImGuiTreeNodeStackData, symObjAddr: 0x368B4, symBinAddr: 0x100052D48, symSize: 0x88 }
  - { offsetInCU: 0x1B878, offset: 0x6F44C, size: 0x8, addend: 0x0, symName: __ZN5ImGui21NavMoveRequestForwardE8ImGuiDirS0_ii, symObjAddr: 0x3693C, symBinAddr: 0x100052DD0, symSize: 0xC4 }
  - { offsetInCU: 0x1B8DE, offset: 0x6F4B2, size: 0x8, addend: 0x0, symName: __ZN5ImGui24GetNavTweakPressedAmountE9ImGuiAxis, symObjAddr: 0x36A00, symBinAddr: 0x100052E94, symSize: 0x164 }
  - { offsetInCU: 0x1B966, offset: 0x6F53A, size: 0x8, addend: 0x0, symName: __ZN5ImGui25NavInitRequestApplyResultEv, symObjAddr: 0x36B64, symBinAddr: 0x100052FF8, symSize: 0x1C4 }
  - { offsetInCU: 0x1B99F, offset: 0x6F573, size: 0x8, addend: 0x0, symName: __ZN5ImGui25NavMoveRequestApplyResultEv, symObjAddr: 0x36D28, symBinAddr: 0x1000531BC, symSize: 0x850 }
  - { offsetInCU: 0x1BA30, offset: 0x6F604, size: 0x8, addend: 0x0, symName: __ZN5ImGui18WindowRectRelToAbsEP11ImGuiWindowRK6ImRect, symObjAddr: 0x37578, symBinAddr: 0x100053A0C, symSize: 0x84 }
  - { offsetInCU: 0x1BA7C, offset: 0x6F650, size: 0x8, addend: 0x0, symName: __ZN5ImGui20IsWindowNavFocusableEP11ImGuiWindow, symObjAddr: 0x37650, symBinAddr: 0x100053AE4, symSize: 0x6C }
  - { offsetInCU: 0x1BAAA, offset: 0x6F67E, size: 0x8, addend: 0x0, symName: __ZN5ImGui16IsDragDropActiveEv, symObjAddr: 0x376BC, symBinAddr: 0x100053B50, symSize: 0x2C }
  - { offsetInCU: 0x1BAD8, offset: 0x6F6AC, size: 0x8, addend: 0x0, symName: __ZN5ImGui18BeginTooltipHiddenEv, symObjAddr: 0x37798, symBinAddr: 0x100053C2C, symSize: 0x5C }
  - { offsetInCU: 0x1BB15, offset: 0x6F6E9, size: 0x8, addend: 0x0, symName: __ZN5ImGui19BeginDragDropSourceEi, symObjAddr: 0x377F4, symBinAddr: 0x100053C88, symSize: 0x660 }
  - { offsetInCU: 0x1BBF4, offset: 0x6F7C8, size: 0x8, addend: 0x0, symName: __ZN5ImGui17EndDragDropSourceEv, symObjAddr: 0x37E54, symBinAddr: 0x1000542E8, symSize: 0x10C }
  - { offsetInCU: 0x1BC1E, offset: 0x6F7F2, size: 0x8, addend: 0x0, symName: __ZN5ImGui18SetDragDropPayloadEPKcPKvmi, symObjAddr: 0x37F60, symBinAddr: 0x1000543F4, symSize: 0x3A8 }
  - { offsetInCU: 0x1BC97, offset: 0x6F86B, size: 0x8, addend: 0x0, symName: __ZN5ImGui25BeginDragDropTargetCustomERK6ImRectj, symObjAddr: 0x38370, symBinAddr: 0x100054804, symSize: 0x244 }
  - { offsetInCU: 0x1BD01, offset: 0x6F8D5, size: 0x8, addend: 0x0, symName: __ZN5ImGui19BeginDragDropTargetEv, symObjAddr: 0x385B4, symBinAddr: 0x100054A48, symSize: 0x2B8 }
  - { offsetInCU: 0x1BD6B, offset: 0x6F93F, size: 0x8, addend: 0x0, symName: __ZN5ImGui30IsDragDropPayloadBeingAcceptedEv, symObjAddr: 0x3886C, symBinAddr: 0x100054D00, symSize: 0x58 }
  - { offsetInCU: 0x1BD99, offset: 0x6F96D, size: 0x8, addend: 0x0, symName: __ZN5ImGui21AcceptDragDropPayloadEPKci, symObjAddr: 0x388C4, symBinAddr: 0x100054D58, symSize: 0x350 }
  - { offsetInCU: 0x1BE21, offset: 0x6F9F5, size: 0x8, addend: 0x0, symName: __ZN5ImGui24RenderDragDropTargetRectERK6ImRectS2_, symObjAddr: 0x38C80, symBinAddr: 0x100055114, symSize: 0x100 }
  - { offsetInCU: 0x1BE96, offset: 0x6FA6A, size: 0x8, addend: 0x0, symName: __ZN5ImGui18GetDragDropPayloadEv, symObjAddr: 0x38DD8, symBinAddr: 0x10005526C, symSize: 0x6C }
  - { offsetInCU: 0x1BEC4, offset: 0x6FA98, size: 0x8, addend: 0x0, symName: __ZN5ImGui17EndDragDropTargetEv, symObjAddr: 0x38E44, symBinAddr: 0x1000552D8, symSize: 0xCC }
  - { offsetInCU: 0x1BEEE, offset: 0x6FAC2, size: 0x8, addend: 0x0, symName: __ZN5ImGui7LogTextEPKcz, symObjAddr: 0x38F10, symBinAddr: 0x1000553A4, symSize: 0x64 }
  - { offsetInCU: 0x1BF38, offset: 0x6FB0C, size: 0x8, addend: 0x0, symName: __ZN5ImGui8LogTextVEPKcPc, symObjAddr: 0x39044, symBinAddr: 0x1000554D8, symSize: 0x5C }
  - { offsetInCU: 0x1BF80, offset: 0x6FB54, size: 0x8, addend: 0x0, symName: __ZN5ImGui8LogBeginEii, symObjAddr: 0x390A0, symBinAddr: 0x100055534, symSize: 0x1D8 }
  - { offsetInCU: 0x1BFD7, offset: 0x6FBAB, size: 0x8, addend: 0x0, symName: __ZN5ImGui24LogSetNextTextDecorationEPKcS1_, symObjAddr: 0x3929C, symBinAddr: 0x100055730, symSize: 0x38 }
  - { offsetInCU: 0x1C020, offset: 0x6FBF4, size: 0x8, addend: 0x0, symName: __ZN5ImGui8LogToTTYEi, symObjAddr: 0x392D4, symBinAddr: 0x100055768, symSize: 0x68 }
  - { offsetInCU: 0x1C059, offset: 0x6FC2D, size: 0x8, addend: 0x0, symName: __ZN5ImGui9LogToFileEiPKc, symObjAddr: 0x3933C, symBinAddr: 0x1000557D0, symSize: 0x100 }
  - { offsetInCU: 0x1C0B0, offset: 0x6FC84, size: 0x8, addend: 0x0, symName: __ZN5ImGui11LogToBufferEi, symObjAddr: 0x3943C, symBinAddr: 0x1000558D0, symSize: 0x54 }
  - { offsetInCU: 0x1C0E9, offset: 0x6FCBD, size: 0x8, addend: 0x0, symName: __ZN5ImGui10LogButtonsEv, symObjAddr: 0x394EC, symBinAddr: 0x100055980, symSize: 0x188 }
  - { offsetInCU: 0x1C140, offset: 0x6FD14, size: 0x8, addend: 0x0, symName: __ZN5ImGui20MarkIniSettingsDirtyEv, symObjAddr: 0x39674, symBinAddr: 0x100055B08, symSize: 0x44 }
  - { offsetInCU: 0x1C16B, offset: 0x6FD3F, size: 0x8, addend: 0x0, symName: __ZN5ImGui19FindSettingsHandlerEPKc, symObjAddr: 0x396B8, symBinAddr: 0x100055B4C, symSize: 0xD0 }
  - { offsetInCU: 0x1C209, offset: 0x6FDDD, size: 0x8, addend: 0x0, symName: __ZN5ImGui21RemoveSettingsHandlerEPKc, symObjAddr: 0x3981C, symBinAddr: 0x100055CB0, symSize: 0x60 }
  - { offsetInCU: 0x1C257, offset: 0x6FE2B, size: 0x8, addend: 0x0, symName: __ZN5ImGui16ClearIniSettingsEv, symObjAddr: 0x399E4, symBinAddr: 0x100055E78, symSize: 0xC4 }
  - { offsetInCU: 0x1C2D3, offset: 0x6FEA7, size: 0x8, addend: 0x0, symName: __ZN5ImGui23LoadIniSettingsFromDiskEPKc, symObjAddr: 0x39AA8, symBinAddr: 0x100055F3C, symSize: 0x84 }
  - { offsetInCU: 0x1C31B, offset: 0x6FEEF, size: 0x8, addend: 0x0, symName: __ZN5ImGui25LoadIniSettingsFromMemoryEPKcm, symObjAddr: 0x39B2C, symBinAddr: 0x100055FC0, symSize: 0x4FC }
  - { offsetInCU: 0x1C4C1, offset: 0x70095, size: 0x8, addend: 0x0, symName: __ZN5ImGui23SaveIniSettingsToMemoryEPm, symObjAddr: 0x3A028, symBinAddr: 0x1000564BC, symSize: 0x12C }
  - { offsetInCU: 0x1C550, offset: 0x70124, size: 0x8, addend: 0x0, symName: __ZN5ImGui23CreateNewWindowSettingsEPKc, symObjAddr: 0x3A27C, symBinAddr: 0x100056710, symSize: 0x130 }
  - { offsetInCU: 0x1C5CF, offset: 0x701A3, size: 0x8, addend: 0x0, symName: __ZN5ImGui22FindWindowSettingsByIDEj, symObjAddr: 0x3A4A4, symBinAddr: 0x10005690C, symSize: 0xB8 }
  - { offsetInCU: 0x1C629, offset: 0x701FD, size: 0x8, addend: 0x0, symName: __ZN5ImGui26FindWindowSettingsByWindowEP11ImGuiWindow, symObjAddr: 0x3A710, symBinAddr: 0x100056B78, symSize: 0x78 }
  - { offsetInCU: 0x1C666, offset: 0x7023A, size: 0x8, addend: 0x0, symName: __ZN5ImGui19ClearWindowSettingsEPKc, symObjAddr: 0x3A828, symBinAddr: 0x100056C90, symSize: 0xC8 }
  - { offsetInCU: 0x1C6B4, offset: 0x70288, size: 0x8, addend: 0x0, symName: __ZN5ImGui22ScaleWindowsInViewportEP14ImGuiViewportPf, symObjAddr: 0x3AAF4, symBinAddr: 0x100056F5C, symSize: 0xBC }
  - { offsetInCU: 0x1C74E, offset: 0x70322, size: 0x8, addend: 0x0, symName: __ZN5ImGui28DebugRenderViewportThumbnailEP10ImDrawListP14ImGuiViewportPRK6ImRect, symObjAddr: 0x3ACDC, symBinAddr: 0x100057144, symSize: 0x61C }
  - { offsetInCU: 0x1C877, offset: 0x7044B, size: 0x8, addend: 0x0, symName: __ZN5ImGui26DebugRenderKeyboardPreviewEP10ImDrawList, symObjAddr: 0x3B350, symBinAddr: 0x1000577B8, symSize: 0x448 }
  - { offsetInCU: 0x1CA3D, offset: 0x70611, size: 0x8, addend: 0x0, symName: __ZN5ImGui17DebugTextEncodingEPKc, symObjAddr: 0x3B798, symBinAddr: 0x100057C00, symSize: 0x27C }
  - { offsetInCU: 0x1CACD, offset: 0x706A1, size: 0x8, addend: 0x0, symName: __ZN5ImGui20DebugFlashStyleColorEi, symObjAddr: 0x3BA14, symBinAddr: 0x100057E7C, symSize: 0x60 }
  - { offsetInCU: 0x1CB06, offset: 0x706DA, size: 0x8, addend: 0x0, symName: __ZN5ImGui13ShowFontAtlasEP11ImFontAtlas, symObjAddr: 0x3BAD4, symBinAddr: 0x100057F3C, symSize: 0x1B8 }
  - { offsetInCU: 0x1CB9F, offset: 0x70773, size: 0x8, addend: 0x0, symName: __ZN5ImGui13DebugNodeFontEP6ImFont, symObjAddr: 0x3BCC4, symBinAddr: 0x10005812C, symSize: 0x784 }
  - { offsetInCU: 0x1CD61, offset: 0x70935, size: 0x8, addend: 0x0, symName: __ZN5ImGui18ShowDebugLogWindowEPb, symObjAddr: 0x3FA8C, symBinAddr: 0x10005BEF4, symSize: 0x464 }
  - { offsetInCU: 0x1CDE6, offset: 0x709BA, size: 0x8, addend: 0x0, symName: __ZN5ImGui21ShowIDStackToolWindowEPb, symObjAddr: 0x3FEF0, symBinAddr: 0x10005C358, symSize: 0x614 }
  - { offsetInCU: 0x1CEF5, offset: 0x70AC9, size: 0x8, addend: 0x0, symName: __ZN5ImGui19DebugBreakClearDataEv, symObjAddr: 0x40504, symBinAddr: 0x10005C96C, symSize: 0x30 }
  - { offsetInCU: 0x1CF20, offset: 0x70AF4, size: 0x8, addend: 0x0, symName: __ZN5ImGui20DebugNodeWindowsListEP8ImVectorIP11ImGuiWindowEPKc, symObjAddr: 0x40C4C, symBinAddr: 0x10005D0B4, symSize: 0xD0 }
  - { offsetInCU: 0x1CF76, offset: 0x70B4A, size: 0x8, addend: 0x0, symName: __ZN5ImGui38DebugNodeWindowsListByBeginStackParentEPP11ImGuiWindowiS1_, symObjAddr: 0x40D4C, symBinAddr: 0x10005D1B4, symSize: 0x130 }
  - { offsetInCU: 0x1D007, offset: 0x70BDB, size: 0x8, addend: 0x0, symName: __ZN5ImGui17DebugNodeDrawListEP11ImGuiWindowP14ImGuiViewportPPK10ImDrawListPKc, symObjAddr: 0x40E7C, symBinAddr: 0x10005D2E4, symSize: 0xB34 }
  - { offsetInCU: 0x1D24D, offset: 0x70E21, size: 0x8, addend: 0x0, symName: __ZN5ImGui17DebugNodeViewportEP14ImGuiViewportP, symObjAddr: 0x41BE8, symBinAddr: 0x10005E050, symSize: 0x248 }
  - { offsetInCU: 0x1D304, offset: 0x70ED8, size: 0x8, addend: 0x0, symName: __ZN5ImGui15DebugNodeTabBarEP11ImGuiTabBarPKc, symObjAddr: 0x41ED0, symBinAddr: 0x10005E338, symSize: 0x53C }
  - { offsetInCU: 0x1D425, offset: 0x70FF9, size: 0x8, addend: 0x0, symName: __ZN5ImGui23DebugNodeWindowSettingsEP19ImGuiWindowSettings, symObjAddr: 0x424DC, symBinAddr: 0x10005E944, symSize: 0xD8 }
  - { offsetInCU: 0x1D44F, offset: 0x71023, size: 0x8, addend: 0x0, symName: __ZN5ImGui22DebugLocateItemOnHoverEj, symObjAddr: 0x428FC, symBinAddr: 0x10005ED64, symSize: 0x17C }
  - { offsetInCU: 0x1D488, offset: 0x7105C, size: 0x8, addend: 0x0, symName: __ZN5ImGui16DebugBreakButtonEPKcS1_, symObjAddr: 0x42A78, symBinAddr: 0x10005EEE0, symSize: 0x334 }
  - { offsetInCU: 0x1D572, offset: 0x71146, size: 0x8, addend: 0x0, symName: __ZN5ImGui23DebugBreakButtonTooltipEbPKc, symObjAddr: 0x42F2C, symBinAddr: 0x10005F394, symSize: 0x9C }
  - { offsetInCU: 0x1D5AB, offset: 0x7117F, size: 0x8, addend: 0x0, symName: __ZN5ImGui16DebugNodeColumnsEP15ImGuiOldColumns, symObjAddr: 0x42FC8, symBinAddr: 0x10005F430, symSize: 0x184 }
  - { offsetInCU: 0x1D627, offset: 0x711FB, size: 0x8, addend: 0x0, symName: __ZN5ImGui38DebugNodeDrawCmdShowMeshAndBoundingBoxEP10ImDrawListPKS0_PK9ImDrawCmdbb, symObjAddr: 0x43350, symBinAddr: 0x10005F7B8, symSize: 0x39C }
  - { offsetInCU: 0x1D749, offset: 0x7131D, size: 0x8, addend: 0x0, symName: __ZN5ImGui18DebugNodeFontGlyphEP6ImFontPK11ImFontGlyph, symObjAddr: 0x43858, symBinAddr: 0x10005FCC0, symSize: 0x130 }
  - { offsetInCU: 0x1D77E, offset: 0x71352, size: 0x8, addend: 0x0, symName: __ZN5ImGui16DebugNodeStorageEP12ImGuiStoragePKc, symObjAddr: 0x43988, symBinAddr: 0x10005FDF0, symSize: 0x120 }
  - { offsetInCU: 0x1D809, offset: 0x713DD, size: 0x8, addend: 0x0, symName: __ZN5ImGui15DebugNodeWindowEP11ImGuiWindowPKc, symObjAddr: 0x43BA4, symBinAddr: 0x10006000C, symSize: 0xB1C }
  - { offsetInCU: 0x1D94D, offset: 0x71521, size: 0x8, addend: 0x0, symName: __ZN5ImGui9DebugLogVEPKcPc, symObjAddr: 0x44700, symBinAddr: 0x100060B68, symSize: 0x180 }
  - { offsetInCU: 0x1D9A4, offset: 0x71578, size: 0x8, addend: 0x0, symName: __ZN5ImGui34DebugTextUnformattedWithLocateItemEPKcS1_, symObjAddr: 0x44A9C, symBinAddr: 0x100060F04, symSize: 0x24C }
  - { offsetInCU: 0x1DA55, offset: 0x71629, size: 0x8, addend: 0x0, symName: __ZN5ImGui18DebugDrawCursorPosEj, symObjAddr: 0x44E6C, symBinAddr: 0x1000612D4, symSize: 0x104 }
  - { offsetInCU: 0x1DAAC, offset: 0x71680, size: 0x8, addend: 0x0, symName: __ZN5ImGui20DebugDrawLineExtentsEj, symObjAddr: 0x44F70, symBinAddr: 0x1000613D8, symSize: 0x1E0 }
  - { offsetInCU: 0x1DB21, offset: 0x716F5, size: 0x8, addend: 0x0, symName: __ZN5ImGui17DebugDrawItemRectEj, symObjAddr: 0x45150, symBinAddr: 0x1000615B8, symSize: 0x68 }
  - { offsetInCU: 0x1DB69, offset: 0x7173D, size: 0x8, addend: 0x0, symName: __ZN5ImGui15DebugLocateItemEj, symObjAddr: 0x451B8, symBinAddr: 0x100061620, symSize: 0x4C }
  - { offsetInCU: 0x1DBA3, offset: 0x71777, size: 0x8, addend: 0x0, symName: __ZN5ImGuiL34RenderDimmedBackgroundBehindWindowEP11ImGuiWindowj, symObjAddr: 0x47D30, symBinAddr: 0x100064198, symSize: 0x1B8 }
  - { offsetInCU: 0x1DC28, offset: 0x717FC, size: 0x8, addend: 0x0, symName: __ZN5ImGuiL24RenderWindowOuterBordersEP11ImGuiWindow, symObjAddr: 0x49090, symBinAddr: 0x1000654F8, symSize: 0x300 }
  - { offsetInCU: 0x1DCC9, offset: 0x7189D, size: 0x8, addend: 0x0, symName: __ZN5ImGui13IsKeyboardKeyE8ImGuiKey, symObjAddr: 0x49984, symBinAddr: 0x100065DEC, symSize: 0x48 }
  - { offsetInCU: 0x1DCF7, offset: 0x718CB, size: 0x8, addend: 0x0, symName: __ZN5ImGuiL21UpdateKeyRoutingTableEP20ImGuiKeyRoutingTable, symObjAddr: 0x499CC, symBinAddr: 0x100065E34, symSize: 0x284 }
  - { offsetInCU: 0x1DDD1, offset: 0x719A5, size: 0x8, addend: 0x0, symName: __ZN5ImGuiL31NavProcessItemForTabbingRequestEjii, symObjAddr: 0x4A7E4, symBinAddr: 0x100066C4C, symSize: 0x31C }
  - { offsetInCU: 0x1DE47, offset: 0x71A1B, size: 0x8, addend: 0x0, symName: __ZN5ImGuiL12NavScoreItemEP16ImGuiNavItemData, symObjAddr: 0x4AB00, symBinAddr: 0x100066F68, symSize: 0x62C }
  - { offsetInCU: 0x1DF6A, offset: 0x71B3E, size: 0x8, addend: 0x0, symName: __ZN5ImGuiL35NavSaveLastChildNavWindowIntoParentEP11ImGuiWindow, symObjAddr: 0x4B29C, symBinAddr: 0x100067704, symSize: 0xD0 }
  - { offsetInCU: 0x1DFA4, offset: 0x71B78, size: 0x8, addend: 0x0, symName: __ZN5ImGuiL18NavUpdateWindowingEv, symObjAddr: 0x4B36C, symBinAddr: 0x1000677D4, symSize: 0x10B0 }
  - { offsetInCU: 0x1E229, offset: 0x71DFD, size: 0x8, addend: 0x0, symName: __ZN5ImGuiL22NavUpdateCancelRequestEv, symObjAddr: 0x4C41C, symBinAddr: 0x100068884, symSize: 0x3EC }
  - { offsetInCU: 0x1E29E, offset: 0x71E72, size: 0x8, addend: 0x0, symName: __ZN5ImGuiL26NavUpdateCreateMoveRequestEv, symObjAddr: 0x4C808, symBinAddr: 0x100068C70, symSize: 0xA80 }
  - { offsetInCU: 0x1E3CC, offset: 0x71FA0, size: 0x8, addend: 0x0, symName: __ZN5ImGuiL29NavUpdateCreateTabbingRequestEv, symObjAddr: 0x4D288, symBinAddr: 0x1000696F0, symSize: 0x290 }
  - { offsetInCU: 0x1E451, offset: 0x72025, size: 0x8, addend: 0x0, symName: __ZN5ImGuiL28NavUpdateWindowingApplyFocusEP11ImGuiWindow, symObjAddr: 0x4D798, symBinAddr: 0x100069C00, symSize: 0xF0 }
  - { offsetInCU: 0x1E48B, offset: 0x7205F, size: 0x8, addend: 0x0, symName: __ZN5ImGuiL15NavRestoreLayerE13ImGuiNavLayer, symObjAddr: 0x4D888, symBinAddr: 0x100069CF0, symSize: 0x150 }
  - { offsetInCU: 0x1E4F1, offset: 0x720C5, size: 0x8, addend: 0x0, symName: __ZN5ImGui21IsActiveIdUsingNavDirE8ImGuiDir, symObjAddr: 0x4D9D8, symBinAddr: 0x100069E40, symSize: 0x3C }
  - { offsetInCU: 0x1E52E, offset: 0x72102, size: 0x8, addend: 0x0, symName: __ZN5ImGuiL23NavUpdatePageUpPageDownEv, symObjAddr: 0x4DA14, symBinAddr: 0x100069E7C, symSize: 0x458 }
  - { offsetInCU: 0x1E5E3, offset: 0x721B7, size: 0x8, addend: 0x0, symName: __ZN5ImGuiL25NavUpdateWindowingOverlayEv, symObjAddr: 0x4E0D0, symBinAddr: 0x10006A538, symSize: 0x30C }
  - { offsetInCU: 0x1E668, offset: 0x7223C, size: 0x8, addend: 0x0, symName: __ZN5ImGuiL30NavUpdateCreateWrappingRequestEv, symObjAddr: 0x4E3DC, symBinAddr: 0x10006A844, symSize: 0x2E0 }
  - { offsetInCU: 0x1E6DE, offset: 0x722B2, size: 0x8, addend: 0x0, symName: __ZN5ImGui14LocalizeGetMsgE11ImGuiLocKey, symObjAddr: 0x4E760, symBinAddr: 0x10006ABC8, symSize: 0x68 }
  - { offsetInCU: 0x1E72A, offset: 0x722FE, size: 0x8, addend: 0x0, symName: __ZN5ImGui20TableGetInstanceDataEP10ImGuiTablei, symObjAddr: 0x4EBF8, symBinAddr: 0x10006B060, symSize: 0x64 }
  - { offsetInCU: 0x1E7A3, offset: 0x72377, size: 0x8, addend: 0x0, symName: __ZL17GCrc32LookupTable, symObjAddr: 0x5ACB4, symBinAddr: 0x1001433E8, symSize: 0x0 }
  - { offsetInCU: 0x1E7CC, offset: 0x723A0, size: 0x8, addend: 0x0, symName: __ZL14GStyleVarsInfo, symObjAddr: 0x5B14C, symBinAddr: 0x100143880, symSize: 0x0 }
  - { offsetInCU: 0x1E84D, offset: 0x72421, size: 0x8, addend: 0x0, symName: __ZL21GImAllocatorAllocFunc, symObjAddr: 0x5B2E0, symBinAddr: 0x100150020, symSize: 0x0 }
  - { offsetInCU: 0x1E88A, offset: 0x7245E, size: 0x8, addend: 0x0, symName: __ZL20GImAllocatorFreeFunc, symObjAddr: 0x5B2E8, symBinAddr: 0x100150028, symSize: 0x0 }
  - { offsetInCU: 0x1E8C2, offset: 0x72496, size: 0x8, addend: 0x0, symName: __ZL20GImAllocatorUserData, symObjAddr: 0x10EF30, symBinAddr: 0x100156448, symSize: 0x0 }
  - { offsetInCU: 0x1E8DD, offset: 0x724B1, size: 0x8, addend: 0x0, symName: __ZL24GLocalizationEntriesEnUS, symObjAddr: 0x5B2F0, symBinAddr: 0x10014E0B0, symSize: 0x0 }
  - { offsetInCU: 0x1E990, offset: 0x72564, size: 0x8, addend: 0x0, symName: __ZL15resize_grip_def, symObjAddr: 0x5B1D4, symBinAddr: 0x100143908, symSize: 0x0 }
  - { offsetInCU: 0x1E9FB, offset: 0x725CF, size: 0x8, addend: 0x0, symName: __ZL17resize_border_def, symObjAddr: 0x5B234, symBinAddr: 0x100143968, symSize: 0x0 }
  - { offsetInCU: 0x1EA66, offset: 0x7263A, size: 0x8, addend: 0x0, symName: __ZL9GKeyNames, symObjAddr: 0x5B390, symBinAddr: 0x10014E150, symSize: 0x0 }
  - { offsetInCU: 0x1EAA4, offset: 0x72678, size: 0x8, addend: 0x0, symName: __ZL28TOOLTIP_DEFAULT_OFFSET_TOUCH, symObjAddr: 0x5B124, symBinAddr: 0x100143858, symSize: 0x0 }
  - { offsetInCU: 0x1EABF, offset: 0x72693, size: 0x8, addend: 0x0, symName: __ZL28TOOLTIP_DEFAULT_OFFSET_MOUSE, symObjAddr: 0x5B12C, symBinAddr: 0x100143860, symSize: 0x0 }
  - { offsetInCU: 0x1EADA, offset: 0x726AE, size: 0x8, addend: 0x0, symName: __ZL27TOOLTIP_DEFAULT_PIVOT_TOUCH, symObjAddr: 0x5B134, symBinAddr: 0x100143868, symSize: 0x0 }
  - { offsetInCU: 0x1F21C, offset: 0x72DF0, size: 0x8, addend: 0x0, symName: __ZN10ImGuiStyleC2Ev, symObjAddr: 0x0, symBinAddr: 0x10001C4A0, symSize: 0x428 }
  - { offsetInCU: 0x1F249, offset: 0x72E1D, size: 0x8, addend: 0x0, symName: __ZN6ImVec2C1Ev, symObjAddr: 0x428, symBinAddr: 0x10001C8C8, symSize: 0x2C }
  - { offsetInCU: 0x1F273, offset: 0x72E47, size: 0x8, addend: 0x0, symName: __ZN6ImVec4C1Ev, symObjAddr: 0x454, symBinAddr: 0x10001C8F4, symSize: 0x2C }
  - { offsetInCU: 0x1F29D, offset: 0x72E71, size: 0x8, addend: 0x0, symName: __ZN6ImVec2C1Eff, symObjAddr: 0x480, symBinAddr: 0x10001C920, symSize: 0x3C }
  - { offsetInCU: 0x1F2E5, offset: 0x72EB9, size: 0x8, addend: 0x0, symName: __ZN10ImGuiStyleC1Ev, symObjAddr: 0x4BC, symBinAddr: 0x10001C95C, symSize: 0x2C }
  - { offsetInCU: 0x1F312, offset: 0x72EE6, size: 0x8, addend: 0x0, symName: __ZN10ImGuiStyle13ScaleAllSizesEf, symObjAddr: 0x4E8, symBinAddr: 0x10001C988, symSize: 0x464 }
  - { offsetInCU: 0x1F34A, offset: 0x72F1E, size: 0x8, addend: 0x0, symName: __ZL7ImTruncRK6ImVec2, symObjAddr: 0x94C, symBinAddr: 0x10001CDEC, symSize: 0x4C }
  - { offsetInCU: 0x1F379, offset: 0x72F4D, size: 0x8, addend: 0x0, symName: __ZmlRK6ImVec2f, symObjAddr: 0x998, symBinAddr: 0x10001CE38, symSize: 0x50 }
  - { offsetInCU: 0x1F3B7, offset: 0x72F8B, size: 0x8, addend: 0x0, symName: __ZL7ImTruncf, symObjAddr: 0x9E8, symBinAddr: 0x10001CE88, symSize: 0x1C }
  - { offsetInCU: 0x1F3E6, offset: 0x72FBA, size: 0x8, addend: 0x0, symName: __ZN7ImGuiIOC2Ev, symObjAddr: 0xA04, symBinAddr: 0x10001CEA4, symSize: 0x348 }
  - { offsetInCU: 0x1F44E, offset: 0x73022, size: 0x8, addend: 0x0, symName: __ZN8ImVectorItEC1Ev, symObjAddr: 0xD4C, symBinAddr: 0x10001D1EC, symSize: 0x2C }
  - { offsetInCU: 0x1F478, offset: 0x7304C, size: 0x8, addend: 0x0, symName: __ZN8ImVectorItED1Ev, symObjAddr: 0xD78, symBinAddr: 0x10001D218, symSize: 0x2C }
  - { offsetInCU: 0x1F4A2, offset: 0x73076, size: 0x8, addend: 0x0, symName: __ZN7ImGuiIOC1Ev, symObjAddr: 0xDA4, symBinAddr: 0x10001D244, symSize: 0x2C }
  - { offsetInCU: 0x1F4CF, offset: 0x730A3, size: 0x8, addend: 0x0, symName: __ZN7ImGuiIO17AddInputCharacterEj, symObjAddr: 0xDD0, symBinAddr: 0x10001D270, symSize: 0xE4 }
  - { offsetInCU: 0x1F525, offset: 0x730F9, size: 0x8, addend: 0x0, symName: __ZN15ImGuiInputEventC1Ev, symObjAddr: 0xEB4, symBinAddr: 0x10001D354, symSize: 0x2C }
  - { offsetInCU: 0x1F54F, offset: 0x73123, size: 0x8, addend: 0x0, symName: __ZN8ImVectorI15ImGuiInputEventE9push_backERKS0_, symObjAddr: 0xEE0, symBinAddr: 0x10001D380, symSize: 0x98 }
  - { offsetInCU: 0x1F584, offset: 0x73158, size: 0x8, addend: 0x0, symName: __ZN7ImGuiIO22AddInputCharacterUTF16Et, symObjAddr: 0xF78, symBinAddr: 0x10001D418, symSize: 0x130 }
  - { offsetInCU: 0x1F5CB, offset: 0x7319F, size: 0x8, addend: 0x0, symName: __ZN7ImGuiIO22AddInputCharactersUTF8EPKc, symObjAddr: 0x10A8, symBinAddr: 0x10001D548, symSize: 0x88 }
  - { offsetInCU: 0x1F620, offset: 0x731F4, size: 0x8, addend: 0x0, symName: __ZN7ImGuiIO16ClearEventsQueueEv, symObjAddr: 0x149C, symBinAddr: 0x10001D93C, symSize: 0x78 }
  - { offsetInCU: 0x1F658, offset: 0x7322C, size: 0x8, addend: 0x0, symName: __ZN8ImVectorI15ImGuiInputEventE5clearEv, symObjAddr: 0x1514, symBinAddr: 0x10001D9B4, symSize: 0x58 }
  - { offsetInCU: 0x1F67E, offset: 0x73252, size: 0x8, addend: 0x0, symName: __ZN7ImGuiIO14ClearInputKeysEv, symObjAddr: 0x156C, symBinAddr: 0x10001DA0C, symSize: 0xCC }
  - { offsetInCU: 0x1F6F0, offset: 0x732C4, size: 0x8, addend: 0x0, symName: __ZN8ImVectorItE6resizeEi, symObjAddr: 0x1680, symBinAddr: 0x10001DB20, symSize: 0x68 }
  - { offsetInCU: 0x1F725, offset: 0x732F9, size: 0x8, addend: 0x0, symName: __ZN7ImGuiIO15ClearInputMouseEv, symObjAddr: 0x16E8, symBinAddr: 0x10001DB88, symSize: 0x11C }
  - { offsetInCU: 0x1F7A5, offset: 0x73379, size: 0x8, addend: 0x0, symName: __ZN7ImGuiIO20ClearInputCharactersEv, symObjAddr: 0x1804, symBinAddr: 0x10001DCA4, symSize: 0x2C }
  - { offsetInCU: 0x1F7CE, offset: 0x733A2, size: 0x8, addend: 0x0, symName: __ZN7ImGuiIO17AddKeyAnalogEventE8ImGuiKeybf, symObjAddr: 0x1830, symBinAddr: 0x10001DCD0, symSize: 0x35C }
  - { offsetInCU: 0x1F87E, offset: 0x73452, size: 0x8, addend: 0x0, symName: __ZL20FindLatestInputEventP12ImGuiContext19ImGuiInputEventTypei, symObjAddr: 0x1C84, symBinAddr: 0x10001E124, symSize: 0x11C }
  - { offsetInCU: 0x1F914, offset: 0x734E8, size: 0x8, addend: 0x0, symName: __ZN7ImGuiIO11AddKeyEventE8ImGuiKeyb, symObjAddr: 0x1E9C, symBinAddr: 0x10001E33C, symSize: 0x74 }
  - { offsetInCU: 0x1F95B, offset: 0x7352F, size: 0x8, addend: 0x0, symName: __ZN7ImGuiIO21SetKeyEventNativeDataE8ImGuiKeyiii, symObjAddr: 0x1F10, symBinAddr: 0x10001E3B0, symSize: 0xD4 }
  - { offsetInCU: 0x1F9C0, offset: 0x73594, size: 0x8, addend: 0x0, symName: __ZN7ImGuiIO21SetAppAcceptingEventsEb, symObjAddr: 0x2074, symBinAddr: 0x10001E514, symSize: 0x2C }
  - { offsetInCU: 0x1F9F8, offset: 0x735CC, size: 0x8, addend: 0x0, symName: __ZN7ImGuiIO16AddMousePosEventEff, symObjAddr: 0x20A0, symBinAddr: 0x10001E540, symSize: 0x1F0 }
  - { offsetInCU: 0x1FA8A, offset: 0x7365E, size: 0x8, addend: 0x0, symName: __ZL7ImFloorf, symObjAddr: 0x2290, symBinAddr: 0x10001E730, symSize: 0x70 }
  - { offsetInCU: 0x1FAB9, offset: 0x7368D, size: 0x8, addend: 0x0, symName: __ZN7ImGuiIO19AddMouseButtonEventEib, symObjAddr: 0x2300, symBinAddr: 0x10001E7A0, symSize: 0x30C }
  - { offsetInCU: 0x1FB59, offset: 0x7372D, size: 0x8, addend: 0x0, symName: __ZN7ImGuiIO18AddMouseWheelEventEff, symObjAddr: 0x2640, symBinAddr: 0x10001EAE0, symSize: 0x10C }
  - { offsetInCU: 0x1FBBE, offset: 0x73792, size: 0x8, addend: 0x0, symName: __ZN7ImGuiIO19AddMouseSourceEventE16ImGuiMouseSource, symObjAddr: 0x274C, symBinAddr: 0x10001EBEC, symSize: 0x78 }
  - { offsetInCU: 0x1FC05, offset: 0x737D9, size: 0x8, addend: 0x0, symName: __ZN7ImGuiIO13AddFocusEventEb, symObjAddr: 0x27C4, symBinAddr: 0x10001EC64, symSize: 0x15C }
  - { offsetInCU: 0x1FC79, offset: 0x7384D, size: 0x8, addend: 0x0, symName: __ZN15ImGuiPlatformIOC2Ev, symObjAddr: 0x2920, symBinAddr: 0x10001EDC0, symSize: 0x3C }
  - { offsetInCU: 0x1FCA6, offset: 0x7387A, size: 0x8, addend: 0x0, symName: __ZN15ImGuiPlatformIOC1Ev, symObjAddr: 0x295C, symBinAddr: 0x10001EDFC, symSize: 0x2C }
  - { offsetInCU: 0x1FCD3, offset: 0x738A7, size: 0x8, addend: 0x0, symName: __Z25ImBezierCubicClosestPointRK6ImVec2S1_S1_S1_S1_i, symObjAddr: 0x2988, symBinAddr: 0x10001EE28, symSize: 0x174 }
  - { offsetInCU: 0x1FDE0, offset: 0x739B4, size: 0x8, addend: 0x0, symName: __Z18ImLineClosestPointRK6ImVec2S1_S1_, symObjAddr: 0x2AFC, symBinAddr: 0x10001EF9C, symSize: 0x120 }
  - { offsetInCU: 0x1FE68, offset: 0x73A3C, size: 0x8, addend: 0x0, symName: __ZL11ImLengthSqrRK6ImVec2, symObjAddr: 0x2C1C, symBinAddr: 0x10001F0BC, symSize: 0x38 }
  - { offsetInCU: 0x1FE97, offset: 0x73A6B, size: 0x8, addend: 0x0, symName: __ZmiRK6ImVec2S1_, symObjAddr: 0x2C54, symBinAddr: 0x10001F0F4, symSize: 0x58 }
  - { offsetInCU: 0x1FED5, offset: 0x73AA9, size: 0x8, addend: 0x0, symName: __Z34ImBezierCubicClosestPointCasteljauRK6ImVec2S1_S1_S1_S1_f, symObjAddr: 0x2CAC, symBinAddr: 0x10001F14C, symSize: 0x100 }
  - { offsetInCU: 0x1FF7B, offset: 0x73B4F, size: 0x8, addend: 0x0, symName: __ZL38ImBezierCubicClosestPointCasteljauStepRK6ImVec2RS_S2_Rffffffffffi, symObjAddr: 0x2DAC, symBinAddr: 0x10001F24C, symSize: 0x3E4 }
  - { offsetInCU: 0x201B2, offset: 0x73D86, size: 0x8, addend: 0x0, symName: __ZplRK6ImVec2S1_, symObjAddr: 0x3190, symBinAddr: 0x10001F630, symSize: 0x58 }
  - { offsetInCU: 0x201F0, offset: 0x73DC4, size: 0x8, addend: 0x0, symName: __ZdvRK6ImVec2f, symObjAddr: 0x31E8, symBinAddr: 0x10001F688, symSize: 0x50 }
  - { offsetInCU: 0x2022E, offset: 0x73E02, size: 0x8, addend: 0x0, symName: __Z23ImTriangleContainsPointRK6ImVec2S1_S1_S1_, symObjAddr: 0x3238, symBinAddr: 0x10001F6D8, symSize: 0x1A8 }
  - { offsetInCU: 0x202B6, offset: 0x73E8A, size: 0x8, addend: 0x0, symName: __Z27ImTriangleBarycentricCoordsRK6ImVec2S1_S1_S1_RfS2_S2_, symObjAddr: 0x33E0, symBinAddr: 0x10001F880, symSize: 0x100 }
  - { offsetInCU: 0x20376, offset: 0x73F4A, size: 0x8, addend: 0x0, symName: __Z22ImTriangleClosestPointRK6ImVec2S1_S1_S1_, symObjAddr: 0x34E0, symBinAddr: 0x10001F980, symSize: 0x168 }
  - { offsetInCU: 0x2043C, offset: 0x74010, size: 0x8, addend: 0x0, symName: __ZL5ImMinIfET_S0_S0_, symObjAddr: 0x3648, symBinAddr: 0x10001FAE8, symSize: 0x48 }
  - { offsetInCU: 0x20483, offset: 0x74057, size: 0x8, addend: 0x0, symName: __Z9ImStricmpPKcS0_, symObjAddr: 0x3690, symBinAddr: 0x10001FB30, symSize: 0xAC }
  - { offsetInCU: 0x204CF, offset: 0x740A3, size: 0x8, addend: 0x0, symName: __ZL9ImToUpperc, symObjAddr: 0x373C, symBinAddr: 0x10001FBDC, symSize: 0x60 }
  - { offsetInCU: 0x204FE, offset: 0x740D2, size: 0x8, addend: 0x0, symName: __Z10ImStrnicmpPKcS0_m, symObjAddr: 0x379C, symBinAddr: 0x10001FC3C, symSize: 0xDC }
  - { offsetInCU: 0x20559, offset: 0x7412D, size: 0x8, addend: 0x0, symName: __Z9ImStrncpyPcPKcm, symObjAddr: 0x3878, symBinAddr: 0x10001FD18, symSize: 0x80 }
  - { offsetInCU: 0x205A1, offset: 0x74175, size: 0x8, addend: 0x0, symName: __Z8ImStrdupPKc, symObjAddr: 0x38F8, symBinAddr: 0x10001FD98, symSize: 0x54 }
  - { offsetInCU: 0x205ED, offset: 0x741C1, size: 0x8, addend: 0x0, symName: __Z11ImStrdupcpyPcPmPKc, symObjAddr: 0x39CC, symBinAddr: 0x10001FE6C, symSize: 0xE0 }
  - { offsetInCU: 0x20657, offset: 0x7422B, size: 0x8, addend: 0x0, symName: __Z13ImStrchrRangePKcS0_c, symObjAddr: 0x3B3C, symBinAddr: 0x10001FFDC, symSize: 0x44 }
  - { offsetInCU: 0x206B2, offset: 0x74286, size: 0x8, addend: 0x0, symName: __Z6memchrB7v160006Ua9enable_ifIXLb1EEEPKvim, symObjAddr: 0x3B80, symBinAddr: 0x100020020, symSize: 0x34 }
  - { offsetInCU: 0x206FA, offset: 0x742CE, size: 0x8, addend: 0x0, symName: __Z9ImStrlenWPKt, symObjAddr: 0x3BB4, symBinAddr: 0x100020054, symSize: 0x4C }
  - { offsetInCU: 0x20737, offset: 0x7430B, size: 0x8, addend: 0x0, symName: __Z13ImStreolRangePKcS0_, symObjAddr: 0x3C00, symBinAddr: 0x1000200A0, symSize: 0x6C }
  - { offsetInCU: 0x20783, offset: 0x74357, size: 0x8, addend: 0x0, symName: __Z8ImStrbolPKcS0_, symObjAddr: 0x3C6C, symBinAddr: 0x10002010C, symSize: 0x70 }
  - { offsetInCU: 0x207C0, offset: 0x74394, size: 0x8, addend: 0x0, symName: __Z9ImStristrPKcS0_S0_S0_, symObjAddr: 0x3CDC, symBinAddr: 0x10002017C, symSize: 0x1E0 }
  - { offsetInCU: 0x20864, offset: 0x74438, size: 0x8, addend: 0x0, symName: __Z15ImStrTrimBlanksPc, symObjAddr: 0x3EBC, symBinAddr: 0x10002035C, symSize: 0x180 }
  - { offsetInCU: 0x208AC, offset: 0x74480, size: 0x8, addend: 0x0, symName: __Z14ImStrSkipBlankPKc, symObjAddr: 0x403C, symBinAddr: 0x1000204DC, symSize: 0x6C }
  - { offsetInCU: 0x208DA, offset: 0x744AE, size: 0x8, addend: 0x0, symName: __Z14ImFormatStringPcmPKcz, symObjAddr: 0x40A8, symBinAddr: 0x100020548, symSize: 0xC4 }
  - { offsetInCU: 0x20946, offset: 0x7451A, size: 0x8, addend: 0x0, symName: __Z15ImFormatStringVPcmPKcS_, symObjAddr: 0x416C, symBinAddr: 0x10002060C, symSize: 0xBC }
  - { offsetInCU: 0x209B0, offset: 0x74584, size: 0x8, addend: 0x0, symName: __Z26ImFormatStringToTempBufferPPKcS1_S0_z, symObjAddr: 0x4228, symBinAddr: 0x1000206C8, symSize: 0x44 }
  - { offsetInCU: 0x20A09, offset: 0x745DD, size: 0x8, addend: 0x0, symName: __Z27ImFormatStringToTempBufferVPPKcS1_S0_Pc, symObjAddr: 0x426C, symBinAddr: 0x10002070C, symSize: 0x274 }
  - { offsetInCU: 0x20AD5, offset: 0x746A9, size: 0x8, addend: 0x0, symName: __ZL5ImMinIiET_S0_S0_, symObjAddr: 0x44E0, symBinAddr: 0x100020980, symSize: 0x48 }
  - { offsetInCU: 0x20B1C, offset: 0x746F0, size: 0x8, addend: 0x0, symName: __Z10ImHashDataPKvmj, symObjAddr: 0x4528, symBinAddr: 0x1000209C8, symSize: 0x9C }
  - { offsetInCU: 0x20BA4, offset: 0x74778, size: 0x8, addend: 0x0, symName: __Z9ImHashStrPKcmj, symObjAddr: 0x45C4, symBinAddr: 0x100020A64, symSize: 0x1C0 }
  - { offsetInCU: 0x20C57, offset: 0x7482B, size: 0x8, addend: 0x0, symName: __Z10ImFileOpenPKcS0_, symObjAddr: 0x4784, symBinAddr: 0x100020C24, symSize: 0x2C }
  - { offsetInCU: 0x20C94, offset: 0x74868, size: 0x8, addend: 0x0, symName: __Z11ImFileCloseP7__sFILE, symObjAddr: 0x47B0, symBinAddr: 0x100020C50, symSize: 0x30 }
  - { offsetInCU: 0x20CC2, offset: 0x74896, size: 0x8, addend: 0x0, symName: __Z13ImFileGetSizeP7__sFILE, symObjAddr: 0x47E0, symBinAddr: 0x100020C80, symSize: 0xB8 }
  - { offsetInCU: 0x20D0E, offset: 0x748E2, size: 0x8, addend: 0x0, symName: __Z10ImFileReadPvyyP7__sFILE, symObjAddr: 0x4898, symBinAddr: 0x100020D38, symSize: 0x3C }
  - { offsetInCU: 0x20D69, offset: 0x7493D, size: 0x8, addend: 0x0, symName: __Z11ImFileWritePKvyyP7__sFILE, symObjAddr: 0x48D4, symBinAddr: 0x100020D74, symSize: 0x3C }
  - { offsetInCU: 0x20DC4, offset: 0x74998, size: 0x8, addend: 0x0, symName: __Z18ImFileLoadToMemoryPKcS0_Pmi, symObjAddr: 0x4910, symBinAddr: 0x100020DB0, symSize: 0x1E4 }
  - { offsetInCU: 0x20E4C, offset: 0x74A20, size: 0x8, addend: 0x0, symName: __Z17ImTextStrFromUtf8PtiPKcS1_PS1_, symObjAddr: 0x4AF4, symBinAddr: 0x100020F94, symSize: 0x13C }
  - { offsetInCU: 0x20EF1, offset: 0x74AC5, size: 0x8, addend: 0x0, symName: __Z24ImTextCountCharsFromUtf8PKcS0_, symObjAddr: 0x4C30, symBinAddr: 0x1000210D0, symSize: 0xB0 }
  - { offsetInCU: 0x20F5A, offset: 0x74B2E, size: 0x8, addend: 0x0, symName: __Z16ImTextCharToUtf8Pcj, symObjAddr: 0x4CE0, symBinAddr: 0x100021180, symSize: 0x48 }
  - { offsetInCU: 0x20FA6, offset: 0x74B7A, size: 0x8, addend: 0x0, symName: __ZL23ImTextCharToUtf8_inlinePcij, symObjAddr: 0x4D28, symBinAddr: 0x1000211C8, symSize: 0x1C4 }
  - { offsetInCU: 0x20FF3, offset: 0x74BC7, size: 0x8, addend: 0x0, symName: __Z28ImTextCountUtf8BytesFromCharPKcS0_, symObjAddr: 0x4EEC, symBinAddr: 0x10002138C, symSize: 0x34 }
  - { offsetInCU: 0x2103F, offset: 0x74C13, size: 0x8, addend: 0x0, symName: __Z15ImTextStrToUtf8PciPKtS1_, symObjAddr: 0x4F20, symBinAddr: 0x1000213C0, symSize: 0x14C }
  - { offsetInCU: 0x210D5, offset: 0x74CA9, size: 0x8, addend: 0x0, symName: __Z27ImTextCountUtf8BytesFromStrPKtS0_, symObjAddr: 0x506C, symBinAddr: 0x10002150C, symSize: 0xD8 }
  - { offsetInCU: 0x2113E, offset: 0x74D12, size: 0x8, addend: 0x0, symName: __ZL28ImTextCountUtf8BytesFromCharj, symObjAddr: 0x5144, symBinAddr: 0x1000215E4, symSize: 0xA0 }
  - { offsetInCU: 0x2116D, offset: 0x74D41, size: 0x8, addend: 0x0, symName: __Z31ImTextFindPreviousUtf8CodepointPKcS0_, symObjAddr: 0x51E4, symBinAddr: 0x100021684, symSize: 0x78 }
  - { offsetInCU: 0x211AA, offset: 0x74D7E, size: 0x8, addend: 0x0, symName: __Z16ImTextCountLinesPKcS0_, symObjAddr: 0x525C, symBinAddr: 0x1000216FC, symSize: 0xDC }
  - { offsetInCU: 0x21213, offset: 0x74DE7, size: 0x8, addend: 0x0, symName: __Z18ImAlphaBlendColorsjj, symObjAddr: 0x5338, symBinAddr: 0x1000217D8, symSize: 0xC8 }
  - { offsetInCU: 0x2128C, offset: 0x74E60, size: 0x8, addend: 0x0, symName: __ZL6ImLerpIiET_S0_S0_f, symObjAddr: 0x5400, symBinAddr: 0x1000218A0, symSize: 0x3C }
  - { offsetInCU: 0x212E2, offset: 0x74EB6, size: 0x8, addend: 0x0, symName: __ZN6ImVec4C1Effff, symObjAddr: 0x54E0, symBinAddr: 0x100021980, symSize: 0x4C }
  - { offsetInCU: 0x21348, offset: 0x74F1C, size: 0x8, addend: 0x0, symName: __ZL10ImSaturatef, symObjAddr: 0x55F4, symBinAddr: 0x100021A94, symSize: 0x70 }
  - { offsetInCU: 0x21377, offset: 0x74F4B, size: 0x8, addend: 0x0, symName: __ZL6ImSwapIfEvRT_S1_, symObjAddr: 0x57B4, symBinAddr: 0x100021C54, symSize: 0x3C }
  - { offsetInCU: 0x213C9, offset: 0x74F9D, size: 0x8, addend: 0x0, symName: __Z12ImLowerBoundP16ImGuiStoragePairS0_j, symObjAddr: 0x5A24, symBinAddr: 0x100021EC4, symSize: 0xC8 }
  - { offsetInCU: 0x2146D, offset: 0x75041, size: 0x8, addend: 0x0, symName: __ZN12ImGuiStorage14BuildSortByKeyEv, symObjAddr: 0x5AEC, symBinAddr: 0x100021F8C, symSize: 0x38 }
  - { offsetInCU: 0x21496, offset: 0x7506A, size: 0x8, addend: 0x0, symName: __ZL7ImQsortPvmmPFiPKvS1_E, symObjAddr: 0x5B24, symBinAddr: 0x100021FC4, symSize: 0x54 }
  - { offsetInCU: 0x214EE, offset: 0x750C2, size: 0x8, addend: 0x0, symName: __ZL16PairComparerByIDPKvS0_, symObjAddr: 0x5B78, symBinAddr: 0x100022018, symSize: 0x7C }
  - { offsetInCU: 0x2154A, offset: 0x7511E, size: 0x8, addend: 0x0, symName: __ZNK12ImGuiStorage6GetIntEji, symObjAddr: 0x5BF4, symBinAddr: 0x100022094, symSize: 0xA8 }
  - { offsetInCU: 0x215A0, offset: 0x75174, size: 0x8, addend: 0x0, symName: __ZNK12ImGuiStorage7GetBoolEjb, symObjAddr: 0x5C9C, symBinAddr: 0x10002213C, symSize: 0x58 }
  - { offsetInCU: 0x215E7, offset: 0x751BB, size: 0x8, addend: 0x0, symName: __ZNK12ImGuiStorage8GetFloatEjf, symObjAddr: 0x5CF4, symBinAddr: 0x100022194, symSize: 0xA8 }
  - { offsetInCU: 0x2163D, offset: 0x75211, size: 0x8, addend: 0x0, symName: __ZNK12ImGuiStorage10GetVoidPtrEj, symObjAddr: 0x5D9C, symBinAddr: 0x10002223C, symSize: 0xA0 }
  - { offsetInCU: 0x21684, offset: 0x75258, size: 0x8, addend: 0x0, symName: __ZN12ImGuiStorage9GetIntRefEji, symObjAddr: 0x5E3C, symBinAddr: 0x1000222DC, symSize: 0xC4 }
  - { offsetInCU: 0x216DA, offset: 0x752AE, size: 0x8, addend: 0x0, symName: __ZN8ImVectorI16ImGuiStoragePairE6insertEPKS0_RS2_, symObjAddr: 0x5F00, symBinAddr: 0x1000223A0, symSize: 0x178 }
  - { offsetInCU: 0x2172D, offset: 0x75301, size: 0x8, addend: 0x0, symName: __ZN16ImGuiStoragePairC1Eji, symObjAddr: 0x6078, symBinAddr: 0x100022518, symSize: 0x3C }
  - { offsetInCU: 0x21775, offset: 0x75349, size: 0x8, addend: 0x0, symName: __ZN12ImGuiStorage10GetBoolRefEjb, symObjAddr: 0x60B4, symBinAddr: 0x100022554, symSize: 0x4C }
  - { offsetInCU: 0x217BC, offset: 0x75390, size: 0x8, addend: 0x0, symName: __ZN12ImGuiStorage11GetFloatRefEjf, symObjAddr: 0x6100, symBinAddr: 0x1000225A0, symSize: 0xC4 }
  - { offsetInCU: 0x21812, offset: 0x753E6, size: 0x8, addend: 0x0, symName: __ZN16ImGuiStoragePairC1Ejf, symObjAddr: 0x61C4, symBinAddr: 0x100022664, symSize: 0x3C }
  - { offsetInCU: 0x2185A, offset: 0x7542E, size: 0x8, addend: 0x0, symName: __ZN12ImGuiStorage13GetVoidPtrRefEjPv, symObjAddr: 0x6200, symBinAddr: 0x1000226A0, symSize: 0xC4 }
  - { offsetInCU: 0x218B0, offset: 0x75484, size: 0x8, addend: 0x0, symName: __ZN16ImGuiStoragePairC1EjPv, symObjAddr: 0x62C4, symBinAddr: 0x100022764, symSize: 0x3C }
  - { offsetInCU: 0x218F8, offset: 0x754CC, size: 0x8, addend: 0x0, symName: __ZN12ImGuiStorage6SetIntEji, symObjAddr: 0x6300, symBinAddr: 0x1000227A0, symSize: 0xC8 }
  - { offsetInCU: 0x2194E, offset: 0x75522, size: 0x8, addend: 0x0, symName: __ZN12ImGuiStorage7SetBoolEjb, symObjAddr: 0x63C8, symBinAddr: 0x100022868, symSize: 0x4C }
  - { offsetInCU: 0x21995, offset: 0x75569, size: 0x8, addend: 0x0, symName: __ZN12ImGuiStorage8SetFloatEjf, symObjAddr: 0x6414, symBinAddr: 0x1000228B4, symSize: 0xC8 }
  - { offsetInCU: 0x219EB, offset: 0x755BF, size: 0x8, addend: 0x0, symName: __ZN12ImGuiStorage10SetVoidPtrEjPv, symObjAddr: 0x64DC, symBinAddr: 0x10002297C, symSize: 0xC8 }
  - { offsetInCU: 0x21A41, offset: 0x75615, size: 0x8, addend: 0x0, symName: __ZN12ImGuiStorage9SetAllIntEi, symObjAddr: 0x65A4, symBinAddr: 0x100022A44, symSize: 0x7C }
  - { offsetInCU: 0x21A96, offset: 0x7566A, size: 0x8, addend: 0x0, symName: __ZN8ImVectorI16ImGuiStoragePairEixEi, symObjAddr: 0x6620, symBinAddr: 0x100022AC0, symSize: 0xA0 }
  - { offsetInCU: 0x21ACB, offset: 0x7569F, size: 0x8, addend: 0x0, symName: __ZN15ImGuiTextFilterC2EPKc, symObjAddr: 0x66C0, symBinAddr: 0x100022B60, symSize: 0xA8 }
  - { offsetInCU: 0x21B07, offset: 0x756DB, size: 0x8, addend: 0x0, symName: __ZN8ImVectorIN15ImGuiTextFilter14ImGuiTextRangeEEC1Ev, symObjAddr: 0x6768, symBinAddr: 0x100022C08, symSize: 0x2C }
  - { offsetInCU: 0x21B31, offset: 0x75705, size: 0x8, addend: 0x0, symName: __ZN15ImGuiTextFilter5BuildEv, symObjAddr: 0x6794, symBinAddr: 0x100022C34, symSize: 0x1D4 }
  - { offsetInCU: 0x21BBB, offset: 0x7578F, size: 0x8, addend: 0x0, symName: __ZN8ImVectorIN15ImGuiTextFilter14ImGuiTextRangeEED1Ev, symObjAddr: 0x6968, symBinAddr: 0x100022E08, symSize: 0x2C }
  - { offsetInCU: 0x21BE5, offset: 0x757B9, size: 0x8, addend: 0x0, symName: __ZN15ImGuiTextFilterC1EPKc, symObjAddr: 0x6994, symBinAddr: 0x100022E34, symSize: 0x34 }
  - { offsetInCU: 0x21C21, offset: 0x757F5, size: 0x8, addend: 0x0, symName: __ZN15ImGuiTextFilter4DrawEPKcf, symObjAddr: 0x69C8, symBinAddr: 0x100022E68, symSize: 0x94 }
  - { offsetInCU: 0x21C77, offset: 0x7584B, size: 0x8, addend: 0x0, symName: __ZNK15ImGuiTextFilter14ImGuiTextRange5splitEcP8ImVectorIS0_E, symObjAddr: 0x6A94, symBinAddr: 0x100022F34, symSize: 0x114 }
  - { offsetInCU: 0x21CDC, offset: 0x758B0, size: 0x8, addend: 0x0, symName: __ZN8ImVectorIN15ImGuiTextFilter14ImGuiTextRangeEE6resizeEi, symObjAddr: 0x6BA8, symBinAddr: 0x100023048, symSize: 0x68 }
  - { offsetInCU: 0x21D11, offset: 0x758E5, size: 0x8, addend: 0x0, symName: __ZN8ImVectorIN15ImGuiTextFilter14ImGuiTextRangeEE9push_backERKS1_, symObjAddr: 0x6C10, symBinAddr: 0x1000230B0, symSize: 0x84 }
  - { offsetInCU: 0x21D46, offset: 0x7591A, size: 0x8, addend: 0x0, symName: __ZN15ImGuiTextFilter14ImGuiTextRangeC1EPKcS2_, symObjAddr: 0x6C94, symBinAddr: 0x100023134, symSize: 0x3C }
  - { offsetInCU: 0x21D8E, offset: 0x75962, size: 0x8, addend: 0x0, symName: __ZN8ImVectorIN15ImGuiTextFilter14ImGuiTextRangeEE5beginEv, symObjAddr: 0x6CD0, symBinAddr: 0x100023170, symSize: 0x18 }
  - { offsetInCU: 0x21DB4, offset: 0x75988, size: 0x8, addend: 0x0, symName: __ZN8ImVectorIN15ImGuiTextFilter14ImGuiTextRangeEE3endEv, symObjAddr: 0x6CE8, symBinAddr: 0x100023188, symSize: 0x20 }
  - { offsetInCU: 0x21DDA, offset: 0x759AE, size: 0x8, addend: 0x0, symName: __ZL14ImCharIsBlankAc, symObjAddr: 0x6D08, symBinAddr: 0x1000231A8, symSize: 0x48 }
  - { offsetInCU: 0x21E09, offset: 0x759DD, size: 0x8, addend: 0x0, symName: __ZNK15ImGuiTextFilter14ImGuiTextRange5emptyEv, symObjAddr: 0x6D50, symBinAddr: 0x1000231F0, symSize: 0x28 }
  - { offsetInCU: 0x21E2F, offset: 0x75A03, size: 0x8, addend: 0x0, symName: __ZNK15ImGuiTextFilter10PassFilterEPKcS1_, symObjAddr: 0x6D78, symBinAddr: 0x100023218, symSize: 0x1F0 }
  - { offsetInCU: 0x21EC8, offset: 0x75A9C, size: 0x8, addend: 0x0, symName: __ZNK8ImVectorIN15ImGuiTextFilter14ImGuiTextRangeEE5beginEv, symObjAddr: 0x6F68, symBinAddr: 0x100023408, symSize: 0x18 }
  - { offsetInCU: 0x21EEE, offset: 0x75AC2, size: 0x8, addend: 0x0, symName: __ZNK8ImVectorIN15ImGuiTextFilter14ImGuiTextRangeEE3endEv, symObjAddr: 0x6F80, symBinAddr: 0x100023420, symSize: 0x20 }
  - { offsetInCU: 0x21F14, offset: 0x75AE8, size: 0x8, addend: 0x0, symName: __ZN15ImGuiTextBuffer6appendEPKcS1_, symObjAddr: 0x6FA0, symBinAddr: 0x100023440, symSize: 0x174 }
  - { offsetInCU: 0x21FA5, offset: 0x75B79, size: 0x8, addend: 0x0, symName: __ZN8ImVectorIcE7reserveEi, symObjAddr: 0x7114, symBinAddr: 0x1000235B4, symSize: 0xAC }
  - { offsetInCU: 0x21FE9, offset: 0x75BBD, size: 0x8, addend: 0x0, symName: __ZN8ImVectorIcE6resizeEi, symObjAddr: 0x71C0, symBinAddr: 0x100023660, symSize: 0x68 }
  - { offsetInCU: 0x2201E, offset: 0x75BF2, size: 0x8, addend: 0x0, symName: __ZN8ImVectorIcEixEi, symObjAddr: 0x7228, symBinAddr: 0x1000236C8, symSize: 0xA0 }
  - { offsetInCU: 0x22053, offset: 0x75C27, size: 0x8, addend: 0x0, symName: __ZN15ImGuiTextBuffer7appendfEPKcz, symObjAddr: 0x72C8, symBinAddr: 0x100023768, symSize: 0x3C }
  - { offsetInCU: 0x2209C, offset: 0x75C70, size: 0x8, addend: 0x0, symName: __ZN15ImGuiTextBuffer8appendfvEPKcPc, symObjAddr: 0x7304, symBinAddr: 0x1000237A4, symSize: 0x158 }
  - { offsetInCU: 0x2213C, offset: 0x75D10, size: 0x8, addend: 0x0, symName: __ZN14ImGuiTextIndex6appendEPKcii, symObjAddr: 0x745C, symBinAddr: 0x1000238FC, symSize: 0x1D8 }
  - { offsetInCU: 0x221BE, offset: 0x75D92, size: 0x8, addend: 0x0, symName: __ZN8ImVectorIiE9push_backERKi, symObjAddr: 0x7634, symBinAddr: 0x100023AD4, symSize: 0x84 }
  - { offsetInCU: 0x221F3, offset: 0x75DC7, size: 0x8, addend: 0x0, symName: __ZL5ImMaxIiET_S0_S0_, symObjAddr: 0x76B8, symBinAddr: 0x100023B58, symSize: 0x48 }
  - { offsetInCU: 0x2223A, offset: 0x75E0E, size: 0x8, addend: 0x0, symName: __ZN16ImGuiListClipperC2Ev, symObjAddr: 0x7700, symBinAddr: 0x100023BA0, symSize: 0x34 }
  - { offsetInCU: 0x22267, offset: 0x75E3B, size: 0x8, addend: 0x0, symName: __ZN16ImGuiListClipperC1Ev, symObjAddr: 0x7734, symBinAddr: 0x100023BD4, symSize: 0x2C }
  - { offsetInCU: 0x22294, offset: 0x75E68, size: 0x8, addend: 0x0, symName: __ZN16ImGuiListClipperD2Ev, symObjAddr: 0x7760, symBinAddr: 0x100023C00, symSize: 0x34 }
  - { offsetInCU: 0x222C1, offset: 0x75E95, size: 0x8, addend: 0x0, symName: __ZN16ImGuiListClipper3EndEv, symObjAddr: 0x7794, symBinAddr: 0x100023C34, symSize: 0x1A8 }
  - { offsetInCU: 0x2231C, offset: 0x75EF0, size: 0x8, addend: 0x0, symName: __ZN16ImGuiListClipperD1Ev, symObjAddr: 0x7948, symBinAddr: 0x100023DDC, symSize: 0x2C }
  - { offsetInCU: 0x22349, offset: 0x75F1D, size: 0x8, addend: 0x0, symName: __ZN16ImGuiListClipper5BeginEif, symObjAddr: 0x7974, symBinAddr: 0x100023E08, symSize: 0x214 }
  - { offsetInCU: 0x223D2, offset: 0x75FA6, size: 0x8, addend: 0x0, symName: __ZN8ImVectorI20ImGuiListClipperDataE6resizeEiRKS0_, symObjAddr: 0x7B94, symBinAddr: 0x100024028, symSize: 0xEC }
  - { offsetInCU: 0x22433, offset: 0x76007, size: 0x8, addend: 0x0, symName: __ZN20ImGuiListClipperDataC1Ev, symObjAddr: 0x7C80, symBinAddr: 0x100024114, symSize: 0x2C }
  - { offsetInCU: 0x2245D, offset: 0x76031, size: 0x8, addend: 0x0, symName: __ZN20ImGuiListClipperDataD1Ev, symObjAddr: 0x7CAC, symBinAddr: 0x100024140, symSize: 0x2C }
  - { offsetInCU: 0x2248A, offset: 0x7605E, size: 0x8, addend: 0x0, symName: __ZN8ImVectorI20ImGuiListClipperDataEixEi, symObjAddr: 0x7CD8, symBinAddr: 0x10002416C, symSize: 0xA8 }
  - { offsetInCU: 0x224BF, offset: 0x76093, size: 0x8, addend: 0x0, symName: __ZN20ImGuiListClipperData5ResetEP16ImGuiListClipper, symObjAddr: 0x7D80, symBinAddr: 0x100024214, symSize: 0x40 }
  - { offsetInCU: 0x224F4, offset: 0x760C8, size: 0x8, addend: 0x0, symName: __ZN16ImGuiListClipper17SeekCursorForItemEi, symObjAddr: 0x7DC0, symBinAddr: 0x100024254, symSize: 0x64 }
  - { offsetInCU: 0x2253B, offset: 0x7610F, size: 0x8, addend: 0x0, symName: __ZN16ImGuiListClipper19IncludeItemsByIndexEii, symObjAddr: 0x7E24, symBinAddr: 0x1000242B8, symSize: 0x134 }
  - { offsetInCU: 0x22591, offset: 0x76165, size: 0x8, addend: 0x0, symName: __ZN8ImVectorI21ImGuiListClipperRangeE9push_backERKS0_, symObjAddr: 0x7F58, symBinAddr: 0x1000243EC, symSize: 0x98 }
  - { offsetInCU: 0x225C6, offset: 0x7619A, size: 0x8, addend: 0x0, symName: __ZN21ImGuiListClipperRange11FromIndicesEii, symObjAddr: 0x7FF0, symBinAddr: 0x100024484, symSize: 0x98 }
  - { offsetInCU: 0x22608, offset: 0x761DC, size: 0x8, addend: 0x0, symName: __ZL43ImGuiListClipper_SeekCursorAndSetupPrevLineff, symObjAddr: 0x8088, symBinAddr: 0x10002451C, symSize: 0x160 }
  - { offsetInCU: 0x226B6, offset: 0x7628A, size: 0x8, addend: 0x0, symName: __ZN16ImGuiListClipper4StepEv, symObjAddr: 0x81E8, symBinAddr: 0x10002467C, symSize: 0x200 }
  - { offsetInCU: 0x2270C, offset: 0x762E0, size: 0x8, addend: 0x0, symName: __ZL29ImGuiListClipper_StepInternalP16ImGuiListClipper, symObjAddr: 0x83E8, symBinAddr: 0x10002487C, symSize: 0xC9C }
  - { offsetInCU: 0x228C1, offset: 0x76495, size: 0x8, addend: 0x0, symName: __ZN13ImGuiColorModC1Ev, symObjAddr: 0x9340, symBinAddr: 0x1000257D4, symSize: 0x2C }
  - { offsetInCU: 0x228EE, offset: 0x764C2, size: 0x8, addend: 0x0, symName: __ZN8ImVectorI13ImGuiColorModE9push_backERKS0_, symObjAddr: 0x936C, symBinAddr: 0x100025800, symSize: 0x98 }
  - { offsetInCU: 0x22923, offset: 0x764F7, size: 0x8, addend: 0x0, symName: __ZN8ImVectorI13ImGuiColorModE4backEv, symObjAddr: 0x98D0, symBinAddr: 0x100025D64, symSize: 0x74 }
  - { offsetInCU: 0x22949, offset: 0x7651D, size: 0x8, addend: 0x0, symName: __ZN8ImVectorI13ImGuiColorModE8pop_backEv, symObjAddr: 0x9944, symBinAddr: 0x100025DD8, symSize: 0x6C }
  - { offsetInCU: 0x2296F, offset: 0x76543, size: 0x8, addend: 0x0, symName: __ZNK17ImGuiStyleVarInfo9GetVarPtrEPv, symObjAddr: 0x9B44, symBinAddr: 0x100025FD8, symSize: 0x28 }
  - { offsetInCU: 0x229A4, offset: 0x76578, size: 0x8, addend: 0x0, symName: __ZN8ImVectorI13ImGuiStyleModE9push_backERKS0_, symObjAddr: 0x9B6C, symBinAddr: 0x100026000, symSize: 0x98 }
  - { offsetInCU: 0x229D9, offset: 0x765AD, size: 0x8, addend: 0x0, symName: __ZN13ImGuiStyleModC1Eif, symObjAddr: 0x9C04, symBinAddr: 0x100026098, symSize: 0x3C }
  - { offsetInCU: 0x22A21, offset: 0x765F5, size: 0x8, addend: 0x0, symName: __ZN13ImGuiStyleModC1Ei6ImVec2, symObjAddr: 0x9D54, symBinAddr: 0x1000261E8, symSize: 0x44 }
  - { offsetInCU: 0x22A69, offset: 0x7663D, size: 0x8, addend: 0x0, symName: __ZN8ImVectorI13ImGuiStyleModE4backEv, symObjAddr: 0xA170, symBinAddr: 0x100026604, symSize: 0x74 }
  - { offsetInCU: 0x22A8F, offset: 0x76663, size: 0x8, addend: 0x0, symName: __ZN8ImVectorI13ImGuiStyleModE8pop_backEv, symObjAddr: 0xA1E4, symBinAddr: 0x100026678, symSize: 0x6C }
  - { offsetInCU: 0x22AB5, offset: 0x76689, size: 0x8, addend: 0x0, symName: __ZL5ImMaxIfET_S0_S0_, symObjAddr: 0xB22C, symBinAddr: 0x1000276C0, symSize: 0x48 }
  - { offsetInCU: 0x22AFC, offset: 0x766D0, size: 0x8, addend: 0x0, symName: __ZN6ImRect8ClipWithERKS_, symObjAddr: 0xBD50, symBinAddr: 0x1000281E4, symSize: 0x68 }
  - { offsetInCU: 0x22B31, offset: 0x76705, size: 0x8, addend: 0x0, symName: __ZN6ImRect6ExpandERK6ImVec2, symObjAddr: 0xBDB8, symBinAddr: 0x10002824C, symSize: 0x68 }
  - { offsetInCU: 0x22B66, offset: 0x7673A, size: 0x8, addend: 0x0, symName: __ZNK6ImRect8ContainsERKS_, symObjAddr: 0xBE20, symBinAddr: 0x1000282B4, symSize: 0xB8 }
  - { offsetInCU: 0x22B9B, offset: 0x7676F, size: 0x8, addend: 0x0, symName: __ZN8ImVectorIP14ImGuiViewportPE5beginEv, symObjAddr: 0xC4B4, symBinAddr: 0x100028948, symSize: 0x18 }
  - { offsetInCU: 0x22BC1, offset: 0x76795, size: 0x8, addend: 0x0, symName: __ZN8ImVectorIP14ImGuiViewportPE3endEv, symObjAddr: 0xC4CC, symBinAddr: 0x100028960, symSize: 0x20 }
  - { offsetInCU: 0x22BE7, offset: 0x767BB, size: 0x8, addend: 0x0, symName: __ZNK14ImGuiViewportP11GetMainRectEv, symObjAddr: 0xC4EC, symBinAddr: 0x100028980, symSize: 0x58 }
  - { offsetInCU: 0x22C0D, offset: 0x767E1, size: 0x8, addend: 0x0, symName: __ZNK6ImRect8OverlapsERKS_, symObjAddr: 0xC544, symBinAddr: 0x1000289D8, symSize: 0xB8 }
  - { offsetInCU: 0x22C42, offset: 0x76816, size: 0x8, addend: 0x0, symName: __ZN6ImRectC1ERK6ImVec2S2_, symObjAddr: 0xC5FC, symBinAddr: 0x100028A90, symSize: 0x3C }
  - { offsetInCU: 0x22C8A, offset: 0x7685E, size: 0x8, addend: 0x0, symName: __ZN10ImDrawList10PathStrokeEjif, symObjAddr: 0xC668, symBinAddr: 0x100028AFC, symSize: 0x50 }
  - { offsetInCU: 0x22CDD, offset: 0x768B1, size: 0x8, addend: 0x0, symName: __Znwm12ImNewWrapperPv, symObjAddr: 0xC808, symBinAddr: 0x100028C9C, symSize: 0x18 }
  - { offsetInCU: 0x22D21, offset: 0x768F5, size: 0x8, addend: 0x0, symName: __ZN12ImGuiContextC1EP11ImFontAtlas, symObjAddr: 0xC820, symBinAddr: 0x100028CB4, symSize: 0x34 }
  - { offsetInCU: 0x22D5D, offset: 0x76931, size: 0x8, addend: 0x0, symName: __ZdlPv12ImNewWrapperS_, symObjAddr: 0xC854, symBinAddr: 0x100028CE8, symSize: 0x14 }
  - { offsetInCU: 0x22D9A, offset: 0x7696E, size: 0x8, addend: 0x0, symName: __Z9IM_DELETEI12ImGuiContextEvPT_, symObjAddr: 0xD1A0, symBinAddr: 0x100029634, symSize: 0x44 }
  - { offsetInCU: 0x22DCD, offset: 0x769A1, size: 0x8, addend: 0x0, symName: __ZN12ImGuiContextC2EP11ImFontAtlas, symObjAddr: 0xD1E4, symBinAddr: 0x100029678, symSize: 0x14CC }
  - { offsetInCU: 0x22E09, offset: 0x769DD, size: 0x8, addend: 0x0, symName: __ZN8ImVectorI15ImGuiInputEventEC1Ev, symObjAddr: 0xE6B0, symBinAddr: 0x10002AB44, symSize: 0x2C }
  - { offsetInCU: 0x22E33, offset: 0x76A07, size: 0x8, addend: 0x0, symName: __ZN8ImVectorIP11ImGuiWindowEC1Ev, symObjAddr: 0xE6DC, symBinAddr: 0x10002AB70, symSize: 0x2C }
  - { offsetInCU: 0x22E5D, offset: 0x76A31, size: 0x8, addend: 0x0, symName: __ZN8ImVectorI20ImGuiWindowStackDataEC1Ev, symObjAddr: 0xE708, symBinAddr: 0x10002AB9C, symSize: 0x2C }
  - { offsetInCU: 0x22E87, offset: 0x76A5B, size: 0x8, addend: 0x0, symName: __ZN12ImGuiStorageC1Ev, symObjAddr: 0xE734, symBinAddr: 0x10002ABC8, symSize: 0x2C }
  - { offsetInCU: 0x22EB4, offset: 0x76A88, size: 0x8, addend: 0x0, symName: __ZN10ImBitArrayILi154ELin512EEC1Ev, symObjAddr: 0xE760, symBinAddr: 0x10002ABF4, symSize: 0x2C }
  - { offsetInCU: 0x22EDE, offset: 0x76AB2, size: 0x8, addend: 0x0, symName: __ZN17ImGuiKeyOwnerDataC1Ev, symObjAddr: 0xE78C, symBinAddr: 0x10002AC20, symSize: 0x2C }
  - { offsetInCU: 0x22F08, offset: 0x76ADC, size: 0x8, addend: 0x0, symName: __ZN20ImGuiKeyRoutingTableC1Ev, symObjAddr: 0xE7B8, symBinAddr: 0x10002AC4C, symSize: 0x2C }
  - { offsetInCU: 0x22F32, offset: 0x76B06, size: 0x8, addend: 0x0, symName: __ZN17ImGuiNextItemDataC1Ev, symObjAddr: 0xE7E4, symBinAddr: 0x10002AC78, symSize: 0x2C }
  - { offsetInCU: 0x22F5C, offset: 0x76B30, size: 0x8, addend: 0x0, symName: __ZN17ImGuiLastItemDataC1Ev, symObjAddr: 0xE810, symBinAddr: 0x10002ACA4, symSize: 0x2C }
  - { offsetInCU: 0x22F86, offset: 0x76B5A, size: 0x8, addend: 0x0, symName: __ZN19ImGuiNextWindowDataC1Ev, symObjAddr: 0xE83C, symBinAddr: 0x10002ACD0, symSize: 0x2C }
  - { offsetInCU: 0x22FB0, offset: 0x76B84, size: 0x8, addend: 0x0, symName: __ZN8ImVectorI13ImGuiColorModEC1Ev, symObjAddr: 0xE868, symBinAddr: 0x10002ACFC, symSize: 0x2C }
  - { offsetInCU: 0x22FDA, offset: 0x76BAE, size: 0x8, addend: 0x0, symName: __ZN8ImVectorI13ImGuiStyleModEC1Ev, symObjAddr: 0xE894, symBinAddr: 0x10002AD28, symSize: 0x2C }
  - { offsetInCU: 0x23004, offset: 0x76BD8, size: 0x8, addend: 0x0, symName: __ZN8ImVectorIP6ImFontEC1Ev, symObjAddr: 0xE8C0, symBinAddr: 0x10002AD54, symSize: 0x2C }
  - { offsetInCU: 0x2302E, offset: 0x76C02, size: 0x8, addend: 0x0, symName: __ZN8ImVectorI19ImGuiFocusScopeDataEC1Ev, symObjAddr: 0xE8EC, symBinAddr: 0x10002AD80, symSize: 0x2C }
  - { offsetInCU: 0x23058, offset: 0x76C2C, size: 0x8, addend: 0x0, symName: __ZN8ImVectorIiEC1Ev, symObjAddr: 0xE918, symBinAddr: 0x10002ADAC, symSize: 0x2C }
  - { offsetInCU: 0x23082, offset: 0x76C56, size: 0x8, addend: 0x0, symName: __ZN8ImVectorI14ImGuiGroupDataEC1Ev, symObjAddr: 0xE944, symBinAddr: 0x10002ADD8, symSize: 0x2C }
  - { offsetInCU: 0x230AC, offset: 0x76C80, size: 0x8, addend: 0x0, symName: __ZN8ImVectorI14ImGuiPopupDataEC1Ev, symObjAddr: 0xE970, symBinAddr: 0x10002AE04, symSize: 0x2C }
  - { offsetInCU: 0x230D6, offset: 0x76CAA, size: 0x8, addend: 0x0, symName: __ZN8ImVectorI22ImGuiTreeNodeStackDataEC1Ev, symObjAddr: 0xE99C, symBinAddr: 0x10002AE30, symSize: 0x2C }
  - { offsetInCU: 0x23100, offset: 0x76CD4, size: 0x8, addend: 0x0, symName: __ZN8ImVectorIP14ImGuiViewportPEC1Ev, symObjAddr: 0xE9C8, symBinAddr: 0x10002AE5C, symSize: 0x2C }
  - { offsetInCU: 0x2312A, offset: 0x76CFE, size: 0x8, addend: 0x0, symName: __ZN16ImGuiNavItemDataC1Ev, symObjAddr: 0xE9F4, symBinAddr: 0x10002AE88, symSize: 0x2C }
  - { offsetInCU: 0x23154, offset: 0x76D28, size: 0x8, addend: 0x0, symName: __ZN6ImRectC1Ev, symObjAddr: 0xEA20, symBinAddr: 0x10002AEB4, symSize: 0x2C }
  - { offsetInCU: 0x2317E, offset: 0x76D52, size: 0x8, addend: 0x0, symName: __ZN12ImGuiPayloadC1Ev, symObjAddr: 0xEA4C, symBinAddr: 0x10002AEE0, symSize: 0x2C }
  - { offsetInCU: 0x231A8, offset: 0x76D7C, size: 0x8, addend: 0x0, symName: __ZN8ImVectorIhEC1Ev, symObjAddr: 0xEA78, symBinAddr: 0x10002AF0C, symSize: 0x2C }
  - { offsetInCU: 0x231D2, offset: 0x76DA6, size: 0x8, addend: 0x0, symName: __ZN8ImVectorI20ImGuiListClipperDataEC1Ev, symObjAddr: 0xEAA4, symBinAddr: 0x10002AF38, symSize: 0x2C }
  - { offsetInCU: 0x231FC, offset: 0x76DD0, size: 0x8, addend: 0x0, symName: __ZN8ImVectorI18ImGuiTableTempDataEC1Ev, symObjAddr: 0xEAD0, symBinAddr: 0x10002AF64, symSize: 0x2C }
  - { offsetInCU: 0x23226, offset: 0x76DFA, size: 0x8, addend: 0x0, symName: __ZN6ImPoolI10ImGuiTableEC1Ev, symObjAddr: 0xEAFC, symBinAddr: 0x10002AF90, symSize: 0x2C }
  - { offsetInCU: 0x23250, offset: 0x76E24, size: 0x8, addend: 0x0, symName: __ZN8ImVectorIfEC1Ev, symObjAddr: 0xEB28, symBinAddr: 0x10002AFBC, symSize: 0x2C }
  - { offsetInCU: 0x2327A, offset: 0x76E4E, size: 0x8, addend: 0x0, symName: __ZN8ImVectorI13ImDrawChannelEC1Ev, symObjAddr: 0xEB54, symBinAddr: 0x10002AFE8, symSize: 0x2C }
  - { offsetInCU: 0x232A4, offset: 0x76E78, size: 0x8, addend: 0x0, symName: __ZN6ImPoolI11ImGuiTabBarEC1Ev, symObjAddr: 0xEB80, symBinAddr: 0x10002B014, symSize: 0x2C }
  - { offsetInCU: 0x232CE, offset: 0x76EA2, size: 0x8, addend: 0x0, symName: __ZN8ImVectorI15ImGuiPtrOrIndexEC1Ev, symObjAddr: 0xEBAC, symBinAddr: 0x10002B040, symSize: 0x2C }
  - { offsetInCU: 0x232F8, offset: 0x76ECC, size: 0x8, addend: 0x0, symName: __ZN8ImVectorI20ImGuiShrinkWidthItemEC1Ev, symObjAddr: 0xEBD8, symBinAddr: 0x10002B06C, symSize: 0x2C }
  - { offsetInCU: 0x23322, offset: 0x76EF6, size: 0x8, addend: 0x0, symName: __ZN19ImGuiBoxSelectStateC1Ev, symObjAddr: 0xEC04, symBinAddr: 0x10002B098, symSize: 0x2C }
  - { offsetInCU: 0x2334C, offset: 0x76F20, size: 0x8, addend: 0x0, symName: __ZN8ImVectorI24ImGuiMultiSelectTempDataEC1Ev, symObjAddr: 0xEC30, symBinAddr: 0x10002B0C4, symSize: 0x2C }
  - { offsetInCU: 0x23376, offset: 0x76F4A, size: 0x8, addend: 0x0, symName: __ZN6ImPoolI21ImGuiMultiSelectStateEC1Ev, symObjAddr: 0xEC5C, symBinAddr: 0x10002B0F0, symSize: 0x2C }
  - { offsetInCU: 0x233A0, offset: 0x76F74, size: 0x8, addend: 0x0, symName: __ZN30ImGuiInputTextDeactivatedStateC1Ev, symObjAddr: 0xEC88, symBinAddr: 0x10002B11C, symSize: 0x2C }
  - { offsetInCU: 0x233CA, offset: 0x76F9E, size: 0x8, addend: 0x0, symName: __ZN21ImGuiComboPreviewDataC1Ev, symObjAddr: 0xECB4, symBinAddr: 0x10002B148, symSize: 0x2C }
  - { offsetInCU: 0x233F4, offset: 0x76FC8, size: 0x8, addend: 0x0, symName: __ZN8ImVectorIcEC1Ev, symObjAddr: 0xECE0, symBinAddr: 0x10002B174, symSize: 0x2C }
  - { offsetInCU: 0x2341E, offset: 0x76FF2, size: 0x8, addend: 0x0, symName: __ZN8ImVectorIjEC1Ev, symObjAddr: 0xED0C, symBinAddr: 0x10002B1A0, symSize: 0x2C }
  - { offsetInCU: 0x23448, offset: 0x7701C, size: 0x8, addend: 0x0, symName: __ZN22ImGuiTypingSelectStateC1Ev, symObjAddr: 0xED38, symBinAddr: 0x10002B1CC, symSize: 0x2C }
  - { offsetInCU: 0x23472, offset: 0x77046, size: 0x8, addend: 0x0, symName: __ZN20ImGuiPlatformImeDataC1Ev, symObjAddr: 0xED64, symBinAddr: 0x10002B1F8, symSize: 0x2C }
  - { offsetInCU: 0x2349C, offset: 0x77070, size: 0x8, addend: 0x0, symName: __ZN15ImGuiTextBufferC1Ev, symObjAddr: 0xED90, symBinAddr: 0x10002B224, symSize: 0x2C }
  - { offsetInCU: 0x234C6, offset: 0x7709A, size: 0x8, addend: 0x0, symName: __ZN8ImVectorI20ImGuiSettingsHandlerEC1Ev, symObjAddr: 0xEDBC, symBinAddr: 0x10002B250, symSize: 0x2C }
  - { offsetInCU: 0x234F0, offset: 0x770C4, size: 0x8, addend: 0x0, symName: __ZN13ImChunkStreamI19ImGuiWindowSettingsEC1Ev, symObjAddr: 0xEDE8, symBinAddr: 0x10002B27C, symSize: 0x2C }
  - { offsetInCU: 0x2351D, offset: 0x770F1, size: 0x8, addend: 0x0, symName: __ZN13ImChunkStreamI18ImGuiTableSettingsEC1Ev, symObjAddr: 0xEE14, symBinAddr: 0x10002B2A8, symSize: 0x2C }
  - { offsetInCU: 0x2354A, offset: 0x7711E, size: 0x8, addend: 0x0, symName: __ZN8ImVectorI16ImGuiContextHookEC1Ev, symObjAddr: 0xEE40, symBinAddr: 0x10002B2D4, symSize: 0x2C }
  - { offsetInCU: 0x23574, offset: 0x77148, size: 0x8, addend: 0x0, symName: __ZN23ImGuiErrorRecoveryStateC1Ev, symObjAddr: 0xEE6C, symBinAddr: 0x10002B300, symSize: 0x2C }
  - { offsetInCU: 0x2359E, offset: 0x77172, size: 0x8, addend: 0x0, symName: __ZN14ImGuiTextIndexC1Ev, symObjAddr: 0xEE98, symBinAddr: 0x10002B32C, symSize: 0x2C }
  - { offsetInCU: 0x235D0, offset: 0x771A4, size: 0x8, addend: 0x0, symName: __ZN18ImGuiMetricsConfigC1Ev, symObjAddr: 0xEEC4, symBinAddr: 0x10002B358, symSize: 0x2C }
  - { offsetInCU: 0x235FD, offset: 0x771D1, size: 0x8, addend: 0x0, symName: __ZN16ImGuiIDStackToolC1Ev, symObjAddr: 0xEEF0, symBinAddr: 0x10002B384, symSize: 0x2C }
  - { offsetInCU: 0x23627, offset: 0x771FB, size: 0x8, addend: 0x0, symName: __ZN19ImGuiDebugAllocInfoC1Ev, symObjAddr: 0xEF1C, symBinAddr: 0x10002B3B0, symSize: 0x2C }
  - { offsetInCU: 0x23651, offset: 0x77225, size: 0x8, addend: 0x0, symName: __ZN8ImVectorIcED1Ev, symObjAddr: 0xEF48, symBinAddr: 0x10002B3DC, symSize: 0x2C }
  - { offsetInCU: 0x2367B, offset: 0x7724F, size: 0x8, addend: 0x0, symName: __ZN16ImGuiIDStackToolD1Ev, symObjAddr: 0xEF74, symBinAddr: 0x10002B408, symSize: 0x2C }
  - { offsetInCU: 0x236A8, offset: 0x7727C, size: 0x8, addend: 0x0, symName: __ZN14ImGuiTextIndexD1Ev, symObjAddr: 0xEFA0, symBinAddr: 0x10002B434, symSize: 0x2C }
  - { offsetInCU: 0x236D5, offset: 0x772A9, size: 0x8, addend: 0x0, symName: __ZN15ImGuiTextBufferD1Ev, symObjAddr: 0xEFCC, symBinAddr: 0x10002B460, symSize: 0x2C }
  - { offsetInCU: 0x23702, offset: 0x772D6, size: 0x8, addend: 0x0, symName: __ZN8ImVectorI16ImGuiContextHookED1Ev, symObjAddr: 0xEFF8, symBinAddr: 0x10002B48C, symSize: 0x2C }
  - { offsetInCU: 0x2372C, offset: 0x77300, size: 0x8, addend: 0x0, symName: __ZN13ImChunkStreamI18ImGuiTableSettingsED1Ev, symObjAddr: 0xF024, symBinAddr: 0x10002B4B8, symSize: 0x2C }
  - { offsetInCU: 0x23759, offset: 0x7732D, size: 0x8, addend: 0x0, symName: __ZN13ImChunkStreamI19ImGuiWindowSettingsED1Ev, symObjAddr: 0xF050, symBinAddr: 0x10002B4E4, symSize: 0x2C }
  - { offsetInCU: 0x23786, offset: 0x7735A, size: 0x8, addend: 0x0, symName: __ZN8ImVectorI20ImGuiSettingsHandlerED1Ev, symObjAddr: 0xF07C, symBinAddr: 0x10002B510, symSize: 0x2C }
  - { offsetInCU: 0x237B0, offset: 0x77384, size: 0x8, addend: 0x0, symName: __ZN8ImVectorIjED1Ev, symObjAddr: 0xF0A8, symBinAddr: 0x10002B53C, symSize: 0x2C }
  - { offsetInCU: 0x237DA, offset: 0x773AE, size: 0x8, addend: 0x0, symName: __ZN30ImGuiInputTextDeactivatedStateD1Ev, symObjAddr: 0xF0D4, symBinAddr: 0x10002B568, symSize: 0x2C }
  - { offsetInCU: 0x23807, offset: 0x773DB, size: 0x8, addend: 0x0, symName: __ZN6ImPoolI21ImGuiMultiSelectStateED1Ev, symObjAddr: 0xF100, symBinAddr: 0x10002B594, symSize: 0x2C }
  - { offsetInCU: 0x23831, offset: 0x77405, size: 0x8, addend: 0x0, symName: __ZN8ImVectorI24ImGuiMultiSelectTempDataED1Ev, symObjAddr: 0xF12C, symBinAddr: 0x10002B5C0, symSize: 0x2C }
  - { offsetInCU: 0x2385B, offset: 0x7742F, size: 0x8, addend: 0x0, symName: __ZN8ImVectorI20ImGuiShrinkWidthItemED1Ev, symObjAddr: 0xF158, symBinAddr: 0x10002B5EC, symSize: 0x2C }
  - { offsetInCU: 0x23885, offset: 0x77459, size: 0x8, addend: 0x0, symName: __ZN8ImVectorI15ImGuiPtrOrIndexED1Ev, symObjAddr: 0xF184, symBinAddr: 0x10002B618, symSize: 0x2C }
  - { offsetInCU: 0x238AF, offset: 0x77483, size: 0x8, addend: 0x0, symName: __ZN6ImPoolI11ImGuiTabBarED1Ev, symObjAddr: 0xF1B0, symBinAddr: 0x10002B644, symSize: 0x2C }
  - { offsetInCU: 0x238D9, offset: 0x774AD, size: 0x8, addend: 0x0, symName: __ZN8ImVectorI13ImDrawChannelED1Ev, symObjAddr: 0xF1DC, symBinAddr: 0x10002B670, symSize: 0x2C }
  - { offsetInCU: 0x23903, offset: 0x774D7, size: 0x8, addend: 0x0, symName: __ZN8ImVectorIfED1Ev, symObjAddr: 0xF208, symBinAddr: 0x10002B69C, symSize: 0x2C }
  - { offsetInCU: 0x2392D, offset: 0x77501, size: 0x8, addend: 0x0, symName: __ZN6ImPoolI10ImGuiTableED1Ev, symObjAddr: 0xF234, symBinAddr: 0x10002B6C8, symSize: 0x2C }
  - { offsetInCU: 0x23957, offset: 0x7752B, size: 0x8, addend: 0x0, symName: __ZN8ImVectorI18ImGuiTableTempDataED1Ev, symObjAddr: 0xF260, symBinAddr: 0x10002B6F4, symSize: 0x2C }
  - { offsetInCU: 0x23981, offset: 0x77555, size: 0x8, addend: 0x0, symName: __ZN8ImVectorI20ImGuiListClipperDataED1Ev, symObjAddr: 0xF28C, symBinAddr: 0x10002B720, symSize: 0x2C }
  - { offsetInCU: 0x239AB, offset: 0x7757F, size: 0x8, addend: 0x0, symName: __ZN8ImVectorIhED1Ev, symObjAddr: 0xF2B8, symBinAddr: 0x10002B74C, symSize: 0x2C }
  - { offsetInCU: 0x239D5, offset: 0x775A9, size: 0x8, addend: 0x0, symName: __ZN8ImVectorI19ImGuiFocusScopeDataED1Ev, symObjAddr: 0xF2E4, symBinAddr: 0x10002B778, symSize: 0x2C }
  - { offsetInCU: 0x239FF, offset: 0x775D3, size: 0x8, addend: 0x0, symName: __ZN8ImVectorIP14ImGuiViewportPED1Ev, symObjAddr: 0xF310, symBinAddr: 0x10002B7A4, symSize: 0x2C }
  - { offsetInCU: 0x23A29, offset: 0x775FD, size: 0x8, addend: 0x0, symName: __ZN8ImVectorI22ImGuiTreeNodeStackDataED1Ev, symObjAddr: 0xF33C, symBinAddr: 0x10002B7D0, symSize: 0x2C }
  - { offsetInCU: 0x23A53, offset: 0x77627, size: 0x8, addend: 0x0, symName: __ZN8ImVectorI14ImGuiPopupDataED1Ev, symObjAddr: 0xF368, symBinAddr: 0x10002B7FC, symSize: 0x2C }
  - { offsetInCU: 0x23A7D, offset: 0x77651, size: 0x8, addend: 0x0, symName: __ZN8ImVectorI14ImGuiGroupDataED1Ev, symObjAddr: 0xF394, symBinAddr: 0x10002B828, symSize: 0x2C }
  - { offsetInCU: 0x23AA7, offset: 0x7767B, size: 0x8, addend: 0x0, symName: __ZN8ImVectorIiED1Ev, symObjAddr: 0xF3C0, symBinAddr: 0x10002B854, symSize: 0x2C }
  - { offsetInCU: 0x23AD1, offset: 0x776A5, size: 0x8, addend: 0x0, symName: __ZN8ImVectorIP6ImFontED1Ev, symObjAddr: 0xF3EC, symBinAddr: 0x10002B880, symSize: 0x2C }
  - { offsetInCU: 0x23AFB, offset: 0x776CF, size: 0x8, addend: 0x0, symName: __ZN8ImVectorI13ImGuiStyleModED1Ev, symObjAddr: 0xF418, symBinAddr: 0x10002B8AC, symSize: 0x2C }
  - { offsetInCU: 0x23B25, offset: 0x776F9, size: 0x8, addend: 0x0, symName: __ZN8ImVectorI13ImGuiColorModED1Ev, symObjAddr: 0xF444, symBinAddr: 0x10002B8D8, symSize: 0x2C }
  - { offsetInCU: 0x23B4F, offset: 0x77723, size: 0x8, addend: 0x0, symName: __ZN20ImGuiKeyRoutingTableD1Ev, symObjAddr: 0xF470, symBinAddr: 0x10002B904, symSize: 0x2C }
  - { offsetInCU: 0x23B7C, offset: 0x77750, size: 0x8, addend: 0x0, symName: __ZN12ImGuiStorageD1Ev, symObjAddr: 0xF49C, symBinAddr: 0x10002B930, symSize: 0x2C }
  - { offsetInCU: 0x23BA9, offset: 0x7777D, size: 0x8, addend: 0x0, symName: __ZN8ImVectorI20ImGuiWindowStackDataED1Ev, symObjAddr: 0xF4C8, symBinAddr: 0x10002B95C, symSize: 0x2C }
  - { offsetInCU: 0x23BD3, offset: 0x777A7, size: 0x8, addend: 0x0, symName: __ZN8ImVectorIP11ImGuiWindowED1Ev, symObjAddr: 0xF4F4, symBinAddr: 0x10002B988, symSize: 0x2C }
  - { offsetInCU: 0x23BFD, offset: 0x777D1, size: 0x8, addend: 0x0, symName: __ZN8ImVectorI15ImGuiInputEventED1Ev, symObjAddr: 0xF520, symBinAddr: 0x10002B9B4, symSize: 0x2C }
  - { offsetInCU: 0x23C27, offset: 0x777FB, size: 0x8, addend: 0x0, symName: __ZN20ImDrawListSharedDataD1Ev, symObjAddr: 0xF54C, symBinAddr: 0x10002B9E0, symSize: 0x2C }
  - { offsetInCU: 0x23C54, offset: 0x77828, size: 0x8, addend: 0x0, symName: __ZN7ImGuiIOD1Ev, symObjAddr: 0xF578, symBinAddr: 0x10002BA0C, symSize: 0x2C }
  - { offsetInCU: 0x23C81, offset: 0x77855, size: 0x8, addend: 0x0, symName: __ZN20ImGuiSettingsHandlerC1Ev, symObjAddr: 0xF5A4, symBinAddr: 0x10002BA38, symSize: 0x2C }
  - { offsetInCU: 0x23CAB, offset: 0x7787F, size: 0x8, addend: 0x0, symName: __ZL30WindowSettingsHandler_ClearAllP12ImGuiContextP20ImGuiSettingsHandler, symObjAddr: 0xF5D0, symBinAddr: 0x10002BA64, symSize: 0xA8 }
  - { offsetInCU: 0x23D42, offset: 0x77916, size: 0x8, addend: 0x0, symName: __ZL30WindowSettingsHandler_ReadOpenP12ImGuiContextP20ImGuiSettingsHandlerPKc, symObjAddr: 0xF678, symBinAddr: 0x10002BB0C, symSize: 0x9C }
  - { offsetInCU: 0x23DA5, offset: 0x77979, size: 0x8, addend: 0x0, symName: __ZL30WindowSettingsHandler_ReadLineP12ImGuiContextP20ImGuiSettingsHandlerPvPKc, symObjAddr: 0xF714, symBinAddr: 0x10002BBA8, symSize: 0x184 }
  - { offsetInCU: 0x23E31, offset: 0x77A05, size: 0x8, addend: 0x0, symName: __ZL30WindowSettingsHandler_ApplyAllP12ImGuiContextP20ImGuiSettingsHandler, symObjAddr: 0xF898, symBinAddr: 0x10002BD2C, symSize: 0xC4 }
  - { offsetInCU: 0x23EA8, offset: 0x77A7C, size: 0x8, addend: 0x0, symName: __ZL30WindowSettingsHandler_WriteAllP12ImGuiContextP20ImGuiSettingsHandlerP15ImGuiTextBuffer, symObjAddr: 0xF95C, symBinAddr: 0x10002BDF0, symSize: 0x388 }
  - { offsetInCU: 0x23FAA, offset: 0x77B7E, size: 0x8, addend: 0x0, symName: __ZL39Platform_GetClipboardTextFn_DefaultImplP12ImGuiContext, symObjAddr: 0xFDE4, symBinAddr: 0x10002C278, symSize: 0x64 }
  - { offsetInCU: 0x23FE8, offset: 0x77BBC, size: 0x8, addend: 0x0, symName: __ZL39Platform_SetClipboardTextFn_DefaultImplP12ImGuiContextPKc, symObjAddr: 0xFE48, symBinAddr: 0x10002C2DC, symSize: 0xC4 }
  - { offsetInCU: 0x24040, offset: 0x77C14, size: 0x8, addend: 0x0, symName: __ZL34Platform_OpenInShellFn_DefaultImplP12ImGuiContextPKc, symObjAddr: 0xFF0C, symBinAddr: 0x10002C3A0, symSize: 0x110 }
  - { offsetInCU: 0x240B5, offset: 0x77C89, size: 0x8, addend: 0x0, symName: __ZL33Platform_SetImeDataFn_DefaultImplP12ImGuiContextP13ImGuiViewportP20ImGuiPlatformImeData, symObjAddr: 0x1001C, symBinAddr: 0x10002C4B0, symSize: 0x18 }
  - { offsetInCU: 0x240F2, offset: 0x77CC6, size: 0x8, addend: 0x0, symName: __ZN14ImGuiViewportPC1Ev, symObjAddr: 0x10034, symBinAddr: 0x10002C4C8, symSize: 0x2C }
  - { offsetInCU: 0x2411C, offset: 0x77CF0, size: 0x8, addend: 0x0, symName: __ZN8ImVectorIP14ImGuiViewportPE9push_backERKS1_, symObjAddr: 0x10060, symBinAddr: 0x10002C4F4, symSize: 0x84 }
  - { offsetInCU: 0x24151, offset: 0x77D25, size: 0x8, addend: 0x0, symName: __ZN8ImVectorIcE6resizeEiRKc, symObjAddr: 0x100E4, symBinAddr: 0x10002C578, symSize: 0xE4 }
  - { offsetInCU: 0x241B2, offset: 0x77D86, size: 0x8, addend: 0x0, symName: __ZN10ImBitArrayILi154ELin512EE6SetBitEi, symObjAddr: 0x101C8, symBinAddr: 0x10002C65C, symSize: 0xA0 }
  - { offsetInCU: 0x241E7, offset: 0x77DBB, size: 0x8, addend: 0x0, symName: __Z9IM_DELETEI11ImFontAtlasEvPT_, symObjAddr: 0x10268, symBinAddr: 0x10002C6FC, symSize: 0x44 }
  - { offsetInCU: 0x2421A, offset: 0x77DEE, size: 0x8, addend: 0x0, symName: __ZN8ImVectorI6ImVec2E5clearEv, symObjAddr: 0x102AC, symBinAddr: 0x10002C740, symSize: 0x58 }
  - { offsetInCU: 0x24240, offset: 0x77E14, size: 0x8, addend: 0x0, symName: __ZN8ImVectorIP11ImGuiWindowE12clear_deleteEv, symObjAddr: 0x10468, symBinAddr: 0x10002C8FC, symSize: 0x78 }
  - { offsetInCU: 0x24283, offset: 0x77E57, size: 0x8, addend: 0x0, symName: __ZN8ImVectorIP11ImGuiWindowE5clearEv, symObjAddr: 0x104E0, symBinAddr: 0x10002C974, symSize: 0x58 }
  - { offsetInCU: 0x242A9, offset: 0x77E7D, size: 0x8, addend: 0x0, symName: __ZN8ImVectorI20ImGuiWindowStackDataE5clearEv, symObjAddr: 0x10538, symBinAddr: 0x10002C9CC, symSize: 0x58 }
  - { offsetInCU: 0x242CF, offset: 0x77EA3, size: 0x8, addend: 0x0, symName: __ZN12ImGuiStorage5ClearEv, symObjAddr: 0x10590, symBinAddr: 0x10002CA24, symSize: 0x24 }
  - { offsetInCU: 0x242F5, offset: 0x77EC9, size: 0x8, addend: 0x0, symName: __ZN20ImGuiKeyRoutingTable5ClearEv, symObjAddr: 0x105B4, symBinAddr: 0x10002CA48, symSize: 0x80 }
  - { offsetInCU: 0x24338, offset: 0x77F0C, size: 0x8, addend: 0x0, symName: __ZN8ImVectorI13ImGuiColorModE5clearEv, symObjAddr: 0x10634, symBinAddr: 0x10002CAC8, symSize: 0x58 }
  - { offsetInCU: 0x2435E, offset: 0x77F32, size: 0x8, addend: 0x0, symName: __ZN8ImVectorI13ImGuiStyleModE5clearEv, symObjAddr: 0x1068C, symBinAddr: 0x10002CB20, symSize: 0x58 }
  - { offsetInCU: 0x24384, offset: 0x77F58, size: 0x8, addend: 0x0, symName: __ZN8ImVectorIP6ImFontE5clearEv, symObjAddr: 0x106E4, symBinAddr: 0x10002CB78, symSize: 0x58 }
  - { offsetInCU: 0x243AA, offset: 0x77F7E, size: 0x8, addend: 0x0, symName: __ZN8ImVectorI14ImGuiPopupDataE5clearEv, symObjAddr: 0x1073C, symBinAddr: 0x10002CBD0, symSize: 0x58 }
  - { offsetInCU: 0x243D0, offset: 0x77FA4, size: 0x8, addend: 0x0, symName: __ZN8ImVectorI22ImGuiTreeNodeStackDataE5clearEv, symObjAddr: 0x10794, symBinAddr: 0x10002CC28, symSize: 0x58 }
  - { offsetInCU: 0x243F6, offset: 0x77FCA, size: 0x8, addend: 0x0, symName: __ZN8ImVectorIP14ImGuiViewportPE12clear_deleteEv, symObjAddr: 0x107EC, symBinAddr: 0x10002CC80, symSize: 0x78 }
  - { offsetInCU: 0x24439, offset: 0x7800D, size: 0x8, addend: 0x0, symName: __ZN6ImPoolI11ImGuiTabBarE5ClearEv, symObjAddr: 0x10864, symBinAddr: 0x10002CCF8, symSize: 0xBC }
  - { offsetInCU: 0x24499, offset: 0x7806D, size: 0x8, addend: 0x0, symName: __ZN8ImVectorI15ImGuiPtrOrIndexE5clearEv, symObjAddr: 0x10920, symBinAddr: 0x10002CDB4, symSize: 0x58 }
  - { offsetInCU: 0x244BF, offset: 0x78093, size: 0x8, addend: 0x0, symName: __ZN8ImVectorI20ImGuiShrinkWidthItemE5clearEv, symObjAddr: 0x10978, symBinAddr: 0x10002CE0C, symSize: 0x58 }
  - { offsetInCU: 0x244E5, offset: 0x780B9, size: 0x8, addend: 0x0, symName: __ZN8ImVectorI20ImGuiListClipperDataE14clear_destructEv, symObjAddr: 0x109D0, symBinAddr: 0x10002CE64, symSize: 0x80 }
  - { offsetInCU: 0x24528, offset: 0x780FC, size: 0x8, addend: 0x0, symName: __ZN6ImPoolI10ImGuiTableE5ClearEv, symObjAddr: 0x10A50, symBinAddr: 0x10002CEE4, symSize: 0xBC }
  - { offsetInCU: 0x24588, offset: 0x7815C, size: 0x8, addend: 0x0, symName: __ZN8ImVectorI18ImGuiTableTempDataE14clear_destructEv, symObjAddr: 0x10B0C, symBinAddr: 0x10002CFA0, symSize: 0x80 }
  - { offsetInCU: 0x245CB, offset: 0x7819F, size: 0x8, addend: 0x0, symName: __ZN8ImVectorI13ImDrawChannelE5clearEv, symObjAddr: 0x10B8C, symBinAddr: 0x10002D020, symSize: 0x58 }
  - { offsetInCU: 0x245F1, offset: 0x781C5, size: 0x8, addend: 0x0, symName: __ZN6ImPoolI21ImGuiMultiSelectStateE5ClearEv, symObjAddr: 0x10BE4, symBinAddr: 0x10002D078, symSize: 0xB8 }
  - { offsetInCU: 0x24651, offset: 0x78225, size: 0x8, addend: 0x0, symName: __ZN8ImVectorI24ImGuiMultiSelectTempDataE14clear_destructEv, symObjAddr: 0x10C9C, symBinAddr: 0x10002D130, symSize: 0x80 }
  - { offsetInCU: 0x24694, offset: 0x78268, size: 0x8, addend: 0x0, symName: __ZN8ImVectorIcE5clearEv, symObjAddr: 0x10D1C, symBinAddr: 0x10002D1B0, symSize: 0x58 }
  - { offsetInCU: 0x246BA, offset: 0x7828E, size: 0x8, addend: 0x0, symName: __ZN8ImVectorIjE5clearEv, symObjAddr: 0x10D74, symBinAddr: 0x10002D208, symSize: 0x58 }
  - { offsetInCU: 0x246E0, offset: 0x782B4, size: 0x8, addend: 0x0, symName: __ZN19ImGuiInputTextState15ClearFreeMemoryEv, symObjAddr: 0x10DCC, symBinAddr: 0x10002D260, symSize: 0x38 }
  - { offsetInCU: 0x24706, offset: 0x782DA, size: 0x8, addend: 0x0, symName: __ZN30ImGuiInputTextDeactivatedState15ClearFreeMemoryEv, symObjAddr: 0x10E04, symBinAddr: 0x10002D298, symSize: 0x2C }
  - { offsetInCU: 0x2472C, offset: 0x78300, size: 0x8, addend: 0x0, symName: __ZN13ImChunkStreamI19ImGuiWindowSettingsE5clearEv, symObjAddr: 0x10E30, symBinAddr: 0x10002D2C4, symSize: 0x24 }
  - { offsetInCU: 0x24752, offset: 0x78326, size: 0x8, addend: 0x0, symName: __ZN8ImVectorI20ImGuiSettingsHandlerE5clearEv, symObjAddr: 0x10E54, symBinAddr: 0x10002D2E8, symSize: 0x58 }
  - { offsetInCU: 0x24778, offset: 0x7834C, size: 0x8, addend: 0x0, symName: __ZN15ImGuiTextBuffer5clearEv, symObjAddr: 0x10EAC, symBinAddr: 0x10002D340, symSize: 0x24 }
  - { offsetInCU: 0x2479E, offset: 0x78372, size: 0x8, addend: 0x0, symName: __ZN14ImGuiTextIndex5clearEv, symObjAddr: 0x10ED0, symBinAddr: 0x10002D364, symSize: 0x30 }
  - { offsetInCU: 0x247C4, offset: 0x78398, size: 0x8, addend: 0x0, symName: __ZN8ImVectorI16ImGuiContextHookE9push_backERKS0_, symObjAddr: 0x10FFC, symBinAddr: 0x10002D490, symSize: 0x90 }
  - { offsetInCU: 0x247F9, offset: 0x783CD, size: 0x8, addend: 0x0, symName: __ZN8ImVectorI16ImGuiContextHookE4backEv, symObjAddr: 0x1108C, symBinAddr: 0x10002D520, symSize: 0x78 }
  - { offsetInCU: 0x2481F, offset: 0x783F3, size: 0x8, addend: 0x0, symName: __ZN8ImVectorI16ImGuiContextHookE5beginEv, symObjAddr: 0x111F0, symBinAddr: 0x10002D684, symSize: 0x18 }
  - { offsetInCU: 0x24845, offset: 0x78419, size: 0x8, addend: 0x0, symName: __ZN8ImVectorI16ImGuiContextHookE3endEv, symObjAddr: 0x11208, symBinAddr: 0x10002D69C, symSize: 0x20 }
  - { offsetInCU: 0x2486B, offset: 0x7843F, size: 0x8, addend: 0x0, symName: __ZN11ImGuiWindowC2EP12ImGuiContextPKc, symObjAddr: 0x11228, symBinAddr: 0x10002D6BC, symSize: 0x4D8 }
  - { offsetInCU: 0x248BB, offset: 0x7848F, size: 0x8, addend: 0x0, symName: __ZN19ImGuiWindowTempDataC1Ev, symObjAddr: 0x11700, symBinAddr: 0x10002DB94, symSize: 0x2C }
  - { offsetInCU: 0x248E8, offset: 0x784BC, size: 0x8, addend: 0x0, symName: __ZN8ImVec2ihC1Ev, symObjAddr: 0x1172C, symBinAddr: 0x10002DBC0, symSize: 0x2C }
  - { offsetInCU: 0x24912, offset: 0x784E6, size: 0x8, addend: 0x0, symName: __ZN8ImVectorI15ImGuiOldColumnsEC1Ev, symObjAddr: 0x11758, symBinAddr: 0x10002DBEC, symSize: 0x2C }
  - { offsetInCU: 0x2493C, offset: 0x78510, size: 0x8, addend: 0x0, symName: __ZN8ImVectorIjE9push_backERKj, symObjAddr: 0x11784, symBinAddr: 0x10002DC18, symSize: 0x84 }
  - { offsetInCU: 0x24971, offset: 0x78545, size: 0x8, addend: 0x0, symName: __ZN11ImGuiWindow5GetIDEPKcS1_, symObjAddr: 0x11808, symBinAddr: 0x10002DC9C, symSize: 0xD0 }
  - { offsetInCU: 0x249E5, offset: 0x785B9, size: 0x8, addend: 0x0, symName: __ZN8ImVectorI15ImGuiOldColumnsED1Ev, symObjAddr: 0x118D8, symBinAddr: 0x10002DD6C, symSize: 0x2C }
  - { offsetInCU: 0x24A0F, offset: 0x785E3, size: 0x8, addend: 0x0, symName: __ZN19ImGuiWindowTempDataD1Ev, symObjAddr: 0x11904, symBinAddr: 0x10002DD98, symSize: 0x2C }
  - { offsetInCU: 0x24A3C, offset: 0x78610, size: 0x8, addend: 0x0, symName: __ZN11ImGuiWindowC1EP12ImGuiContextPKc, symObjAddr: 0x11930, symBinAddr: 0x10002DDC4, symSize: 0x3C }
  - { offsetInCU: 0x24A87, offset: 0x7865B, size: 0x8, addend: 0x0, symName: __ZN11ImGuiWindowD2Ev, symObjAddr: 0x1196C, symBinAddr: 0x10002DE00, symSize: 0xD4 }
  - { offsetInCU: 0x24AB4, offset: 0x78688, size: 0x8, addend: 0x0, symName: __Z9IM_DELETEIcEvPT_, symObjAddr: 0x11A40, symBinAddr: 0x10002DED4, symSize: 0x3C }
  - { offsetInCU: 0x24AE7, offset: 0x786BB, size: 0x8, addend: 0x0, symName: __ZN8ImVectorI15ImGuiOldColumnsE14clear_destructEv, symObjAddr: 0x11A7C, symBinAddr: 0x10002DF10, symSize: 0x80 }
  - { offsetInCU: 0x24B2A, offset: 0x786FE, size: 0x8, addend: 0x0, symName: __ZN11ImGuiWindowD1Ev, symObjAddr: 0x11AFC, symBinAddr: 0x10002DF90, symSize: 0x2C }
  - { offsetInCU: 0x24B57, offset: 0x7872B, size: 0x8, addend: 0x0, symName: __ZN8ImVectorIiE5clearEv, symObjAddr: 0x11B88, symBinAddr: 0x10002E01C, symSize: 0x58 }
  - { offsetInCU: 0x24B7D, offset: 0x78751, size: 0x8, addend: 0x0, symName: __ZN8ImVectorI14ImGuiGroupDataE5clearEv, symObjAddr: 0x11BE0, symBinAddr: 0x10002E074, symSize: 0x58 }
  - { offsetInCU: 0x24BA3, offset: 0x78777, size: 0x8, addend: 0x0, symName: __ZN8ImVectorIfE5clearEv, symObjAddr: 0x11CC4, symBinAddr: 0x10002E158, symSize: 0x58 }
  - { offsetInCU: 0x24BC9, offset: 0x7879D, size: 0x8, addend: 0x0, symName: __ZN8ImVectorItE7reserveEi, symObjAddr: 0x11D80, symBinAddr: 0x10002E214, symSize: 0xAC }
  - { offsetInCU: 0x24C0D, offset: 0x787E1, size: 0x8, addend: 0x0, symName: __ZN8ImVectorI10ImDrawVertE7reserveEi, symObjAddr: 0x11E2C, symBinAddr: 0x10002E2C0, symSize: 0xB4 }
  - { offsetInCU: 0x24C51, offset: 0x78825, size: 0x8, addend: 0x0, symName: __ZL25ApplyHoverFlagsForTooltipii, symObjAddr: 0x12E38, symBinAddr: 0x10002F2CC, symSize: 0x44 }
  - { offsetInCU: 0x24C8F, offset: 0x78863, size: 0x8, addend: 0x0, symName: __ZL25CalcDelayFromHoveredFlagsi, symObjAddr: 0x12E7C, symBinAddr: 0x10002F310, symSize: 0x74 }
  - { offsetInCU: 0x24CCD, offset: 0x788A1, size: 0x8, addend: 0x0, symName: __ZN11ImGuiWindow12GetIDFromPosERK6ImVec2, symObjAddr: 0x12EF0, symBinAddr: 0x10002F384, symSize: 0x68 }
  - { offsetInCU: 0x24D32, offset: 0x78906, size: 0x8, addend: 0x0, symName: __ZN8ImVectorIP14ImGuiViewportPEixEi, symObjAddr: 0x13EB8, symBinAddr: 0x10003034C, symSize: 0xA0 }
  - { offsetInCU: 0x24D67, offset: 0x7893B, size: 0x8, addend: 0x0, symName: __ZL23GetViewportBgFgDrawListP14ImGuiViewportPmPKc, symObjAddr: 0x13FA8, symBinAddr: 0x10003043C, symSize: 0x1C4 }
  - { offsetInCU: 0x24DD2, offset: 0x789A6, size: 0x8, addend: 0x0, symName: __ZNK11ImGuiWindow12TitleBarRectEv, symObjAddr: 0x15198, symBinAddr: 0x10003162C, symSize: 0x6C }
  - { offsetInCU: 0x24DF8, offset: 0x789CC, size: 0x8, addend: 0x0, symName: __ZNK6ImRect8ContainsERK6ImVec2, symObjAddr: 0x15204, symBinAddr: 0x100031698, symSize: 0xB8 }
  - { offsetInCU: 0x24E2D, offset: 0x78A01, size: 0x8, addend: 0x0, symName: __ZN8ImVectorI16ImGuiContextHookEixEi, symObjAddr: 0x17334, symBinAddr: 0x1000337C8, symSize: 0xA0 }
  - { offsetInCU: 0x24E62, offset: 0x78A36, size: 0x8, addend: 0x0, symName: __ZN8ImVectorI16ImGuiContextHookE5eraseEPKS0_, symObjAddr: 0x173D4, symBinAddr: 0x100033868, symSize: 0x108 }
  - { offsetInCU: 0x24EA6, offset: 0x78A7A, size: 0x8, addend: 0x0, symName: __ZN8ImVectorIjE6resizeEi, symObjAddr: 0x17D24, symBinAddr: 0x1000341B8, symSize: 0x68 }
  - { offsetInCU: 0x24EDB, offset: 0x78AAF, size: 0x8, addend: 0x0, symName: __ZN8ImVectorI15ImGuiInputEventE6resizeEi, symObjAddr: 0x17D8C, symBinAddr: 0x100034220, symSize: 0x68 }
  - { offsetInCU: 0x24F10, offset: 0x78AE4, size: 0x8, addend: 0x0, symName: __ZL23SetupDrawListSharedDatav, symObjAddr: 0x187AC, symBinAddr: 0x100034C40, symSize: 0x1E0 }
  - { offsetInCU: 0x24F9C, offset: 0x78B70, size: 0x8, addend: 0x0, symName: __ZNK6ImFont8IsLoadedEv, symObjAddr: 0x18BC4, symBinAddr: 0x100035058, symSize: 0x24 }
  - { offsetInCU: 0x24FC2, offset: 0x78B96, size: 0x8, addend: 0x0, symName: __ZN8ImVectorIP11ImGuiWindowE5beginEv, symObjAddr: 0x1A718, symBinAddr: 0x100036BAC, symSize: 0x18 }
  - { offsetInCU: 0x24FE8, offset: 0x78BBC, size: 0x8, addend: 0x0, symName: __ZN8ImVectorIP11ImGuiWindowE3endEv, symObjAddr: 0x1A730, symBinAddr: 0x100036BC4, symSize: 0x20 }
  - { offsetInCU: 0x2500E, offset: 0x78BE2, size: 0x8, addend: 0x0, symName: __ZN8ImVectorIfEixEi, symObjAddr: 0x1AEF4, symBinAddr: 0x100037388, symSize: 0xA0 }
  - { offsetInCU: 0x25043, offset: 0x78C17, size: 0x8, addend: 0x0, symName: __ZN6ImPoolI10ImGuiTableE10GetByIndexEi, symObjAddr: 0x1AF94, symBinAddr: 0x100037428, symSize: 0x2C }
  - { offsetInCU: 0x25078, offset: 0x78C4C, size: 0x8, addend: 0x0, symName: __ZN8ImVectorI18ImGuiTableTempDataE5beginEv, symObjAddr: 0x1AFC0, symBinAddr: 0x100037454, symSize: 0x18 }
  - { offsetInCU: 0x2509E, offset: 0x78C72, size: 0x8, addend: 0x0, symName: __ZN8ImVectorI18ImGuiTableTempDataE3endEv, symObjAddr: 0x1AFD8, symBinAddr: 0x10003746C, symSize: 0x28 }
  - { offsetInCU: 0x250C4, offset: 0x78C98, size: 0x8, addend: 0x0, symName: __ZN8ImVectorI20ImGuiWindowStackDataE6resizeEi, symObjAddr: 0x1B168, symBinAddr: 0x1000375FC, symSize: 0x68 }
  - { offsetInCU: 0x250F9, offset: 0x78CCD, size: 0x8, addend: 0x0, symName: __ZN8ImVectorI14ImGuiPopupDataE6resizeEi, symObjAddr: 0x1B1D0, symBinAddr: 0x100037664, symSize: 0x68 }
  - { offsetInCU: 0x2512E, offset: 0x78D02, size: 0x8, addend: 0x0, symName: __ZN8ImVectorIiE6resizeEi, symObjAddr: 0x1B238, symBinAddr: 0x1000376CC, symSize: 0x68 }
  - { offsetInCU: 0x25163, offset: 0x78D37, size: 0x8, addend: 0x0, symName: __ZN8ImVectorIiE4backEv, symObjAddr: 0x1B2A0, symBinAddr: 0x100037734, symSize: 0x70 }
  - { offsetInCU: 0x25189, offset: 0x78D5D, size: 0x8, addend: 0x0, symName: __ZN8ImVectorI14ImGuiGroupDataE6resizeEi, symObjAddr: 0x1B310, symBinAddr: 0x1000377A4, symSize: 0x68 }
  - { offsetInCU: 0x251BE, offset: 0x78D92, size: 0x8, addend: 0x0, symName: __ZN8ImVectorI6ImVec4E4backEv, symObjAddr: 0x1F888, symBinAddr: 0x10003BD1C, symSize: 0x70 }
  - { offsetInCU: 0x251E4, offset: 0x78DB8, size: 0x8, addend: 0x0, symName: __ZN6ImRectC1ERK6ImVec4, symObjAddr: 0x1F8F8, symBinAddr: 0x10003BD8C, symSize: 0x34 }
  - { offsetInCU: 0x2521D, offset: 0x78DF1, size: 0x8, addend: 0x0, symName: __ZN8ImVectorIP11ImGuiWindowEixEi, symObjAddr: 0x1FAE4, symBinAddr: 0x10003BF78, symSize: 0xA0 }
  - { offsetInCU: 0x25252, offset: 0x78E26, size: 0x8, addend: 0x0, symName: __ZL24IsWindowActiveAndVisibleP11ImGuiWindow, symObjAddr: 0x1FB84, symBinAddr: 0x10003C018, symSize: 0x44 }
  - { offsetInCU: 0x25281, offset: 0x78E55, size: 0x8, addend: 0x0, symName: __ZL21GetWindowDisplayLayerP11ImGuiWindow, symObjAddr: 0x1FBC8, symBinAddr: 0x10003C05C, symSize: 0x30 }
  - { offsetInCU: 0x252B0, offset: 0x78E84, size: 0x8, addend: 0x0, symName: __ZN8ImVectorIP11ImGuiWindowE6resizeEi, symObjAddr: 0x20CFC, symBinAddr: 0x10003D190, symSize: 0x68 }
  - { offsetInCU: 0x252E5, offset: 0x78EB9, size: 0x8, addend: 0x0, symName: __ZN8ImVectorIP11ImGuiWindowE7reserveEi, symObjAddr: 0x20D64, symBinAddr: 0x10003D1F8, symSize: 0xAC }
  - { offsetInCU: 0x25329, offset: 0x78EFD, size: 0x8, addend: 0x0, symName: __ZL21AddWindowToSortBufferP8ImVectorIP11ImGuiWindowES1_, symObjAddr: 0x20E10, symBinAddr: 0x10003D2A4, symSize: 0xD8 }
  - { offsetInCU: 0x253BA, offset: 0x78F8E, size: 0x8, addend: 0x0, symName: __ZN8ImVectorIP11ImGuiWindowE4swapERS2_, symObjAddr: 0x20EE8, symBinAddr: 0x10003D37C, symSize: 0x78 }
  - { offsetInCU: 0x2541C, offset: 0x78FF0, size: 0x8, addend: 0x0, symName: __ZL20InitViewportDrawDataP14ImGuiViewportP, symObjAddr: 0x2151C, symBinAddr: 0x10003D9B0, symSize: 0xD4 }
  - { offsetInCU: 0x25465, offset: 0x79039, size: 0x8, addend: 0x0, symName: __ZL23AddRootWindowToDrawDataP11ImGuiWindow, symObjAddr: 0x218C0, symBinAddr: 0x10003DD54, symSize: 0x38 }
  - { offsetInCU: 0x25490, offset: 0x79064, size: 0x8, addend: 0x0, symName: __ZL30FlattenDrawDataIntoSingleLayerP17ImDrawDataBuilder, symObjAddr: 0x218F8, symBinAddr: 0x10003DD8C, symSize: 0x138 }
  - { offsetInCU: 0x25530, offset: 0x79104, size: 0x8, addend: 0x0, symName: __ZN8ImVectorIP10ImDrawListE5beginEv, symObjAddr: 0x21A30, symBinAddr: 0x10003DEC4, symSize: 0x18 }
  - { offsetInCU: 0x25556, offset: 0x7912A, size: 0x8, addend: 0x0, symName: __ZN8ImVectorIP10ImDrawListE3endEv, symObjAddr: 0x21A48, symBinAddr: 0x10003DEDC, symSize: 0x20 }
  - { offsetInCU: 0x2557C, offset: 0x79150, size: 0x8, addend: 0x0, symName: __ZL5ImMaxRK6ImVec2S1_, symObjAddr: 0x21A68, symBinAddr: 0x10003DEFC, symSize: 0xC0 }
  - { offsetInCU: 0x255BA, offset: 0x7918E, size: 0x8, addend: 0x0, symName: __ZNK6ImRect15ContainsWithPadERK6ImVec2S2_, symObjAddr: 0x21B28, symBinAddr: 0x10003DFBC, symSize: 0xEC }
  - { offsetInCU: 0x255FE, offset: 0x791D2, size: 0x8, addend: 0x0, symName: __ZNK6ImRect7GetSizeEv, symObjAddr: 0x222A8, symBinAddr: 0x10003E73C, symSize: 0x48 }
  - { offsetInCU: 0x25624, offset: 0x791F8, size: 0x8, addend: 0x0, symName: __ZNK11ImGuiWindow4RectEv, symObjAddr: 0x23890, symBinAddr: 0x10003FD24, symSize: 0x58 }
  - { offsetInCU: 0x2564A, offset: 0x7921E, size: 0x8, addend: 0x0, symName: __ZL22CalcWindowContentSizesP11ImGuiWindowP6ImVec2S2_, symObjAddr: 0x239D0, symBinAddr: 0x10003FE64, symSize: 0x270 }
  - { offsetInCU: 0x256A2, offset: 0x79276, size: 0x8, addend: 0x0, symName: __ZL21CalcWindowAutoFitSizeP11ImGuiWindowRK6ImVec2, symObjAddr: 0x23C40, symBinAddr: 0x1000400D4, symSize: 0x398 }
  - { offsetInCU: 0x257A4, offset: 0x79378, size: 0x8, addend: 0x0, symName: __ZL29CalcWindowSizeAfterConstraintP11ImGuiWindowRK6ImVec2, symObjAddr: 0x23FD8, symBinAddr: 0x10004046C, symSize: 0x1CC }
  - { offsetInCU: 0x2584A, offset: 0x7941E, size: 0x8, addend: 0x0, symName: __ZL15CreateNewWindowPKci, symObjAddr: 0x24674, symBinAddr: 0x100040B08, symSize: 0x164 }
  - { offsetInCU: 0x258B5, offset: 0x79489, size: 0x8, addend: 0x0, symName: __ZN8ImVectorI14ImGuiPopupDataEixEi, symObjAddr: 0x247D8, symBinAddr: 0x100040C6C, symSize: 0xA8 }
  - { offsetInCU: 0x258EA, offset: 0x794BE, size: 0x8, addend: 0x0, symName: __ZL28SetWindowConditionAllowFlagsP11ImGuiWindowib, symObjAddr: 0x24880, symBinAddr: 0x100040D14, symSize: 0x14C }
  - { offsetInCU: 0x25933, offset: 0x79507, size: 0x8, addend: 0x0, symName: __ZNK8ImVectorI20ImGuiWindowStackDataE5emptyEv, symObjAddr: 0x24C4C, symBinAddr: 0x1000410E0, symSize: 0x24 }
  - { offsetInCU: 0x25959, offset: 0x7952D, size: 0x8, addend: 0x0, symName: __ZN8ImVectorI20ImGuiWindowStackDataE4backEv, symObjAddr: 0x24C70, symBinAddr: 0x100041104, symSize: 0x74 }
  - { offsetInCU: 0x2597F, offset: 0x79553, size: 0x8, addend: 0x0, symName: __ZN8ImVectorI14ImGuiPopupDataE9push_backERKS0_, symObjAddr: 0x24D44, symBinAddr: 0x1000411D8, symSize: 0x94 }
  - { offsetInCU: 0x259B4, offset: 0x79588, size: 0x8, addend: 0x0, symName: __ZL16SetCurrentWindowP11ImGuiWindow, symObjAddr: 0x251FC, symBinAddr: 0x100041690, symSize: 0x14C }
  - { offsetInCU: 0x259EE, offset: 0x795C2, size: 0x8, addend: 0x0, symName: __ZN8ImVectorI14ImGuiPopupDataE4backEv, symObjAddr: 0x2549C, symBinAddr: 0x100041930, symSize: 0x74 }
  - { offsetInCU: 0x25A14, offset: 0x795E8, size: 0x8, addend: 0x0, symName: __ZN8ImVectorIP11ImGuiWindowE9push_backERKS1_, symObjAddr: 0x25510, symBinAddr: 0x1000419A4, symSize: 0x84 }
  - { offsetInCU: 0x25A49, offset: 0x7961D, size: 0x8, addend: 0x0, symName: __ZmlRK6ImVec2S1_, symObjAddr: 0x25594, symBinAddr: 0x100041A28, symSize: 0x58 }
  - { offsetInCU: 0x25A87, offset: 0x7965B, size: 0x8, addend: 0x0, symName: __ZNK14ImGuiViewportP11GetWorkRectEv, symObjAddr: 0x25AB4, symBinAddr: 0x100041F48, symSize: 0x58 }
  - { offsetInCU: 0x25AAD, offset: 0x79681, size: 0x8, addend: 0x0, symName: __ZNK6ImRect8GetWidthEv, symObjAddr: 0x25B0C, symBinAddr: 0x100041FA0, symSize: 0x20 }
  - { offsetInCU: 0x25AD3, offset: 0x796A7, size: 0x8, addend: 0x0, symName: __ZNK6ImRect9GetHeightEv, symObjAddr: 0x25B2C, symBinAddr: 0x100041FC0, symSize: 0x20 }
  - { offsetInCU: 0x25AF9, offset: 0x796CD, size: 0x8, addend: 0x0, symName: __ZL14ClampWindowPosP11ImGuiWindowRK6ImRect, symObjAddr: 0x25B4C, symBinAddr: 0x100041FE0, symSize: 0xB8 }
  - { offsetInCU: 0x25B51, offset: 0x79725, size: 0x8, addend: 0x0, symName: __ZN6ImRect12ClipWithFullERKS_, symObjAddr: 0x270D8, symBinAddr: 0x10004356C, symSize: 0x74 }
  - { offsetInCU: 0x25B86, offset: 0x7975A, size: 0x8, addend: 0x0, symName: __ZL38CalcNextScrollFromScrollTargetAndClampP11ImGuiWindow, symObjAddr: 0x2714C, symBinAddr: 0x1000435E0, symSize: 0x2E8 }
  - { offsetInCU: 0x25C48, offset: 0x7981C, size: 0x8, addend: 0x0, symName: __ZN8ImVectorI9ImDrawCmdEixEi, symObjAddr: 0x27434, symBinAddr: 0x1000438C8, symSize: 0xA0 }
  - { offsetInCU: 0x25C7D, offset: 0x79851, size: 0x8, addend: 0x0, symName: __ZN8ImVectorI9ImDrawCmdE4backEv, symObjAddr: 0x274D4, symBinAddr: 0x100043968, symSize: 0x78 }
  - { offsetInCU: 0x25CA3, offset: 0x79877, size: 0x8, addend: 0x0, symName: __ZN8ImVectorIfE6resizeEi, symObjAddr: 0x27DF0, symBinAddr: 0x100044284, symSize: 0x68 }
  - { offsetInCU: 0x25CD8, offset: 0x798AC, size: 0x8, addend: 0x0, symName: __ZN6ImRectC1Effff, symObjAddr: 0x2853C, symBinAddr: 0x1000449D0, symSize: 0x4C }
  - { offsetInCU: 0x25D3E, offset: 0x79912, size: 0x8, addend: 0x0, symName: __ZL29SetWindowActiveForSkipRefreshP11ImGuiWindow, symObjAddr: 0x2878C, symBinAddr: 0x100044C20, symSize: 0xB8 }
  - { offsetInCU: 0x25DBB, offset: 0x7998F, size: 0x8, addend: 0x0, symName: __ZN19ImGuiNextWindowData10ClearFlagsEv, symObjAddr: 0x28844, symBinAddr: 0x100044CD8, symSize: 0x18 }
  - { offsetInCU: 0x25DE1, offset: 0x799B5, size: 0x8, addend: 0x0, symName: __ZN8ImVectorI14ImGuiPopupDataE8pop_backEv, symObjAddr: 0x28C04, symBinAddr: 0x100045098, symSize: 0x6C }
  - { offsetInCU: 0x25E07, offset: 0x799DB, size: 0x8, addend: 0x0, symName: __ZN8ImVectorI20ImGuiWindowStackDataE8pop_backEv, symObjAddr: 0x29334, symBinAddr: 0x1000457C8, symSize: 0x6C }
  - { offsetInCU: 0x25E2D, offset: 0x79A01, size: 0x8, addend: 0x0, symName: __ZNK11ImGuiWindow12CalcFontSizeEv, symObjAddr: 0x293A0, symBinAddr: 0x100045834, symSize: 0x34 }
  - { offsetInCU: 0x25E62, offset: 0x79A36, size: 0x8, addend: 0x0, symName: __ZN8ImVectorIP6ImFontE9push_backERKS1_, symObjAddr: 0x29454, symBinAddr: 0x1000458E8, symSize: 0x84 }
  - { offsetInCU: 0x25E97, offset: 0x79A6B, size: 0x8, addend: 0x0, symName: __ZN8ImVectorIP6ImFontE8pop_backEv, symObjAddr: 0x295D4, symBinAddr: 0x100045A68, symSize: 0x6C }
  - { offsetInCU: 0x25EBD, offset: 0x79A91, size: 0x8, addend: 0x0, symName: __ZN8ImVectorIP6ImFontE4backEv, symObjAddr: 0x29640, symBinAddr: 0x100045AD4, symSize: 0x70 }
  - { offsetInCU: 0x25EE3, offset: 0x79AB7, size: 0x8, addend: 0x0, symName: __ZN8ImVectorIiE8pop_backEv, symObjAddr: 0x29848, symBinAddr: 0x100045CDC, symSize: 0x6C }
  - { offsetInCU: 0x25F09, offset: 0x79ADD, size: 0x8, addend: 0x0, symName: __ZN8ImVectorIfE9push_backERKf, symObjAddr: 0x29B14, symBinAddr: 0x100045FA8, symSize: 0x84 }
  - { offsetInCU: 0x25F3E, offset: 0x79B12, size: 0x8, addend: 0x0, symName: __ZN8ImVectorIfE4backEv, symObjAddr: 0x29C48, symBinAddr: 0x1000460DC, symSize: 0x70 }
  - { offsetInCU: 0x25F64, offset: 0x79B38, size: 0x8, addend: 0x0, symName: __ZN8ImVectorIfE8pop_backEv, symObjAddr: 0x29CB8, symBinAddr: 0x10004614C, symSize: 0x6C }
  - { offsetInCU: 0x25F8A, offset: 0x79B5E, size: 0x8, addend: 0x0, symName: __ZL21GetCombinedRootWindowP11ImGuiWindowb, symObjAddr: 0x29E2C, symBinAddr: 0x1000462C0, symSize: 0x70 }
  - { offsetInCU: 0x25FD7, offset: 0x79BAB, size: 0x8, addend: 0x0, symName: __ZL14ImIsPowerOfTwoi, symObjAddr: 0x2A25C, symBinAddr: 0x1000466F0, symSize: 0x50 }
  - { offsetInCU: 0x26006, offset: 0x79BDA, size: 0x8, addend: 0x0, symName: __ZpLR6ImVec2RKS_, symObjAddr: 0x2A2AC, symBinAddr: 0x100046740, symSize: 0x48 }
  - { offsetInCU: 0x26044, offset: 0x79C18, size: 0x8, addend: 0x0, symName: __ZN8ImVec2ihC1ERK6ImVec2, symObjAddr: 0x2A510, symBinAddr: 0x1000469A4, symSize: 0x34 }
  - { offsetInCU: 0x2607D, offset: 0x79C51, size: 0x8, addend: 0x0, symName: __ZN8ImVectorI19ImGuiFocusScopeDataE9push_backERKS0_, symObjAddr: 0x2AAF0, symBinAddr: 0x100046F84, symSize: 0x84 }
  - { offsetInCU: 0x260B2, offset: 0x79C86, size: 0x8, addend: 0x0, symName: __ZN8ImVectorI19ImGuiFocusScopeDataE8pop_backEv, symObjAddr: 0x2AB74, symBinAddr: 0x100047008, symSize: 0x6C }
  - { offsetInCU: 0x260D8, offset: 0x79CAC, size: 0x8, addend: 0x0, symName: __ZN8ImVectorI19ImGuiFocusScopeDataE4backEv, symObjAddr: 0x2ABE0, symBinAddr: 0x100047074, symSize: 0x70 }
  - { offsetInCU: 0x260FE, offset: 0x79CD2, size: 0x8, addend: 0x0, symName: __ZN8ImVectorI19ImGuiFocusScopeDataE6resizeEi, symObjAddr: 0x2AEA8, symBinAddr: 0x10004733C, symSize: 0x68 }
  - { offsetInCU: 0x26133, offset: 0x79D07, size: 0x8, addend: 0x0, symName: __ZN8ImVectorIjE4backEv, symObjAddr: 0x2C1C0, symBinAddr: 0x100048654, symSize: 0x70 }
  - { offsetInCU: 0x26159, offset: 0x79D2D, size: 0x8, addend: 0x0, symName: __ZN11ImGuiWindow5GetIDEPKv, symObjAddr: 0x2C644, symBinAddr: 0x100048AD8, symSize: 0x9C }
  - { offsetInCU: 0x261BE, offset: 0x79D92, size: 0x8, addend: 0x0, symName: __ZN11ImGuiWindow5GetIDEi, symObjAddr: 0x2C6E0, symBinAddr: 0x100048B74, symSize: 0x9C }
  - { offsetInCU: 0x26223, offset: 0x79DF7, size: 0x8, addend: 0x0, symName: __ZN11ImGuiWindow18GetIDFromRectangleERK6ImRect, symObjAddr: 0x2C7D8, symBinAddr: 0x100048C6C, symSize: 0x70 }
  - { offsetInCU: 0x26288, offset: 0x79E5C, size: 0x8, addend: 0x0, symName: __ZN8ImVectorIjE8pop_backEv, symObjAddr: 0x2CC64, symBinAddr: 0x1000490F8, symSize: 0x6C }
  - { offsetInCU: 0x262AE, offset: 0x79E82, size: 0x8, addend: 0x0, symName: __ZL17GetModForLRModKey8ImGuiKey, symObjAddr: 0x2CE58, symBinAddr: 0x1000492EC, symSize: 0xEC }
  - { offsetInCU: 0x262DD, offset: 0x79EB1, size: 0x8, addend: 0x0, symName: __ZN8ImVectorI19ImGuiKeyRoutingDataEixEi, symObjAddr: 0x2D674, symBinAddr: 0x100049B08, symSize: 0xA0 }
  - { offsetInCU: 0x26312, offset: 0x79EE6, size: 0x8, addend: 0x0, symName: __ZN8ImVectorI19ImGuiKeyRoutingDataE9push_backERKS0_, symObjAddr: 0x2D714, symBinAddr: 0x100049BA8, symSize: 0x84 }
  - { offsetInCU: 0x26347, offset: 0x79F1B, size: 0x8, addend: 0x0, symName: __ZN19ImGuiKeyRoutingDataC1Ev, symObjAddr: 0x2D798, symBinAddr: 0x100049C2C, symSize: 0x2C }
  - { offsetInCU: 0x26371, offset: 0x79F45, size: 0x8, addend: 0x0, symName: __ZL30IsKeyChordPotentiallyCharInputi, symObjAddr: 0x2DD20, symBinAddr: 0x10004A1B4, symSize: 0x12C }
  - { offsetInCU: 0x263DC, offset: 0x79FB0, size: 0x8, addend: 0x0, symName: __ZL16CalcRoutingScorejji, symObjAddr: 0x2DE4C, symBinAddr: 0x10004A2E0, symSize: 0x200 }
  - { offsetInCU: 0x26455, offset: 0x7A029, size: 0x8, addend: 0x0, symName: __ZL23GetRoutingIdFromOwnerIdj, symObjAddr: 0x2E0A8, symBinAddr: 0x10004A53C, symSize: 0x64 }
  - { offsetInCU: 0x26582, offset: 0x7A156, size: 0x8, addend: 0x0, symName: __ZN10ImBitArrayILi154ELi0EEC1Ev, symObjAddr: 0x2F670, symBinAddr: 0x10004BB04, symSize: 0x2C }
  - { offsetInCU: 0x265AC, offset: 0x7A180, size: 0x8, addend: 0x0, symName: __ZN8ImVectorI15ImGuiInputEventEixEi, symObjAddr: 0x2F69C, symBinAddr: 0x10004BB30, symSize: 0xA8 }
  - { offsetInCU: 0x265E1, offset: 0x7A1B5, size: 0x8, addend: 0x0, symName: __ZNK10ImBitArrayILi154ELi0EE7TestBitEi, symObjAddr: 0x2F744, symBinAddr: 0x10004BBD8, symSize: 0xC0 }
  - { offsetInCU: 0x26616, offset: 0x7A1EA, size: 0x8, addend: 0x0, symName: __ZL21GetMergedModsFromKeysv, symObjAddr: 0x2F804, symBinAddr: 0x10004BC98, symSize: 0xA0 }
  - { offsetInCU: 0x26645, offset: 0x7A219, size: 0x8, addend: 0x0, symName: __ZN10ImBitArrayILi154ELi0EE6SetBitEi, symObjAddr: 0x2F8A4, symBinAddr: 0x10004BD38, symSize: 0xA0 }
  - { offsetInCU: 0x2667A, offset: 0x7A24E, size: 0x8, addend: 0x0, symName: __ZN8ImVectorItE9push_backERKt, symObjAddr: 0x2F944, symBinAddr: 0x10004BDD8, symSize: 0x88 }
  - { offsetInCU: 0x266AF, offset: 0x7A283, size: 0x8, addend: 0x0, symName: __ZL20DebugPrintInputEventPKcPK15ImGuiInputEvent, symObjAddr: 0x2F9CC, symBinAddr: 0x10004BE60, symSize: 0x420 }
  - { offsetInCU: 0x266F8, offset: 0x7A2CC, size: 0x8, addend: 0x0, symName: __ZN8ImVectorI15ImGuiInputEventE5eraseEPKS0_S3_, symObjAddr: 0x2FDEC, symBinAddr: 0x10004C280, symSize: 0x1A8 }
  - { offsetInCU: 0x2675A, offset: 0x7A32E, size: 0x8, addend: 0x0, symName: __ZL6ImLerpRK6ImVec4S1_f, symObjAddr: 0x31310, symBinAddr: 0x10004D7A4, symSize: 0xCC }
  - { offsetInCU: 0x267A7, offset: 0x7A37B, size: 0x8, addend: 0x0, symName: __ZN8ImVectorI14ImGuiGroupDataE4backEv, symObjAddr: 0x32890, symBinAddr: 0x10004ED24, symSize: 0x74 }
  - { offsetInCU: 0x267CD, offset: 0x7A3A1, size: 0x8, addend: 0x0, symName: __ZN8ImVectorI14ImGuiGroupDataE8pop_backEv, symObjAddr: 0x32904, symBinAddr: 0x10004ED98, symSize: 0x6C }
  - { offsetInCU: 0x267F3, offset: 0x7A3C7, size: 0x8, addend: 0x0, symName: __ZL6ImLerpIfET_S0_S0_f, symObjAddr: 0x32E4C, symBinAddr: 0x10004F2E0, symSize: 0x30 }
  - { offsetInCU: 0x26849, offset: 0x7A41D, size: 0x8, addend: 0x0, symName: __ZN8ImVectorI14ImGuiPopupDataE5beginEv, symObjAddr: 0x336BC, symBinAddr: 0x10004FB50, symSize: 0x18 }
  - { offsetInCU: 0x2686F, offset: 0x7A443, size: 0x8, addend: 0x0, symName: __ZN8ImVectorI14ImGuiPopupDataE3endEv, symObjAddr: 0x336D4, symBinAddr: 0x10004FB68, symSize: 0x28 }
  - { offsetInCU: 0x26895, offset: 0x7A469, size: 0x8, addend: 0x0, symName: __ZN14ImGuiPopupDataC1Ev, symObjAddr: 0x33A34, symBinAddr: 0x10004FEC8, symSize: 0x2C }
  - { offsetInCU: 0x268BF, offset: 0x7A493, size: 0x8, addend: 0x0, symName: __ZNK13ImGuiViewport9GetCenterEv, symObjAddr: 0x349C8, symBinAddr: 0x100050E5C, symSize: 0x4C }
  - { offsetInCU: 0x268E5, offset: 0x7A4B9, size: 0x8, addend: 0x0, symName: __ZL7ImClampRK6ImVec2S1_S1_, symObjAddr: 0x356E8, symBinAddr: 0x100051B7C, symSize: 0x13C }
  - { offsetInCU: 0x26932, offset: 0x7A506, size: 0x8, addend: 0x0, symName: __ZN8ImVectorI20ImGuiWindowStackDataEixEi, symObjAddr: 0x3592C, symBinAddr: 0x100051DC0, symSize: 0xA8 }
  - { offsetInCU: 0x26967, offset: 0x7A53B, size: 0x8, addend: 0x0, symName: __ZN8ImVectorIP11ImGuiWindowE4backEv, symObjAddr: 0x35D00, symBinAddr: 0x100052194, symSize: 0x70 }
  - { offsetInCU: 0x2698D, offset: 0x7A561, size: 0x8, addend: 0x0, symName: __ZNK8ImVectorIP11ImGuiWindowE14index_from_ptrEPKS1_, symObjAddr: 0x36068, symBinAddr: 0x1000524FC, symSize: 0xC0 }
  - { offsetInCU: 0x269D1, offset: 0x7A5A5, size: 0x8, addend: 0x0, symName: __ZN8ImVectorIP11ImGuiWindowE4findERKS1_, symObjAddr: 0x36128, symBinAddr: 0x1000525BC, symSize: 0x88 }
  - { offsetInCU: 0x26A24, offset: 0x7A5F8, size: 0x8, addend: 0x0, symName: __ZN6ImVec2ixEm, symObjAddr: 0x36420, symBinAddr: 0x1000528B4, symSize: 0x94 }
  - { offsetInCU: 0x26A59, offset: 0x7A62D, size: 0x8, addend: 0x0, symName: __ZN16ImGuiNavItemData5ClearEv, symObjAddr: 0x36874, symBinAddr: 0x100052D08, symSize: 0x40 }
  - { offsetInCU: 0x26A7F, offset: 0x7A653, size: 0x8, addend: 0x0, symName: __ZNK6ImRect9GetCenterEv, symObjAddr: 0x375FC, symBinAddr: 0x100053A90, symSize: 0x54 }
  - { offsetInCU: 0x26AA5, offset: 0x7A679, size: 0x8, addend: 0x0, symName: __ZN12ImGuiPayload5ClearEv, symObjAddr: 0x376E8, symBinAddr: 0x100053B7C, symSize: 0x58 }
  - { offsetInCU: 0x26ACB, offset: 0x7A69F, size: 0x8, addend: 0x0, symName: __ZN8ImVectorIhE5clearEv, symObjAddr: 0x37740, symBinAddr: 0x100053BD4, symSize: 0x58 }
  - { offsetInCU: 0x26AF1, offset: 0x7A6C5, size: 0x8, addend: 0x0, symName: __ZN8ImVectorIhE6resizeEi, symObjAddr: 0x38308, symBinAddr: 0x10005479C, symSize: 0x68 }
  - { offsetInCU: 0x26B26, offset: 0x7A6FA, size: 0x8, addend: 0x0, symName: __ZNK12ImGuiPayload10IsDataTypeEPKc, symObjAddr: 0x38C14, symBinAddr: 0x1000550A8, symSize: 0x6C }
  - { offsetInCU: 0x26B5B, offset: 0x7A72F, size: 0x8, addend: 0x0, symName: __ZN6ImRect6ExpandEf, symObjAddr: 0x38D80, symBinAddr: 0x100055214, symSize: 0x58 }
  - { offsetInCU: 0x26B90, offset: 0x7A764, size: 0x8, addend: 0x0, symName: __ZL8LogTextVR12ImGuiContextPKcPc, symObjAddr: 0x38F74, symBinAddr: 0x100055408, symSize: 0xD0 }
  - { offsetInCU: 0x26BD9, offset: 0x7A7AD, size: 0x8, addend: 0x0, symName: __ZNK15ImGuiTextBuffer5emptyEv, symObjAddr: 0x39278, symBinAddr: 0x10005570C, symSize: 0x24 }
  - { offsetInCU: 0x26BFF, offset: 0x7A7D3, size: 0x8, addend: 0x0, symName: __ZNK15ImGuiTextBuffer5beginEv, symObjAddr: 0x39490, symBinAddr: 0x100055924, symSize: 0x5C }
  - { offsetInCU: 0x26C25, offset: 0x7A7F9, size: 0x8, addend: 0x0, symName: __ZN8ImVectorI20ImGuiSettingsHandlerE9push_backERKS0_, symObjAddr: 0x39788, symBinAddr: 0x100055C1C, symSize: 0x94 }
  - { offsetInCU: 0x26C5A, offset: 0x7A82E, size: 0x8, addend: 0x0, symName: __ZN8ImVectorI20ImGuiSettingsHandlerE5eraseEPKS0_, symObjAddr: 0x3987C, symBinAddr: 0x100055D10, symSize: 0x128 }
  - { offsetInCU: 0x26C9E, offset: 0x7A872, size: 0x8, addend: 0x0, symName: __ZN8ImVectorI20ImGuiSettingsHandlerE5beginEv, symObjAddr: 0x399A4, symBinAddr: 0x100055E38, symSize: 0x18 }
  - { offsetInCU: 0x26CC4, offset: 0x7A898, size: 0x8, addend: 0x0, symName: __ZN8ImVectorI20ImGuiSettingsHandlerE3endEv, symObjAddr: 0x399BC, symBinAddr: 0x100055E50, symSize: 0x28 }
  - { offsetInCU: 0x26CEA, offset: 0x7A8BE, size: 0x8, addend: 0x0, symName: __ZN8ImVectorIcE9push_backERKc, symObjAddr: 0x3A154, symBinAddr: 0x1000565E8, symSize: 0x88 }
  - { offsetInCU: 0x26D1F, offset: 0x7A8F3, size: 0x8, addend: 0x0, symName: __ZNK15ImGuiTextBuffer4sizeEv, symObjAddr: 0x3A1DC, symBinAddr: 0x100056670, symSize: 0x50 }
  - { offsetInCU: 0x26D45, offset: 0x7A919, size: 0x8, addend: 0x0, symName: __ZNK15ImGuiTextBuffer5c_strEv, symObjAddr: 0x3A22C, symBinAddr: 0x1000566C0, symSize: 0x50 }
  - { offsetInCU: 0x26D6B, offset: 0x7A93F, size: 0x8, addend: 0x0, symName: __ZN13ImChunkStreamI19ImGuiWindowSettingsE11alloc_chunkEm, symObjAddr: 0x3A3D8, symBinAddr: 0x100056840, symSize: 0x88 }
  - { offsetInCU: 0x26DBE, offset: 0x7A992, size: 0x8, addend: 0x0, symName: __ZN19ImGuiWindowSettingsC1Ev, symObjAddr: 0x3A460, symBinAddr: 0x1000568C8, symSize: 0x2C }
  - { offsetInCU: 0x26DE8, offset: 0x7A9BC, size: 0x8, addend: 0x0, symName: __ZN19ImGuiWindowSettings7GetNameEv, symObjAddr: 0x3A48C, symBinAddr: 0x1000568F4, symSize: 0x18 }
  - { offsetInCU: 0x26E0E, offset: 0x7A9E2, size: 0x8, addend: 0x0, symName: __ZN13ImChunkStreamI19ImGuiWindowSettingsE5beginEv, symObjAddr: 0x3A55C, symBinAddr: 0x1000569C4, symSize: 0x58 }
  - { offsetInCU: 0x26E43, offset: 0x7AA17, size: 0x8, addend: 0x0, symName: __ZN13ImChunkStreamI19ImGuiWindowSettingsE10next_chunkEPS0_, symObjAddr: 0x3A5B4, symBinAddr: 0x100056A1C, symSize: 0x15C }
  - { offsetInCU: 0x26E87, offset: 0x7AA5B, size: 0x8, addend: 0x0, symName: __ZN13ImChunkStreamI19ImGuiWindowSettingsE15ptr_from_offsetEi, symObjAddr: 0x3A788, symBinAddr: 0x100056BF0, symSize: 0xA0 }
  - { offsetInCU: 0x26EBC, offset: 0x7AA90, size: 0x8, addend: 0x0, symName: __ZL24InitOrLoadWindowSettingsP11ImGuiWindowP19ImGuiWindowSettings, symObjAddr: 0x3A8F0, symBinAddr: 0x100056D58, symSize: 0x204 }
  - { offsetInCU: 0x26F05, offset: 0x7AAD9, size: 0x8, addend: 0x0, symName: __ZL11ScaleWindowP11ImGuiWindowf, symObjAddr: 0x3ABB0, symBinAddr: 0x100057018, symSize: 0x12C }
  - { offsetInCU: 0x26F4E, offset: 0x7AB22, size: 0x8, addend: 0x0, symName: __ZdvRK6ImVec2S1_, symObjAddr: 0x3B2F8, symBinAddr: 0x100057760, symSize: 0x58 }
  - { offsetInCU: 0x26F8C, offset: 0x7AB60, size: 0x8, addend: 0x0, symName: __ZL24DebugFlashStyleColorStopv, symObjAddr: 0x3BA74, symBinAddr: 0x100057EDC, symSize: 0x60 }
  - { offsetInCU: 0x26FB7, offset: 0x7AB8B, size: 0x8, addend: 0x0, symName: __ZN8ImVectorIP6ImFontE5beginEv, symObjAddr: 0x3BC8C, symBinAddr: 0x1000580F4, symSize: 0x18 }
  - { offsetInCU: 0x26FDD, offset: 0x7ABB1, size: 0x8, addend: 0x0, symName: __ZN8ImVectorIP6ImFontE3endEv, symObjAddr: 0x3BCA4, symBinAddr: 0x10005810C, symSize: 0x20 }
  - { offsetInCU: 0x27003, offset: 0x7ABD7, size: 0x8, addend: 0x0, symName: __ZL17MetricsHelpMarkerPKc, symObjAddr: 0x40534, symBinAddr: 0x10005C99C, symSize: 0x60 }
  - { offsetInCU: 0x2702E, offset: 0x7AC02, size: 0x8, addend: 0x0, symName: __ZZN5ImGui17ShowMetricsWindowEPbEN5Funcs13GetWindowRectEP11ImGuiWindowi, symObjAddr: 0x40594, symBinAddr: 0x10005C9FC, symSize: 0x254 }
  - { offsetInCU: 0x2709F, offset: 0x7AC73, size: 0x8, addend: 0x0, symName: __ZNK6ImPoolI10ImGuiTableE10GetMapSizeEv, symObjAddr: 0x407E8, symBinAddr: 0x10005CC50, symSize: 0x18 }
  - { offsetInCU: 0x270C5, offset: 0x7AC99, size: 0x8, addend: 0x0, symName: __ZN6ImPoolI10ImGuiTableE13TryGetMapDataEi, symObjAddr: 0x40800, symBinAddr: 0x10005CC68, symSize: 0x70 }
  - { offsetInCU: 0x27109, offset: 0x7ACDD, size: 0x8, addend: 0x0, symName: __ZZN5ImGui17ShowMetricsWindowEPbEN5Funcs12GetTableRectEP10ImGuiTableii, symObjAddr: 0x40870, symBinAddr: 0x10005CCD8, symSize: 0x3DC }
  - { offsetInCU: 0x27229, offset: 0x7ADFD, size: 0x8, addend: 0x0, symName: __ZZN5ImGui17ShowMetricsWindowEPbEN4Func26WindowComparerByBeginOrderEPKvS3_, symObjAddr: 0x40D1C, symBinAddr: 0x10005D184, symSize: 0x30 }
  - { offsetInCU: 0x27260, offset: 0x7AE34, size: 0x8, addend: 0x0, symName: __ZL25RenderViewportsThumbnailsv, symObjAddr: 0x419B0, symBinAddr: 0x10005DE18, symSize: 0x238 }
  - { offsetInCU: 0x2734C, offset: 0x7AF20, size: 0x8, addend: 0x0, symName: __ZNK6ImPoolI11ImGuiTabBarE13GetAliveCountEv, symObjAddr: 0x41E30, symBinAddr: 0x10005E298, symSize: 0x18 }
  - { offsetInCU: 0x27372, offset: 0x7AF46, size: 0x8, addend: 0x0, symName: __ZNK6ImPoolI11ImGuiTabBarE10GetMapSizeEv, symObjAddr: 0x41E48, symBinAddr: 0x10005E2B0, symSize: 0x18 }
  - { offsetInCU: 0x27398, offset: 0x7AF6C, size: 0x8, addend: 0x0, symName: __ZN6ImPoolI11ImGuiTabBarE13TryGetMapDataEi, symObjAddr: 0x41E60, symBinAddr: 0x10005E2C8, symSize: 0x70 }
  - { offsetInCU: 0x273DC, offset: 0x7AFB0, size: 0x8, addend: 0x0, symName: __ZNK6ImPoolI10ImGuiTableE13GetAliveCountEv, symObjAddr: 0x4240C, symBinAddr: 0x10005E874, symSize: 0x18 }
  - { offsetInCU: 0x27402, offset: 0x7AFD6, size: 0x8, addend: 0x0, symName: __ZNK6ImPoolI21ImGuiMultiSelectStateE13GetAliveCountEv, symObjAddr: 0x42424, symBinAddr: 0x10005E88C, symSize: 0x18 }
  - { offsetInCU: 0x27428, offset: 0x7AFFC, size: 0x8, addend: 0x0, symName: __ZNK6ImPoolI21ImGuiMultiSelectStateE10GetMapSizeEv, symObjAddr: 0x4243C, symBinAddr: 0x10005E8A4, symSize: 0x18 }
  - { offsetInCU: 0x2744E, offset: 0x7B022, size: 0x8, addend: 0x0, symName: __ZN6ImPoolI21ImGuiMultiSelectStateE13TryGetMapDataEi, symObjAddr: 0x42454, symBinAddr: 0x10005E8BC, symSize: 0x70 }
  - { offsetInCU: 0x27492, offset: 0x7B066, size: 0x8, addend: 0x0, symName: __ZNK13ImChunkStreamI19ImGuiWindowSettingsE4sizeEv, symObjAddr: 0x424C4, symBinAddr: 0x10005E92C, symSize: 0x18 }
  - { offsetInCU: 0x274B8, offset: 0x7B08C, size: 0x8, addend: 0x0, symName: __ZNK13ImChunkStreamI18ImGuiTableSettingsE4sizeEv, symObjAddr: 0x425B4, symBinAddr: 0x10005EA1C, symSize: 0x18 }
  - { offsetInCU: 0x274DE, offset: 0x7B0B2, size: 0x8, addend: 0x0, symName: __ZN13ImChunkStreamI18ImGuiTableSettingsE5beginEv, symObjAddr: 0x425CC, symBinAddr: 0x10005EA34, symSize: 0x58 }
  - { offsetInCU: 0x27513, offset: 0x7B0E7, size: 0x8, addend: 0x0, symName: __ZN13ImChunkStreamI18ImGuiTableSettingsE10next_chunkEPS0_, symObjAddr: 0x42624, symBinAddr: 0x10005EA8C, symSize: 0x15C }
  - { offsetInCU: 0x27557, offset: 0x7B12B, size: 0x8, addend: 0x0, symName: __ZN8ImVectorItEixEi, symObjAddr: 0x42780, symBinAddr: 0x10005EBE8, symSize: 0xA0 }
  - { offsetInCU: 0x2758C, offset: 0x7B160, size: 0x8, addend: 0x0, symName: __ZL18GetMouseSourceName16ImGuiMouseSource, symObjAddr: 0x42820, symBinAddr: 0x10005EC88, symSize: 0xDC }
  - { offsetInCU: 0x275CA, offset: 0x7B19E, size: 0x8, addend: 0x0, symName: __ZL18GetInputSourceName16ImGuiInputSource, symObjAddr: 0x42DAC, symBinAddr: 0x10005F214, symSize: 0xE0 }
  - { offsetInCU: 0x27608, offset: 0x7B1DC, size: 0x8, addend: 0x0, symName: __ZN8ImVectorI19ImGuiFocusScopeDataEixEi, symObjAddr: 0x42E8C, symBinAddr: 0x10005F2F4, symSize: 0xA0 }
  - { offsetInCU: 0x2763D, offset: 0x7B211, size: 0x8, addend: 0x0, symName: __ZN8ImVectorI18ImGuiOldColumnDataE5beginEv, symObjAddr: 0x4314C, symBinAddr: 0x10005F5B4, symSize: 0x18 }
  - { offsetInCU: 0x27663, offset: 0x7B237, size: 0x8, addend: 0x0, symName: __ZN8ImVectorI18ImGuiOldColumnDataE3endEv, symObjAddr: 0x43164, symBinAddr: 0x10005F5CC, symSize: 0x28 }
  - { offsetInCU: 0x27689, offset: 0x7B25D, size: 0x8, addend: 0x0, symName: __ZNK8ImVectorI18ImGuiOldColumnDataE14index_from_ptrEPKS0_, symObjAddr: 0x4318C, symBinAddr: 0x10005F5F4, symSize: 0xC8 }
  - { offsetInCU: 0x276CD, offset: 0x7B2A1, size: 0x8, addend: 0x0, symName: __ZNK8ImVectorI9ImDrawCmdE4backEv, symObjAddr: 0x43254, symBinAddr: 0x10005F6BC, symSize: 0x78 }
  - { offsetInCU: 0x276F3, offset: 0x7B2C7, size: 0x8, addend: 0x0, symName: __ZL30FormatTextureIDForDebugDisplayPciy, symObjAddr: 0x432CC, symBinAddr: 0x10005F734, symSize: 0x6C }
  - { offsetInCU: 0x27771, offset: 0x7B345, size: 0x8, addend: 0x0, symName: __ZNK8ImVectorI9ImDrawCmdE5beginEv, symObjAddr: 0x43338, symBinAddr: 0x10005F7A0, symSize: 0x18 }
  - { offsetInCU: 0x27797, offset: 0x7B36B, size: 0x8, addend: 0x0, symName: __Z14ImTriangleAreaRK6ImVec2S1_S1_, symObjAddr: 0x436EC, symBinAddr: 0x10005FB54, symSize: 0x84 }
  - { offsetInCU: 0x277E3, offset: 0x7B3B7, size: 0x8, addend: 0x0, symName: __ZN6ImRect3AddERK6ImVec2, symObjAddr: 0x43770, symBinAddr: 0x10005FBD8, symSize: 0xE8 }
  - { offsetInCU: 0x27818, offset: 0x7B3EC, size: 0x8, addend: 0x0, symName: __ZNK8ImVectorI16ImGuiStoragePairE13size_in_bytesEv, symObjAddr: 0x43AA8, symBinAddr: 0x10005FF10, symSize: 0x1C }
  - { offsetInCU: 0x2783E, offset: 0x7B412, size: 0x8, addend: 0x0, symName: __ZN8ImVectorI16ImGuiStoragePairE5beginEv, symObjAddr: 0x43AC4, symBinAddr: 0x10005FF2C, symSize: 0x18 }
  - { offsetInCU: 0x27864, offset: 0x7B438, size: 0x8, addend: 0x0, symName: __ZN8ImVectorI16ImGuiStoragePairE3endEv, symObjAddr: 0x43ADC, symBinAddr: 0x10005FF44, symSize: 0x20 }
  - { offsetInCU: 0x2788A, offset: 0x7B45E, size: 0x8, addend: 0x0, symName: __ZN8ImVectorI12ImGuiTabItemEixEi, symObjAddr: 0x43AFC, symBinAddr: 0x10005FF64, symSize: 0xA8 }
  - { offsetInCU: 0x278BF, offset: 0x7B493, size: 0x8, addend: 0x0, symName: __ZN8ImVectorI15ImGuiOldColumnsE5beginEv, symObjAddr: 0x446C0, symBinAddr: 0x100060B28, symSize: 0x18 }
  - { offsetInCU: 0x278E5, offset: 0x7B4B9, size: 0x8, addend: 0x0, symName: __ZN8ImVectorI15ImGuiOldColumnsE3endEv, symObjAddr: 0x446D8, symBinAddr: 0x100060B40, symSize: 0x28 }
  - { offsetInCU: 0x2790B, offset: 0x7B4DF, size: 0x8, addend: 0x0, symName: __ZL16ShowDebugLogFlagPKci, symObjAddr: 0x44880, symBinAddr: 0x100060CE8, symSize: 0x204 }
  - { offsetInCU: 0x27972, offset: 0x7B546, size: 0x8, addend: 0x0, symName: __ZN14ImGuiTextIndex4sizeEv, symObjAddr: 0x44A84, symBinAddr: 0x100060EEC, symSize: 0x18 }
  - { offsetInCU: 0x27998, offset: 0x7B56C, size: 0x8, addend: 0x0, symName: __ZN14ImGuiTextIndex14get_line_beginEPKci, symObjAddr: 0x44CE8, symBinAddr: 0x100061150, symSize: 0x44 }
  - { offsetInCU: 0x279DC, offset: 0x7B5B0, size: 0x8, addend: 0x0, symName: __ZN14ImGuiTextIndex12get_line_endEPKci, symObjAddr: 0x44D2C, symBinAddr: 0x100061194, symSize: 0x8C }
  - { offsetInCU: 0x27A20, offset: 0x7B5F4, size: 0x8, addend: 0x0, symName: __ZL15ImCharIsXdigitAc, symObjAddr: 0x44DB8, symBinAddr: 0x100061220, symSize: 0xB4 }
  - { offsetInCU: 0x27A4F, offset: 0x7B623, size: 0x8, addend: 0x0, symName: __ZN8ImVectorI19ImGuiStackLevelInfoE6resizeEiRKS0_, symObjAddr: 0x45204, symBinAddr: 0x10006166C, symSize: 0xE4 }
  - { offsetInCU: 0x27AB0, offset: 0x7B684, size: 0x8, addend: 0x0, symName: __ZN19ImGuiStackLevelInfoC1Ev, symObjAddr: 0x452E8, symBinAddr: 0x100061750, symSize: 0x2C }
  - { offsetInCU: 0x27ADA, offset: 0x7B6AE, size: 0x8, addend: 0x0, symName: __ZN8ImVectorIjEixEi, symObjAddr: 0x45314, symBinAddr: 0x10006177C, symSize: 0xA0 }
  - { offsetInCU: 0x27B0F, offset: 0x7B6E3, size: 0x8, addend: 0x0, symName: __ZN8ImVectorI19ImGuiStackLevelInfoEixEi, symObjAddr: 0x453B4, symBinAddr: 0x10006181C, symSize: 0xA0 }
  - { offsetInCU: 0x27B44, offset: 0x7B718, size: 0x8, addend: 0x0, symName: __ZN15ImGuiTextBuffer6resizeEi, symObjAddr: 0x45454, symBinAddr: 0x1000618BC, symSize: 0x9C }
  - { offsetInCU: 0x27B79, offset: 0x7B74D, size: 0x8, addend: 0x0, symName: __ZL24StackToolFormatLevelInfoP16ImGuiIDStackToolibPcm, symObjAddr: 0x454F0, symBinAddr: 0x100061958, symSize: 0x1D4 }
  - { offsetInCU: 0x27C02, offset: 0x7B7D6, size: 0x8, addend: 0x0, symName: __ZN6ImVec2C2Ev, symObjAddr: 0x456C4, symBinAddr: 0x100061B2C, symSize: 0x20 }
  - { offsetInCU: 0x27C2C, offset: 0x7B800, size: 0x8, addend: 0x0, symName: __ZN6ImVec4C2Ev, symObjAddr: 0x456E4, symBinAddr: 0x100061B4C, symSize: 0x28 }
  - { offsetInCU: 0x27C56, offset: 0x7B82A, size: 0x8, addend: 0x0, symName: __ZN6ImVec2C2Eff, symObjAddr: 0x4570C, symBinAddr: 0x100061B74, symSize: 0x2C }
  - { offsetInCU: 0x27C9E, offset: 0x7B872, size: 0x8, addend: 0x0, symName: __ZN15ImGuiInputEventC2Ev, symObjAddr: 0x45738, symBinAddr: 0x100061BA0, symSize: 0x24 }
  - { offsetInCU: 0x27CC8, offset: 0x7B89C, size: 0x8, addend: 0x0, symName: __ZN6ImVec4C2Effff, symObjAddr: 0x4575C, symBinAddr: 0x100061BC4, symSize: 0x44 }
  - { offsetInCU: 0x27D2E, offset: 0x7B902, size: 0x8, addend: 0x0, symName: __ZN16ImGuiStoragePairC2Eji, symObjAddr: 0x457A0, symBinAddr: 0x100061C08, symSize: 0x2C }
  - { offsetInCU: 0x27D76, offset: 0x7B94A, size: 0x8, addend: 0x0, symName: __ZN16ImGuiStoragePairC2Ejf, symObjAddr: 0x457CC, symBinAddr: 0x100061C34, symSize: 0x2C }
  - { offsetInCU: 0x27DBE, offset: 0x7B992, size: 0x8, addend: 0x0, symName: __ZN16ImGuiStoragePairC2EjPv, symObjAddr: 0x457F8, symBinAddr: 0x100061C60, symSize: 0x2C }
  - { offsetInCU: 0x27E06, offset: 0x7B9DA, size: 0x8, addend: 0x0, symName: __ZN15ImGuiTextFilter14ImGuiTextRangeC2EPKcS2_, symObjAddr: 0x45824, symBinAddr: 0x100061C8C, symSize: 0x2C }
  - { offsetInCU: 0x27E4E, offset: 0x7BA22, size: 0x8, addend: 0x0, symName: __ZN20ImGuiListClipperDataC2Ev, symObjAddr: 0x45850, symBinAddr: 0x100061CB8, symSize: 0x40 }
  - { offsetInCU: 0x27E78, offset: 0x7BA4C, size: 0x8, addend: 0x0, symName: __ZN8ImVectorI21ImGuiListClipperRangeEC1Ev, symObjAddr: 0x45890, symBinAddr: 0x100061CF8, symSize: 0x2C }
  - { offsetInCU: 0x27EA2, offset: 0x7BA76, size: 0x8, addend: 0x0, symName: __ZN8ImVectorI21ImGuiListClipperRangeEC2Ev, symObjAddr: 0x458BC, symBinAddr: 0x100061D24, symSize: 0x20 }
  - { offsetInCU: 0x27ECC, offset: 0x7BAA0, size: 0x8, addend: 0x0, symName: __ZN20ImGuiListClipperDataD2Ev, symObjAddr: 0x458DC, symBinAddr: 0x100061D44, symSize: 0x30 }
  - { offsetInCU: 0x27EF9, offset: 0x7BACD, size: 0x8, addend: 0x0, symName: __ZN8ImVectorI21ImGuiListClipperRangeED1Ev, symObjAddr: 0x4590C, symBinAddr: 0x100061D74, symSize: 0x2C }
  - { offsetInCU: 0x27F23, offset: 0x7BAF7, size: 0x8, addend: 0x0, symName: __ZN8ImVectorI21ImGuiListClipperRangeED2Ev, symObjAddr: 0x45938, symBinAddr: 0x100061DA0, symSize: 0x5C }
  - { offsetInCU: 0x27F4D, offset: 0x7BB21, size: 0x8, addend: 0x0, symName: __ZN8ImVectorI21ImGuiListClipperRangeE6resizeEi, symObjAddr: 0x45994, symBinAddr: 0x100061DFC, symSize: 0x68 }
  - { offsetInCU: 0x27F82, offset: 0x7BB56, size: 0x8, addend: 0x0, symName: __ZN8ImVectorI21ImGuiListClipperRangeE7reserveEi, symObjAddr: 0x459FC, symBinAddr: 0x100061E64, symSize: 0xB4 }
  - { offsetInCU: 0x27FC6, offset: 0x7BB9A, size: 0x8, addend: 0x0, symName: __ZNK8ImVectorI21ImGuiListClipperRangeE14_grow_capacityEi, symObjAddr: 0x45AB0, symBinAddr: 0x100061F18, symSize: 0x98 }
  - { offsetInCU: 0x2800A, offset: 0x7BBDE, size: 0x8, addend: 0x0, symName: __ZL26GetSkipItemForListClippingv, symObjAddr: 0x45B48, symBinAddr: 0x100061FB0, symSize: 0x60 }
  - { offsetInCU: 0x28039, offset: 0x7BC0D, size: 0x8, addend: 0x0, symName: __ZN8ImVectorI21ImGuiListClipperRangeE10push_frontERKS0_, symObjAddr: 0x45BA8, symBinAddr: 0x100062010, symSize: 0x60 }
  - { offsetInCU: 0x2806E, offset: 0x7BC42, size: 0x8, addend: 0x0, symName: __ZN8ImVectorI21ImGuiListClipperRangeEixEi, symObjAddr: 0x45C08, symBinAddr: 0x100062070, symSize: 0xA8 }
  - { offsetInCU: 0x280A3, offset: 0x7BC77, size: 0x8, addend: 0x0, symName: __ZL40ImIsFloatAboveGuaranteedIntegerPrecisionf, symObjAddr: 0x45CB0, symBinAddr: 0x100062118, symSize: 0x58 }
  - { offsetInCU: 0x280D2, offset: 0x7BCA6, size: 0x8, addend: 0x0, symName: __ZN21ImGuiListClipperRange13FromPositionsEffii, symObjAddr: 0x45D08, symBinAddr: 0x100062170, symSize: 0xB4 }
  - { offsetInCU: 0x28132, offset: 0x7BD06, size: 0x8, addend: 0x0, symName: __ZN8ImVectorI21ImGuiListClipperRangeE5beginEv, symObjAddr: 0x45DBC, symBinAddr: 0x100062224, symSize: 0x18 }
  - { offsetInCU: 0x28158, offset: 0x7BD2C, size: 0x8, addend: 0x0, symName: __ZN8ImVectorI21ImGuiListClipperRangeE3endEv, symObjAddr: 0x45DD4, symBinAddr: 0x10006223C, symSize: 0x28 }
  - { offsetInCU: 0x2817E, offset: 0x7BD52, size: 0x8, addend: 0x0, symName: __ZL7ImClampIiET_S0_S0_S0_, symObjAddr: 0x45DFC, symBinAddr: 0x100062264, symSize: 0x7C }
  - { offsetInCU: 0x281D4, offset: 0x7BDA8, size: 0x8, addend: 0x0, symName: __ZL34ImGuiListClipper_SortAndFuseRangesR8ImVectorI21ImGuiListClipperRangeEi, symObjAddr: 0x45E78, symBinAddr: 0x1000622E0, symSize: 0x2F8 }
  - { offsetInCU: 0x28265, offset: 0x7BE39, size: 0x8, addend: 0x0, symName: __ZN8ImVectorI21ImGuiListClipperRangeE6insertEPKS0_RS2_, symObjAddr: 0x46170, symBinAddr: 0x1000625D8, symSize: 0x1A8 }
  - { offsetInCU: 0x282B8, offset: 0x7BE8C, size: 0x8, addend: 0x0, symName: __ZL6ImSwapI21ImGuiListClipperRangeEvRT_S2_, symObjAddr: 0x46318, symBinAddr: 0x100062780, symSize: 0x54 }
  - { offsetInCU: 0x2830A, offset: 0x7BEDE, size: 0x8, addend: 0x0, symName: __ZN8ImVectorI21ImGuiListClipperRangeE5eraseEPKS0_, symObjAddr: 0x4636C, symBinAddr: 0x1000627D4, symSize: 0x128 }
  - { offsetInCU: 0x2834E, offset: 0x7BF22, size: 0x8, addend: 0x0, symName: __ZN13ImGuiColorModC2Ev, symObjAddr: 0x46494, symBinAddr: 0x1000628FC, symSize: 0x30 }
  - { offsetInCU: 0x2837B, offset: 0x7BF4F, size: 0x8, addend: 0x0, symName: __ZN13ImGuiStyleModC2Eif, symObjAddr: 0x464C4, symBinAddr: 0x10006292C, symSize: 0x2C }
  - { offsetInCU: 0x283C3, offset: 0x7BF97, size: 0x8, addend: 0x0, symName: __ZN13ImGuiStyleModC2Ei6ImVec2, symObjAddr: 0x464F0, symBinAddr: 0x100062958, symSize: 0x38 }
  - { offsetInCU: 0x2840B, offset: 0x7BFDF, size: 0x8, addend: 0x0, symName: __ZL5ImMinRK6ImVec2S1_, symObjAddr: 0x46528, symBinAddr: 0x100062990, symSize: 0xC0 }
  - { offsetInCU: 0x28449, offset: 0x7C01D, size: 0x8, addend: 0x0, symName: __ZN6ImRectC2ERK6ImVec2S2_, symObjAddr: 0x465E8, symBinAddr: 0x100062A50, symSize: 0x34 }
  - { offsetInCU: 0x28491, offset: 0x7C065, size: 0x8, addend: 0x0, symName: __ZL13MallocWrappermPv, symObjAddr: 0x4661C, symBinAddr: 0x100062A84, symSize: 0x28 }
  - { offsetInCU: 0x284CF, offset: 0x7C0A3, size: 0x8, addend: 0x0, symName: __ZL11FreeWrapperPvS_, symObjAddr: 0x46644, symBinAddr: 0x100062AAC, symSize: 0x28 }
  - { offsetInCU: 0x28509, offset: 0x7C0DD, size: 0x8, addend: 0x0, symName: __ZN12ImGuiStorageC2Ev, symObjAddr: 0x4666C, symBinAddr: 0x100062AD4, symSize: 0x2C }
  - { offsetInCU: 0x28536, offset: 0x7C10A, size: 0x8, addend: 0x0, symName: __ZN8ImVectorI16ImGuiStoragePairEC1Ev, symObjAddr: 0x46698, symBinAddr: 0x100062B00, symSize: 0x2C }
  - { offsetInCU: 0x28560, offset: 0x7C134, size: 0x8, addend: 0x0, symName: __ZN8ImVectorI16ImGuiStoragePairEC2Ev, symObjAddr: 0x466C4, symBinAddr: 0x100062B2C, symSize: 0x20 }
  - { offsetInCU: 0x2858A, offset: 0x7C15E, size: 0x8, addend: 0x0, symName: __ZN17ImGuiKeyOwnerDataC2Ev, symObjAddr: 0x466E4, symBinAddr: 0x100062B4C, symSize: 0x28 }
  - { offsetInCU: 0x285B4, offset: 0x7C188, size: 0x8, addend: 0x0, symName: __ZN20ImGuiKeyRoutingTableC2Ev, symObjAddr: 0x4670C, symBinAddr: 0x100062B74, symSize: 0x94 }
  - { offsetInCU: 0x285DE, offset: 0x7C1B2, size: 0x8, addend: 0x0, symName: __ZN8ImVectorI19ImGuiKeyRoutingDataEC1Ev, symObjAddr: 0x467A0, symBinAddr: 0x100062C08, symSize: 0x2C }
  - { offsetInCU: 0x28608, offset: 0x7C1DC, size: 0x8, addend: 0x0, symName: __ZN8ImVectorI19ImGuiKeyRoutingDataED1Ev, symObjAddr: 0x467CC, symBinAddr: 0x100062C34, symSize: 0x2C }
  - { offsetInCU: 0x28632, offset: 0x7C206, size: 0x8, addend: 0x0, symName: __ZN8ImVectorI19ImGuiKeyRoutingDataEC2Ev, symObjAddr: 0x467F8, symBinAddr: 0x100062C60, symSize: 0x20 }
  - { offsetInCU: 0x2865C, offset: 0x7C230, size: 0x8, addend: 0x0, symName: __ZN8ImVectorI19ImGuiKeyRoutingDataED2Ev, symObjAddr: 0x46818, symBinAddr: 0x100062C80, symSize: 0x5C }
  - { offsetInCU: 0x28686, offset: 0x7C25A, size: 0x8, addend: 0x0, symName: __ZN17ImGuiNextItemDataC2Ev, symObjAddr: 0x46874, symBinAddr: 0x100062CDC, symSize: 0x3C }
  - { offsetInCU: 0x286B0, offset: 0x7C284, size: 0x8, addend: 0x0, symName: __ZN17ImGuiLastItemDataC2Ev, symObjAddr: 0x468B0, symBinAddr: 0x100062D18, symSize: 0x64 }
  - { offsetInCU: 0x286DA, offset: 0x7C2AE, size: 0x8, addend: 0x0, symName: __ZN19ImGuiNextWindowDataC2Ev, symObjAddr: 0x46914, symBinAddr: 0x100062D7C, symSize: 0x88 }
  - { offsetInCU: 0x28704, offset: 0x7C2D8, size: 0x8, addend: 0x0, symName: __ZN16ImGuiNavItemDataC2Ev, symObjAddr: 0x4699C, symBinAddr: 0x100062E04, symSize: 0x38 }
  - { offsetInCU: 0x2872E, offset: 0x7C302, size: 0x8, addend: 0x0, symName: __ZN6ImRectC2Ev, symObjAddr: 0x469D4, symBinAddr: 0x100062E3C, symSize: 0x4C }
  - { offsetInCU: 0x28758, offset: 0x7C32C, size: 0x8, addend: 0x0, symName: __ZN12ImGuiPayloadC2Ev, symObjAddr: 0x46A20, symBinAddr: 0x100062E88, symSize: 0x2C }
  - { offsetInCU: 0x28782, offset: 0x7C356, size: 0x8, addend: 0x0, symName: __ZN19ImGuiBoxSelectStateC2Ev, symObjAddr: 0x46A4C, symBinAddr: 0x100062EB4, symSize: 0x7C }
  - { offsetInCU: 0x287AC, offset: 0x7C380, size: 0x8, addend: 0x0, symName: __ZN30ImGuiInputTextDeactivatedStateC2Ev, symObjAddr: 0x46AC8, symBinAddr: 0x100062F30, symSize: 0x3C }
  - { offsetInCU: 0x287D6, offset: 0x7C3AA, size: 0x8, addend: 0x0, symName: __ZN21ImGuiComboPreviewDataC2Ev, symObjAddr: 0x46B04, symBinAddr: 0x100062F6C, symSize: 0x60 }
  - { offsetInCU: 0x28800, offset: 0x7C3D4, size: 0x8, addend: 0x0, symName: __ZN22ImGuiTypingSelectStateC2Ev, symObjAddr: 0x46B64, symBinAddr: 0x100062FCC, symSize: 0x44 }
  - { offsetInCU: 0x2882A, offset: 0x7C3FE, size: 0x8, addend: 0x0, symName: __ZN20ImGuiPlatformImeDataC2Ev, symObjAddr: 0x46BA8, symBinAddr: 0x100063010, symSize: 0x38 }
  - { offsetInCU: 0x28854, offset: 0x7C428, size: 0x8, addend: 0x0, symName: __ZN15ImGuiTextBufferC2Ev, symObjAddr: 0x46BE0, symBinAddr: 0x100063048, symSize: 0x2C }
  - { offsetInCU: 0x2887E, offset: 0x7C452, size: 0x8, addend: 0x0, symName: __ZN13ImChunkStreamI19ImGuiWindowSettingsEC2Ev, symObjAddr: 0x46C0C, symBinAddr: 0x100063074, symSize: 0x2C }
  - { offsetInCU: 0x288AB, offset: 0x7C47F, size: 0x8, addend: 0x0, symName: __ZN13ImChunkStreamI18ImGuiTableSettingsEC2Ev, symObjAddr: 0x46C38, symBinAddr: 0x1000630A0, symSize: 0x2C }
  - { offsetInCU: 0x288D8, offset: 0x7C4AC, size: 0x8, addend: 0x0, symName: __ZN23ImGuiErrorRecoveryStateC2Ev, symObjAddr: 0x46C64, symBinAddr: 0x1000630CC, symSize: 0x20 }
  - { offsetInCU: 0x28902, offset: 0x7C4D6, size: 0x8, addend: 0x0, symName: __ZN14ImGuiTextIndexC2Ev, symObjAddr: 0x46C84, symBinAddr: 0x1000630EC, symSize: 0x30 }
  - { offsetInCU: 0x2892F, offset: 0x7C503, size: 0x8, addend: 0x0, symName: __ZN18ImGuiMetricsConfigC2Ev, symObjAddr: 0x46CB4, symBinAddr: 0x10006311C, symSize: 0x4C }
  - { offsetInCU: 0x2895C, offset: 0x7C530, size: 0x8, addend: 0x0, symName: __ZN16ImGuiIDStackToolC2Ev, symObjAddr: 0x46D00, symBinAddr: 0x100063168, symSize: 0x84 }
  - { offsetInCU: 0x28986, offset: 0x7C55A, size: 0x8, addend: 0x0, symName: __ZN8ImVectorI19ImGuiStackLevelInfoEC1Ev, symObjAddr: 0x46D84, symBinAddr: 0x1000631EC, symSize: 0x2C }
  - { offsetInCU: 0x289B0, offset: 0x7C584, size: 0x8, addend: 0x0, symName: __ZN8ImVectorI19ImGuiStackLevelInfoED1Ev, symObjAddr: 0x46DB0, symBinAddr: 0x100063218, symSize: 0x2C }
  - { offsetInCU: 0x289DA, offset: 0x7C5AE, size: 0x8, addend: 0x0, symName: __ZN8ImVectorI19ImGuiStackLevelInfoEC2Ev, symObjAddr: 0x46DDC, symBinAddr: 0x100063244, symSize: 0x20 }
  - { offsetInCU: 0x28A04, offset: 0x7C5D8, size: 0x8, addend: 0x0, symName: __ZN8ImVectorI19ImGuiStackLevelInfoED2Ev, symObjAddr: 0x46DFC, symBinAddr: 0x100063264, symSize: 0x5C }
  - { offsetInCU: 0x28A2E, offset: 0x7C602, size: 0x8, addend: 0x0, symName: __ZN19ImGuiDebugAllocInfoC2Ev, symObjAddr: 0x46E58, symBinAddr: 0x1000632C0, symSize: 0x34 }
  - { offsetInCU: 0x28A58, offset: 0x7C62C, size: 0x8, addend: 0x0, symName: __ZN16ImGuiIDStackToolD2Ev, symObjAddr: 0x46E8C, symBinAddr: 0x1000632F4, symSize: 0x3C }
  - { offsetInCU: 0x28A85, offset: 0x7C659, size: 0x8, addend: 0x0, symName: __ZN14ImGuiTextIndexD2Ev, symObjAddr: 0x46EC8, symBinAddr: 0x100063330, symSize: 0x2C }
  - { offsetInCU: 0x28AB2, offset: 0x7C686, size: 0x8, addend: 0x0, symName: __ZN15ImGuiTextBufferD2Ev, symObjAddr: 0x46EF4, symBinAddr: 0x10006335C, symSize: 0x2C }
  - { offsetInCU: 0x28ADF, offset: 0x7C6B3, size: 0x8, addend: 0x0, symName: __ZN13ImChunkStreamI18ImGuiTableSettingsED2Ev, symObjAddr: 0x46F20, symBinAddr: 0x100063388, symSize: 0x2C }
  - { offsetInCU: 0x28B0C, offset: 0x7C6E0, size: 0x8, addend: 0x0, symName: __ZN13ImChunkStreamI19ImGuiWindowSettingsED2Ev, symObjAddr: 0x46F4C, symBinAddr: 0x1000633B4, symSize: 0x2C }
